
Firmware.elf:     file format elf32-littlearm

Sections:
Idx Name          Size      VMA       LMA       File off  Algn
  0 .isr_vector   00000298  08000000  08000000  00010000  2**0
                  CONTENTS, ALLOC, LOAD, READONLY, DATA
  1 .text         00008fb8  080002a0  080002a0  000102a0  2**4
                  CONTENTS, ALLOC, LOAD, READONLY, CODE
  2 .rodata       000001b0  08009258  08009258  00019258  2**2
                  CONTENTS, ALLOC, LOAD, READONLY, DATA
  3 .ARM          00000008  08009408  08009408  00019408  2**2
                  CONTENTS, ALLOC, LOAD, READONLY, DATA
  4 .init_array   00000008  08009410  08009410  00019410  2**2
                  CONTENTS, ALLOC, LOAD, DATA
  5 .fini_array   00000008  08009418  08009418  00019418  2**2
                  CONTENTS, ALLOC, LOAD, DATA
  6 .data         000001e8  20000000  08009420  00020000  2**2
                  CONTENTS, ALLOC, LOAD, DATA
  7 .bss          00001d5c  200001e8  08009608  000201e8  2**2
                  ALLOC
  8 ._user_heap_stack 00002404  20001f44  08009608  00021f44  2**0
                  ALLOC
  9 .ARM.attributes 0000002e  00000000  00000000  000201e8  2**0
                  CONTENTS, READONLY
 10 .debug_info   0004973f  00000000  00000000  00020216  2**0
                  CONTENTS, READONLY, DEBUGGING, OCTETS
 11 .debug_abbrev 000067a5  00000000  00000000  00069955  2**0
                  CONTENTS, READONLY, DEBUGGING, OCTETS
 12 .debug_loc    0001efdf  00000000  00000000  000700fa  2**0
                  CONTENTS, READONLY, DEBUGGING, OCTETS
 13 .debug_aranges 00002010  00000000  00000000  0008f0e0  2**3
                  CONTENTS, READONLY, DEBUGGING, OCTETS
 14 .debug_ranges 00001ed8  00000000  00000000  000910f0  2**3
                  CONTENTS, READONLY, DEBUGGING, OCTETS
 15 .debug_macro  00041b9c  00000000  00000000  00092fc8  2**0
                  CONTENTS, READONLY, DEBUGGING, OCTETS
 16 .debug_line   00031bff  00000000  00000000  000d4b64  2**0
                  CONTENTS, READONLY, DEBUGGING, OCTETS
 17 .debug_str    00180b6a  00000000  00000000  00106763  2**0
                  CONTENTS, READONLY, DEBUGGING, OCTETS
 18 .comment      00000053  00000000  00000000  002872cd  2**0
                  CONTENTS, READONLY
 19 .debug_frame  00005f58  00000000  00000000  00287320  2**2
                  CONTENTS, READONLY, DEBUGGING, OCTETS

Disassembly of section .text:

080002a0 <__do_global_dtors_aux>:
 80002a0:	b510      	push	{r4, lr}
 80002a2:	4c05      	ldr	r4, [pc, #20]	; (80002b8 <__do_global_dtors_aux+0x18>)
 80002a4:	7823      	ldrb	r3, [r4, #0]
 80002a6:	b933      	cbnz	r3, 80002b6 <__do_global_dtors_aux+0x16>
 80002a8:	4b04      	ldr	r3, [pc, #16]	; (80002bc <__do_global_dtors_aux+0x1c>)
 80002aa:	b113      	cbz	r3, 80002b2 <__do_global_dtors_aux+0x12>
 80002ac:	4804      	ldr	r0, [pc, #16]	; (80002c0 <__do_global_dtors_aux+0x20>)
 80002ae:	f3af 8000 	nop.w
 80002b2:	2301      	movs	r3, #1
 80002b4:	7023      	strb	r3, [r4, #0]
 80002b6:	bd10      	pop	{r4, pc}
 80002b8:	200001e8 	.word	0x200001e8
 80002bc:	00000000 	.word	0x00000000
 80002c0:	08009240 	.word	0x08009240

080002c4 <frame_dummy>:
 80002c4:	b508      	push	{r3, lr}
 80002c6:	4b03      	ldr	r3, [pc, #12]	; (80002d4 <frame_dummy+0x10>)
 80002c8:	b11b      	cbz	r3, 80002d2 <frame_dummy+0xe>
 80002ca:	4903      	ldr	r1, [pc, #12]	; (80002d8 <frame_dummy+0x14>)
 80002cc:	4803      	ldr	r0, [pc, #12]	; (80002dc <frame_dummy+0x18>)
 80002ce:	f3af 8000 	nop.w
 80002d2:	bd08      	pop	{r3, pc}
 80002d4:	00000000 	.word	0x00000000
 80002d8:	200001ec 	.word	0x200001ec
 80002dc:	08009240 	.word	0x08009240

080002e0 <memchr>:
 80002e0:	f001 01ff 	and.w	r1, r1, #255	; 0xff
 80002e4:	2a10      	cmp	r2, #16
 80002e6:	db2b      	blt.n	8000340 <memchr+0x60>
 80002e8:	f010 0f07 	tst.w	r0, #7
 80002ec:	d008      	beq.n	8000300 <memchr+0x20>
 80002ee:	f810 3b01 	ldrb.w	r3, [r0], #1
 80002f2:	3a01      	subs	r2, #1
 80002f4:	428b      	cmp	r3, r1
 80002f6:	d02d      	beq.n	8000354 <memchr+0x74>
 80002f8:	f010 0f07 	tst.w	r0, #7
 80002fc:	b342      	cbz	r2, 8000350 <memchr+0x70>
 80002fe:	d1f6      	bne.n	80002ee <memchr+0xe>
 8000300:	b4f0      	push	{r4, r5, r6, r7}
 8000302:	ea41 2101 	orr.w	r1, r1, r1, lsl #8
 8000306:	ea41 4101 	orr.w	r1, r1, r1, lsl #16
 800030a:	f022 0407 	bic.w	r4, r2, #7
 800030e:	f07f 0700 	mvns.w	r7, #0
 8000312:	2300      	movs	r3, #0
 8000314:	e8f0 5602 	ldrd	r5, r6, [r0], #8
 8000318:	3c08      	subs	r4, #8
 800031a:	ea85 0501 	eor.w	r5, r5, r1
 800031e:	ea86 0601 	eor.w	r6, r6, r1
 8000322:	fa85 f547 	uadd8	r5, r5, r7
 8000326:	faa3 f587 	sel	r5, r3, r7
 800032a:	fa86 f647 	uadd8	r6, r6, r7
 800032e:	faa5 f687 	sel	r6, r5, r7
 8000332:	b98e      	cbnz	r6, 8000358 <memchr+0x78>
 8000334:	d1ee      	bne.n	8000314 <memchr+0x34>
 8000336:	bcf0      	pop	{r4, r5, r6, r7}
 8000338:	f001 01ff 	and.w	r1, r1, #255	; 0xff
 800033c:	f002 0207 	and.w	r2, r2, #7
 8000340:	b132      	cbz	r2, 8000350 <memchr+0x70>
 8000342:	f810 3b01 	ldrb.w	r3, [r0], #1
 8000346:	3a01      	subs	r2, #1
 8000348:	ea83 0301 	eor.w	r3, r3, r1
 800034c:	b113      	cbz	r3, 8000354 <memchr+0x74>
 800034e:	d1f8      	bne.n	8000342 <memchr+0x62>
 8000350:	2000      	movs	r0, #0
 8000352:	4770      	bx	lr
 8000354:	3801      	subs	r0, #1
 8000356:	4770      	bx	lr
 8000358:	2d00      	cmp	r5, #0
 800035a:	bf06      	itte	eq
 800035c:	4635      	moveq	r5, r6
 800035e:	3803      	subeq	r0, #3
 8000360:	3807      	subne	r0, #7
 8000362:	f015 0f01 	tst.w	r5, #1
 8000366:	d107      	bne.n	8000378 <memchr+0x98>
 8000368:	3001      	adds	r0, #1
 800036a:	f415 7f80 	tst.w	r5, #256	; 0x100
 800036e:	bf02      	ittt	eq
 8000370:	3001      	addeq	r0, #1
 8000372:	f415 3fc0 	tsteq.w	r5, #98304	; 0x18000
 8000376:	3001      	addeq	r0, #1
 8000378:	bcf0      	pop	{r4, r5, r6, r7}
 800037a:	3801      	subs	r0, #1
 800037c:	4770      	bx	lr
 800037e:	bf00      	nop

08000380 <__aeabi_uldivmod>:
 8000380:	b953      	cbnz	r3, 8000398 <__aeabi_uldivmod+0x18>
 8000382:	b94a      	cbnz	r2, 8000398 <__aeabi_uldivmod+0x18>
 8000384:	2900      	cmp	r1, #0
 8000386:	bf08      	it	eq
 8000388:	2800      	cmpeq	r0, #0
 800038a:	bf1c      	itt	ne
 800038c:	f04f 31ff 	movne.w	r1, #4294967295
 8000390:	f04f 30ff 	movne.w	r0, #4294967295
 8000394:	f000 b96e 	b.w	8000674 <__aeabi_idiv0>
 8000398:	f1ad 0c08 	sub.w	ip, sp, #8
 800039c:	e96d ce04 	strd	ip, lr, [sp, #-16]!
 80003a0:	f000 f806 	bl	80003b0 <__udivmoddi4>
 80003a4:	f8dd e004 	ldr.w	lr, [sp, #4]
 80003a8:	e9dd 2302 	ldrd	r2, r3, [sp, #8]
 80003ac:	b004      	add	sp, #16
 80003ae:	4770      	bx	lr

080003b0 <__udivmoddi4>:
 80003b0:	e92d 47f0 	stmdb	sp!, {r4, r5, r6, r7, r8, r9, sl, lr}
 80003b4:	9d08      	ldr	r5, [sp, #32]
 80003b6:	4604      	mov	r4, r0
 80003b8:	468c      	mov	ip, r1
 80003ba:	2b00      	cmp	r3, #0
 80003bc:	f040 8083 	bne.w	80004c6 <__udivmoddi4+0x116>
 80003c0:	428a      	cmp	r2, r1
 80003c2:	4617      	mov	r7, r2
 80003c4:	d947      	bls.n	8000456 <__udivmoddi4+0xa6>
 80003c6:	fab2 f282 	clz	r2, r2
 80003ca:	b142      	cbz	r2, 80003de <__udivmoddi4+0x2e>
 80003cc:	f1c2 0020 	rsb	r0, r2, #32
 80003d0:	fa24 f000 	lsr.w	r0, r4, r0
 80003d4:	4091      	lsls	r1, r2
 80003d6:	4097      	lsls	r7, r2
 80003d8:	ea40 0c01 	orr.w	ip, r0, r1
 80003dc:	4094      	lsls	r4, r2
 80003de:	ea4f 4817 	mov.w	r8, r7, lsr #16
 80003e2:	0c23      	lsrs	r3, r4, #16
 80003e4:	fbbc f6f8 	udiv	r6, ip, r8
 80003e8:	fa1f fe87 	uxth.w	lr, r7
 80003ec:	fb08 c116 	mls	r1, r8, r6, ip
 80003f0:	ea43 4301 	orr.w	r3, r3, r1, lsl #16
 80003f4:	fb06 f10e 	mul.w	r1, r6, lr
 80003f8:	4299      	cmp	r1, r3
 80003fa:	d909      	bls.n	8000410 <__udivmoddi4+0x60>
 80003fc:	18fb      	adds	r3, r7, r3
 80003fe:	f106 30ff 	add.w	r0, r6, #4294967295
 8000402:	f080 8119 	bcs.w	8000638 <__udivmoddi4+0x288>
 8000406:	4299      	cmp	r1, r3
 8000408:	f240 8116 	bls.w	8000638 <__udivmoddi4+0x288>
 800040c:	3e02      	subs	r6, #2
 800040e:	443b      	add	r3, r7
 8000410:	1a5b      	subs	r3, r3, r1
 8000412:	b2a4      	uxth	r4, r4
 8000414:	fbb3 f0f8 	udiv	r0, r3, r8
 8000418:	fb08 3310 	mls	r3, r8, r0, r3
 800041c:	ea44 4403 	orr.w	r4, r4, r3, lsl #16
 8000420:	fb00 fe0e 	mul.w	lr, r0, lr
 8000424:	45a6      	cmp	lr, r4
 8000426:	d909      	bls.n	800043c <__udivmoddi4+0x8c>
 8000428:	193c      	adds	r4, r7, r4
 800042a:	f100 33ff 	add.w	r3, r0, #4294967295
 800042e:	f080 8105 	bcs.w	800063c <__udivmoddi4+0x28c>
 8000432:	45a6      	cmp	lr, r4
 8000434:	f240 8102 	bls.w	800063c <__udivmoddi4+0x28c>
 8000438:	3802      	subs	r0, #2
 800043a:	443c      	add	r4, r7
 800043c:	ea40 4006 	orr.w	r0, r0, r6, lsl #16
 8000440:	eba4 040e 	sub.w	r4, r4, lr
 8000444:	2600      	movs	r6, #0
 8000446:	b11d      	cbz	r5, 8000450 <__udivmoddi4+0xa0>
 8000448:	40d4      	lsrs	r4, r2
 800044a:	2300      	movs	r3, #0
 800044c:	e9c5 4300 	strd	r4, r3, [r5]
 8000450:	4631      	mov	r1, r6
 8000452:	e8bd 87f0 	ldmia.w	sp!, {r4, r5, r6, r7, r8, r9, sl, pc}
 8000456:	b902      	cbnz	r2, 800045a <__udivmoddi4+0xaa>
 8000458:	deff      	udf	#255	; 0xff
 800045a:	fab2 f282 	clz	r2, r2
 800045e:	2a00      	cmp	r2, #0
 8000460:	d150      	bne.n	8000504 <__udivmoddi4+0x154>
 8000462:	1bcb      	subs	r3, r1, r7
 8000464:	ea4f 4e17 	mov.w	lr, r7, lsr #16
 8000468:	fa1f f887 	uxth.w	r8, r7
 800046c:	2601      	movs	r6, #1
 800046e:	fbb3 fcfe 	udiv	ip, r3, lr
 8000472:	0c21      	lsrs	r1, r4, #16
 8000474:	fb0e 331c 	mls	r3, lr, ip, r3
 8000478:	ea41 4103 	orr.w	r1, r1, r3, lsl #16
 800047c:	fb08 f30c 	mul.w	r3, r8, ip
 8000480:	428b      	cmp	r3, r1
 8000482:	d907      	bls.n	8000494 <__udivmoddi4+0xe4>
 8000484:	1879      	adds	r1, r7, r1
 8000486:	f10c 30ff 	add.w	r0, ip, #4294967295
 800048a:	d202      	bcs.n	8000492 <__udivmoddi4+0xe2>
 800048c:	428b      	cmp	r3, r1
 800048e:	f200 80e9 	bhi.w	8000664 <__udivmoddi4+0x2b4>
 8000492:	4684      	mov	ip, r0
 8000494:	1ac9      	subs	r1, r1, r3
 8000496:	b2a3      	uxth	r3, r4
 8000498:	fbb1 f0fe 	udiv	r0, r1, lr
 800049c:	fb0e 1110 	mls	r1, lr, r0, r1
 80004a0:	ea43 4401 	orr.w	r4, r3, r1, lsl #16
 80004a4:	fb08 f800 	mul.w	r8, r8, r0
 80004a8:	45a0      	cmp	r8, r4
 80004aa:	d907      	bls.n	80004bc <__udivmoddi4+0x10c>
 80004ac:	193c      	adds	r4, r7, r4
 80004ae:	f100 33ff 	add.w	r3, r0, #4294967295
 80004b2:	d202      	bcs.n	80004ba <__udivmoddi4+0x10a>
 80004b4:	45a0      	cmp	r8, r4
 80004b6:	f200 80d9 	bhi.w	800066c <__udivmoddi4+0x2bc>
 80004ba:	4618      	mov	r0, r3
 80004bc:	eba4 0408 	sub.w	r4, r4, r8
 80004c0:	ea40 400c 	orr.w	r0, r0, ip, lsl #16
 80004c4:	e7bf      	b.n	8000446 <__udivmoddi4+0x96>
 80004c6:	428b      	cmp	r3, r1
 80004c8:	d909      	bls.n	80004de <__udivmoddi4+0x12e>
 80004ca:	2d00      	cmp	r5, #0
 80004cc:	f000 80b1 	beq.w	8000632 <__udivmoddi4+0x282>
 80004d0:	2600      	movs	r6, #0
 80004d2:	e9c5 0100 	strd	r0, r1, [r5]
 80004d6:	4630      	mov	r0, r6
 80004d8:	4631      	mov	r1, r6
 80004da:	e8bd 87f0 	ldmia.w	sp!, {r4, r5, r6, r7, r8, r9, sl, pc}
 80004de:	fab3 f683 	clz	r6, r3
 80004e2:	2e00      	cmp	r6, #0
 80004e4:	d14a      	bne.n	800057c <__udivmoddi4+0x1cc>
 80004e6:	428b      	cmp	r3, r1
 80004e8:	d302      	bcc.n	80004f0 <__udivmoddi4+0x140>
 80004ea:	4282      	cmp	r2, r0
 80004ec:	f200 80b8 	bhi.w	8000660 <__udivmoddi4+0x2b0>
 80004f0:	1a84      	subs	r4, r0, r2
 80004f2:	eb61 0103 	sbc.w	r1, r1, r3
 80004f6:	2001      	movs	r0, #1
 80004f8:	468c      	mov	ip, r1
 80004fa:	2d00      	cmp	r5, #0
 80004fc:	d0a8      	beq.n	8000450 <__udivmoddi4+0xa0>
 80004fe:	e9c5 4c00 	strd	r4, ip, [r5]
 8000502:	e7a5      	b.n	8000450 <__udivmoddi4+0xa0>
 8000504:	f1c2 0320 	rsb	r3, r2, #32
 8000508:	fa20 f603 	lsr.w	r6, r0, r3
 800050c:	4097      	lsls	r7, r2
 800050e:	fa01 f002 	lsl.w	r0, r1, r2
 8000512:	ea4f 4e17 	mov.w	lr, r7, lsr #16
 8000516:	40d9      	lsrs	r1, r3
 8000518:	4330      	orrs	r0, r6
 800051a:	0c03      	lsrs	r3, r0, #16
 800051c:	fbb1 f6fe 	udiv	r6, r1, lr
 8000520:	fa1f f887 	uxth.w	r8, r7
 8000524:	fb0e 1116 	mls	r1, lr, r6, r1
 8000528:	ea43 4301 	orr.w	r3, r3, r1, lsl #16
 800052c:	fb06 f108 	mul.w	r1, r6, r8
 8000530:	4299      	cmp	r1, r3
 8000532:	fa04 f402 	lsl.w	r4, r4, r2
 8000536:	d909      	bls.n	800054c <__udivmoddi4+0x19c>
 8000538:	18fb      	adds	r3, r7, r3
 800053a:	f106 3cff 	add.w	ip, r6, #4294967295
 800053e:	f080 808d 	bcs.w	800065c <__udivmoddi4+0x2ac>
 8000542:	4299      	cmp	r1, r3
 8000544:	f240 808a 	bls.w	800065c <__udivmoddi4+0x2ac>
 8000548:	3e02      	subs	r6, #2
 800054a:	443b      	add	r3, r7
 800054c:	1a5b      	subs	r3, r3, r1
 800054e:	b281      	uxth	r1, r0
 8000550:	fbb3 f0fe 	udiv	r0, r3, lr
 8000554:	fb0e 3310 	mls	r3, lr, r0, r3
 8000558:	ea41 4103 	orr.w	r1, r1, r3, lsl #16
 800055c:	fb00 f308 	mul.w	r3, r0, r8
 8000560:	428b      	cmp	r3, r1
 8000562:	d907      	bls.n	8000574 <__udivmoddi4+0x1c4>
 8000564:	1879      	adds	r1, r7, r1
 8000566:	f100 3cff 	add.w	ip, r0, #4294967295
 800056a:	d273      	bcs.n	8000654 <__udivmoddi4+0x2a4>
 800056c:	428b      	cmp	r3, r1
 800056e:	d971      	bls.n	8000654 <__udivmoddi4+0x2a4>
 8000570:	3802      	subs	r0, #2
 8000572:	4439      	add	r1, r7
 8000574:	1acb      	subs	r3, r1, r3
 8000576:	ea40 4606 	orr.w	r6, r0, r6, lsl #16
 800057a:	e778      	b.n	800046e <__udivmoddi4+0xbe>
 800057c:	f1c6 0c20 	rsb	ip, r6, #32
 8000580:	fa03 f406 	lsl.w	r4, r3, r6
 8000584:	fa22 f30c 	lsr.w	r3, r2, ip
 8000588:	431c      	orrs	r4, r3
 800058a:	fa20 f70c 	lsr.w	r7, r0, ip
 800058e:	fa01 f306 	lsl.w	r3, r1, r6
 8000592:	ea4f 4e14 	mov.w	lr, r4, lsr #16
 8000596:	fa21 f10c 	lsr.w	r1, r1, ip
 800059a:	431f      	orrs	r7, r3
 800059c:	0c3b      	lsrs	r3, r7, #16
 800059e:	fbb1 f9fe 	udiv	r9, r1, lr
 80005a2:	fa1f f884 	uxth.w	r8, r4
 80005a6:	fb0e 1119 	mls	r1, lr, r9, r1
 80005aa:	ea43 4101 	orr.w	r1, r3, r1, lsl #16
 80005ae:	fb09 fa08 	mul.w	sl, r9, r8
 80005b2:	458a      	cmp	sl, r1
 80005b4:	fa02 f206 	lsl.w	r2, r2, r6
 80005b8:	fa00 f306 	lsl.w	r3, r0, r6
 80005bc:	d908      	bls.n	80005d0 <__udivmoddi4+0x220>
 80005be:	1861      	adds	r1, r4, r1
 80005c0:	f109 30ff 	add.w	r0, r9, #4294967295
 80005c4:	d248      	bcs.n	8000658 <__udivmoddi4+0x2a8>
 80005c6:	458a      	cmp	sl, r1
 80005c8:	d946      	bls.n	8000658 <__udivmoddi4+0x2a8>
 80005ca:	f1a9 0902 	sub.w	r9, r9, #2
 80005ce:	4421      	add	r1, r4
 80005d0:	eba1 010a 	sub.w	r1, r1, sl
 80005d4:	b2bf      	uxth	r7, r7
 80005d6:	fbb1 f0fe 	udiv	r0, r1, lr
 80005da:	fb0e 1110 	mls	r1, lr, r0, r1
 80005de:	ea47 4701 	orr.w	r7, r7, r1, lsl #16
 80005e2:	fb00 f808 	mul.w	r8, r0, r8
 80005e6:	45b8      	cmp	r8, r7
 80005e8:	d907      	bls.n	80005fa <__udivmoddi4+0x24a>
 80005ea:	19e7      	adds	r7, r4, r7
 80005ec:	f100 31ff 	add.w	r1, r0, #4294967295
 80005f0:	d22e      	bcs.n	8000650 <__udivmoddi4+0x2a0>
 80005f2:	45b8      	cmp	r8, r7
 80005f4:	d92c      	bls.n	8000650 <__udivmoddi4+0x2a0>
 80005f6:	3802      	subs	r0, #2
 80005f8:	4427      	add	r7, r4
 80005fa:	ea40 4009 	orr.w	r0, r0, r9, lsl #16
 80005fe:	eba7 0708 	sub.w	r7, r7, r8
 8000602:	fba0 8902 	umull	r8, r9, r0, r2
 8000606:	454f      	cmp	r7, r9
 8000608:	46c6      	mov	lr, r8
 800060a:	4649      	mov	r1, r9
 800060c:	d31a      	bcc.n	8000644 <__udivmoddi4+0x294>
 800060e:	d017      	beq.n	8000640 <__udivmoddi4+0x290>
 8000610:	b15d      	cbz	r5, 800062a <__udivmoddi4+0x27a>
 8000612:	ebb3 020e 	subs.w	r2, r3, lr
 8000616:	eb67 0701 	sbc.w	r7, r7, r1
 800061a:	fa07 fc0c 	lsl.w	ip, r7, ip
 800061e:	40f2      	lsrs	r2, r6
 8000620:	ea4c 0202 	orr.w	r2, ip, r2
 8000624:	40f7      	lsrs	r7, r6
 8000626:	e9c5 2700 	strd	r2, r7, [r5]
 800062a:	2600      	movs	r6, #0
 800062c:	4631      	mov	r1, r6
 800062e:	e8bd 87f0 	ldmia.w	sp!, {r4, r5, r6, r7, r8, r9, sl, pc}
 8000632:	462e      	mov	r6, r5
 8000634:	4628      	mov	r0, r5
 8000636:	e70b      	b.n	8000450 <__udivmoddi4+0xa0>
 8000638:	4606      	mov	r6, r0
 800063a:	e6e9      	b.n	8000410 <__udivmoddi4+0x60>
 800063c:	4618      	mov	r0, r3
 800063e:	e6fd      	b.n	800043c <__udivmoddi4+0x8c>
 8000640:	4543      	cmp	r3, r8
 8000642:	d2e5      	bcs.n	8000610 <__udivmoddi4+0x260>
 8000644:	ebb8 0e02 	subs.w	lr, r8, r2
 8000648:	eb69 0104 	sbc.w	r1, r9, r4
 800064c:	3801      	subs	r0, #1
 800064e:	e7df      	b.n	8000610 <__udivmoddi4+0x260>
 8000650:	4608      	mov	r0, r1
 8000652:	e7d2      	b.n	80005fa <__udivmoddi4+0x24a>
 8000654:	4660      	mov	r0, ip
 8000656:	e78d      	b.n	8000574 <__udivmoddi4+0x1c4>
 8000658:	4681      	mov	r9, r0
 800065a:	e7b9      	b.n	80005d0 <__udivmoddi4+0x220>
 800065c:	4666      	mov	r6, ip
 800065e:	e775      	b.n	800054c <__udivmoddi4+0x19c>
 8000660:	4630      	mov	r0, r6
 8000662:	e74a      	b.n	80004fa <__udivmoddi4+0x14a>
 8000664:	f1ac 0c02 	sub.w	ip, ip, #2
 8000668:	4439      	add	r1, r7
 800066a:	e713      	b.n	8000494 <__udivmoddi4+0xe4>
 800066c:	3802      	subs	r0, #2
 800066e:	443c      	add	r4, r7
 8000670:	e724      	b.n	80004bc <__udivmoddi4+0x10c>
 8000672:	bf00      	nop

08000674 <__aeabi_idiv0>:
 8000674:	4770      	bx	lr
 8000676:	bf00      	nop

08000678 <HAL_Init>:
  *         need to ensure that the SysTick time base is always set to 1 millisecond
  *         to have correct HAL operation.
  * @retval HAL status
  */
HAL_StatusTypeDef HAL_Init(void)
{
 8000678:	b510      	push	{r4, lr}
   __HAL_ART_CONFIG_BASE_ADDRESS(0x08100000UL);  /* Configure the Cortex-M4 ART Base address to the Flash Bank 2 : */
   __HAL_ART_ENABLE();                           /* Enable the Cortex-M4 ART */
#endif /* DUAL_CORE &&  CORE_CM4 */

  /* Set Interrupt Group Priority */
  HAL_NVIC_SetPriorityGrouping(NVIC_PRIORITYGROUP_4);
 800067a:	2003      	movs	r0, #3
 800067c:	f000 f856 	bl	800072c <HAL_NVIC_SetPriorityGrouping>

  /* Update the SystemCoreClock global variable */
#if defined(RCC_D1CFGR_D1CPRE)
  common_system_clock = HAL_RCC_GetSysClockFreq() >> ((D1CorePrescTable[(RCC->D1CFGR & RCC_D1CFGR_D1CPRE)>> RCC_D1CFGR_D1CPRE_Pos]) & 0x1FU);
 8000680:	f002 f99a 	bl	80029b8 <HAL_RCC_GetSysClockFreq>
 8000684:	490f      	ldr	r1, [pc, #60]	; (80006c4 <HAL_Init+0x4c>)
 8000686:	698b      	ldr	r3, [r1, #24]
 8000688:	f3c3 2303 	ubfx	r3, r3, #8, #4
 800068c:	4a0e      	ldr	r2, [pc, #56]	; (80006c8 <HAL_Init+0x50>)
 800068e:	5cd3      	ldrb	r3, [r2, r3]
 8000690:	f003 031f 	and.w	r3, r3, #31
 8000694:	40d8      	lsrs	r0, r3
  common_system_clock = HAL_RCC_GetSysClockFreq() >> ((D1CorePrescTable[(RCC->CDCFGR1 & RCC_CDCFGR1_CDCPRE)>> RCC_CDCFGR1_CDCPRE_Pos]) & 0x1FU);
#endif

  /* Update the SystemD2Clock global variable */
#if defined(RCC_D1CFGR_HPRE)
  SystemD2Clock = (common_system_clock >> ((D1CorePrescTable[(RCC->D1CFGR & RCC_D1CFGR_HPRE)>> RCC_D1CFGR_HPRE_Pos]) & 0x1FU));
 8000696:	698b      	ldr	r3, [r1, #24]
 8000698:	f003 030f 	and.w	r3, r3, #15
 800069c:	5cd3      	ldrb	r3, [r2, r3]
 800069e:	f003 031f 	and.w	r3, r3, #31
 80006a2:	fa20 f303 	lsr.w	r3, r0, r3
 80006a6:	4a09      	ldr	r2, [pc, #36]	; (80006cc <HAL_Init+0x54>)
 80006a8:	6013      	str	r3, [r2, #0]
#endif

#if defined(DUAL_CORE) && defined(CORE_CM4)
  SystemCoreClock = SystemD2Clock;
#else
  SystemCoreClock = common_system_clock;
 80006aa:	4b09      	ldr	r3, [pc, #36]	; (80006d0 <HAL_Init+0x58>)
 80006ac:	6018      	str	r0, [r3, #0]
#endif /* DUAL_CORE && CORE_CM4 */

  /* Use systick as time base source and configure 1ms tick (default clock after Reset is HSI) */
  if(HAL_InitTick(TICK_INT_PRIORITY) != HAL_OK)
 80006ae:	2000      	movs	r0, #0
 80006b0:	f007 fa54 	bl	8007b5c <HAL_InitTick>
 80006b4:	b110      	cbz	r0, 80006bc <HAL_Init+0x44>
  {
    return HAL_ERROR;
 80006b6:	2401      	movs	r4, #1
  /* Init the low level hardware */
  HAL_MspInit();

  /* Return function status */
  return HAL_OK;
}
 80006b8:	4620      	mov	r0, r4
 80006ba:	bd10      	pop	{r4, pc}
 80006bc:	4604      	mov	r4, r0
  HAL_MspInit();
 80006be:	f007 f8cf 	bl	8007860 <HAL_MspInit>
  return HAL_OK;
 80006c2:	e7f9      	b.n	80006b8 <HAL_Init+0x40>
 80006c4:	58024400 	.word	0x58024400
 80006c8:	080092d4 	.word	0x080092d4
 80006cc:	2000011c 	.word	0x2000011c
 80006d0:	20000118 	.word	0x20000118

080006d4 <HAL_IncTick>:
  *      implementations in user file.
  * @retval None
  */
__weak void HAL_IncTick(void)
{
  uwTick += (uint32_t)uwTickFreq;
 80006d4:	4b03      	ldr	r3, [pc, #12]	; (80006e4 <HAL_IncTick+0x10>)
 80006d6:	781b      	ldrb	r3, [r3, #0]
 80006d8:	4a03      	ldr	r2, [pc, #12]	; (80006e8 <HAL_IncTick+0x14>)
 80006da:	6811      	ldr	r1, [r2, #0]
 80006dc:	440b      	add	r3, r1
 80006de:	6013      	str	r3, [r2, #0]
}
 80006e0:	4770      	bx	lr
 80006e2:	bf00      	nop
 80006e4:	20000000 	.word	0x20000000
 80006e8:	2000060c 	.word	0x2000060c

080006ec <HAL_GetTick>:
  *       implementations in user file.
  * @retval tick value
  */
__weak uint32_t HAL_GetTick(void)
{
  return uwTick;
 80006ec:	4b01      	ldr	r3, [pc, #4]	; (80006f4 <HAL_GetTick+0x8>)
 80006ee:	6818      	ldr	r0, [r3, #0]
}
 80006f0:	4770      	bx	lr
 80006f2:	bf00      	nop
 80006f4:	2000060c 	.word	0x2000060c

080006f8 <HAL_Delay>:
  *       implementations in user file.
  * @param Delay  specifies the delay time length, in milliseconds.
  * @retval None
  */
__weak void HAL_Delay(uint32_t Delay)
{
 80006f8:	b538      	push	{r3, r4, r5, lr}
 80006fa:	4604      	mov	r4, r0
  uint32_t tickstart = HAL_GetTick();
 80006fc:	f7ff fff6 	bl	80006ec <HAL_GetTick>
 8000700:	4605      	mov	r5, r0
  uint32_t wait = Delay;

  /* Add a freq to guarantee minimum wait */
  if (wait < HAL_MAX_DELAY)
 8000702:	f1b4 3fff 	cmp.w	r4, #4294967295
 8000706:	d002      	beq.n	800070e <HAL_Delay+0x16>
  {
    wait += (uint32_t)(uwTickFreq);
 8000708:	4b04      	ldr	r3, [pc, #16]	; (800071c <HAL_Delay+0x24>)
 800070a:	781b      	ldrb	r3, [r3, #0]
 800070c:	441c      	add	r4, r3
  }

  while ((HAL_GetTick() - tickstart) < wait)
 800070e:	f7ff ffed 	bl	80006ec <HAL_GetTick>
 8000712:	1b40      	subs	r0, r0, r5
 8000714:	42a0      	cmp	r0, r4
 8000716:	d3fa      	bcc.n	800070e <HAL_Delay+0x16>
  {
  }
}
 8000718:	bd38      	pop	{r3, r4, r5, pc}
 800071a:	bf00      	nop
 800071c:	20000000 	.word	0x20000000

08000720 <HAL_GetREVID>:
  * @brief  Returns the device revision identifier.
  * @retval Device revision identifier
  */
uint32_t HAL_GetREVID(void)
{
   return((DBGMCU->IDCODE) >> 16);
 8000720:	4b01      	ldr	r3, [pc, #4]	; (8000728 <HAL_GetREVID+0x8>)
 8000722:	6818      	ldr	r0, [r3, #0]
}
 8000724:	0c00      	lsrs	r0, r0, #16
 8000726:	4770      	bx	lr
 8000728:	5c001000 	.word	0x5c001000

0800072c <HAL_NVIC_SetPriorityGrouping>:
__STATIC_INLINE void __NVIC_SetPriorityGrouping(uint32_t PriorityGroup)
{
  uint32_t reg_value;
  uint32_t PriorityGroupTmp = (PriorityGroup & (uint32_t)0x07UL);             /* only values 0..7 are used          */

  reg_value  =  SCB->AIRCR;                                                   /* read old register configuration    */
 800072c:	4906      	ldr	r1, [pc, #24]	; (8000748 <HAL_NVIC_SetPriorityGrouping+0x1c>)
 800072e:	68cb      	ldr	r3, [r1, #12]
  reg_value &= ~((uint32_t)(SCB_AIRCR_VECTKEY_Msk | SCB_AIRCR_PRIGROUP_Msk)); /* clear bits to change               */
 8000730:	f423 63e0 	bic.w	r3, r3, #1792	; 0x700
 8000734:	041b      	lsls	r3, r3, #16
 8000736:	0c1b      	lsrs	r3, r3, #16
  reg_value  =  (reg_value                                   |
                ((uint32_t)0x5FAUL << SCB_AIRCR_VECTKEY_Pos) |
                (PriorityGroupTmp << SCB_AIRCR_PRIGROUP_Pos)  );              /* Insert write key and priority group */
 8000738:	0200      	lsls	r0, r0, #8
 800073a:	f400 60e0 	and.w	r0, r0, #1792	; 0x700
                ((uint32_t)0x5FAUL << SCB_AIRCR_VECTKEY_Pos) |
 800073e:	4303      	orrs	r3, r0
  reg_value  =  (reg_value                                   |
 8000740:	4a02      	ldr	r2, [pc, #8]	; (800074c <HAL_NVIC_SetPriorityGrouping+0x20>)
 8000742:	431a      	orrs	r2, r3
  SCB->AIRCR =  reg_value;
 8000744:	60ca      	str	r2, [r1, #12]
  /* Check the parameters */
  assert_param(IS_NVIC_PRIORITY_GROUP(PriorityGroup));

  /* Set the PRIGROUP[10:8] bits according to the PriorityGroup parameter value */
  NVIC_SetPriorityGrouping(PriorityGroup);
}
 8000746:	4770      	bx	lr
 8000748:	e000ed00 	.word	0xe000ed00
 800074c:	05fa0000 	.word	0x05fa0000

08000750 <HAL_NVIC_SetPriority>:
  *         This parameter can be a value between 0 and 15
  *         A lower priority value indicates a higher priority.
  * @retval None
  */
void HAL_NVIC_SetPriority(IRQn_Type IRQn, uint32_t PreemptPriority, uint32_t SubPriority)
{
 8000750:	b430      	push	{r4, r5}
  \details Reads the priority grouping field from the NVIC Interrupt Controller.
  \return                Priority grouping field (SCB->AIRCR [10:8] PRIGROUP field).
 */
__STATIC_INLINE uint32_t __NVIC_GetPriorityGrouping(void)
{
  return ((uint32_t)((SCB->AIRCR & SCB_AIRCR_PRIGROUP_Msk) >> SCB_AIRCR_PRIGROUP_Pos));
 8000752:	4b15      	ldr	r3, [pc, #84]	; (80007a8 <HAL_NVIC_SetPriority+0x58>)
 8000754:	68db      	ldr	r3, [r3, #12]
 8000756:	f3c3 2302 	ubfx	r3, r3, #8, #3
{
  uint32_t PriorityGroupTmp = (PriorityGroup & (uint32_t)0x07UL);   /* only values 0..7 are used          */
  uint32_t PreemptPriorityBits;
  uint32_t SubPriorityBits;

  PreemptPriorityBits = ((7UL - PriorityGroupTmp) > (uint32_t)(__NVIC_PRIO_BITS)) ? (uint32_t)(__NVIC_PRIO_BITS) : (uint32_t)(7UL - PriorityGroupTmp);
 800075a:	f1c3 0407 	rsb	r4, r3, #7
 800075e:	2c04      	cmp	r4, #4
 8000760:	bf28      	it	cs
 8000762:	2404      	movcs	r4, #4
  SubPriorityBits     = ((PriorityGroupTmp + (uint32_t)(__NVIC_PRIO_BITS)) < (uint32_t)7UL) ? (uint32_t)0UL : (uint32_t)((PriorityGroupTmp - 7UL) + (uint32_t)(__NVIC_PRIO_BITS));
 8000764:	1d1d      	adds	r5, r3, #4
 8000766:	2d06      	cmp	r5, #6
 8000768:	d914      	bls.n	8000794 <HAL_NVIC_SetPriority+0x44>
 800076a:	3b03      	subs	r3, #3

  return (
           ((PreemptPriority & (uint32_t)((1UL << (PreemptPriorityBits)) - 1UL)) << SubPriorityBits) |
 800076c:	f04f 35ff 	mov.w	r5, #4294967295
 8000770:	fa05 f404 	lsl.w	r4, r5, r4
 8000774:	ea21 0104 	bic.w	r1, r1, r4
 8000778:	4099      	lsls	r1, r3
           ((SubPriority     & (uint32_t)((1UL << (SubPriorityBits    )) - 1UL)))
 800077a:	fa05 f303 	lsl.w	r3, r5, r3
 800077e:	ea22 0303 	bic.w	r3, r2, r3
           ((PreemptPriority & (uint32_t)((1UL << (PreemptPriorityBits)) - 1UL)) << SubPriorityBits) |
 8000782:	4319      	orrs	r1, r3
  if ((int32_t)(IRQn) >= 0)
 8000784:	2800      	cmp	r0, #0
 8000786:	db07      	blt.n	8000798 <HAL_NVIC_SetPriority+0x48>
    NVIC->IP[((uint32_t)IRQn)]                = (uint8_t)((priority << (8U - __NVIC_PRIO_BITS)) & (uint32_t)0xFFUL);
 8000788:	0109      	lsls	r1, r1, #4
 800078a:	b2c9      	uxtb	r1, r1
 800078c:	4b07      	ldr	r3, [pc, #28]	; (80007ac <HAL_NVIC_SetPriority+0x5c>)
 800078e:	5419      	strb	r1, [r3, r0]
  assert_param(IS_NVIC_PREEMPTION_PRIORITY(PreemptPriority));

  prioritygroup = NVIC_GetPriorityGrouping();

  NVIC_SetPriority(IRQn, NVIC_EncodePriority(prioritygroup, PreemptPriority, SubPriority));
}
 8000790:	bc30      	pop	{r4, r5}
 8000792:	4770      	bx	lr
  SubPriorityBits     = ((PriorityGroupTmp + (uint32_t)(__NVIC_PRIO_BITS)) < (uint32_t)7UL) ? (uint32_t)0UL : (uint32_t)((PriorityGroupTmp - 7UL) + (uint32_t)(__NVIC_PRIO_BITS));
 8000794:	2300      	movs	r3, #0
 8000796:	e7e9      	b.n	800076c <HAL_NVIC_SetPriority+0x1c>
    SCB->SHPR[(((uint32_t)IRQn) & 0xFUL)-4UL] = (uint8_t)((priority << (8U - __NVIC_PRIO_BITS)) & (uint32_t)0xFFUL);
 8000798:	f000 000f 	and.w	r0, r0, #15
 800079c:	0109      	lsls	r1, r1, #4
 800079e:	b2c9      	uxtb	r1, r1
 80007a0:	4b03      	ldr	r3, [pc, #12]	; (80007b0 <HAL_NVIC_SetPriority+0x60>)
 80007a2:	5419      	strb	r1, [r3, r0]
 80007a4:	e7f4      	b.n	8000790 <HAL_NVIC_SetPriority+0x40>
 80007a6:	bf00      	nop
 80007a8:	e000ed00 	.word	0xe000ed00
 80007ac:	e000e400 	.word	0xe000e400
 80007b0:	e000ed14 	.word	0xe000ed14

080007b4 <HAL_NVIC_EnableIRQ>:
  if ((int32_t)(IRQn) >= 0)
 80007b4:	2800      	cmp	r0, #0
 80007b6:	db07      	blt.n	80007c8 <HAL_NVIC_EnableIRQ+0x14>
    NVIC->ISER[(((uint32_t)IRQn) >> 5UL)] = (uint32_t)(1UL << (((uint32_t)IRQn) & 0x1FUL));
 80007b8:	f000 021f 	and.w	r2, r0, #31
 80007bc:	0940      	lsrs	r0, r0, #5
 80007be:	2301      	movs	r3, #1
 80007c0:	4093      	lsls	r3, r2
 80007c2:	4a02      	ldr	r2, [pc, #8]	; (80007cc <HAL_NVIC_EnableIRQ+0x18>)
 80007c4:	f842 3020 	str.w	r3, [r2, r0, lsl #2]
  /* Check the parameters */
  assert_param(IS_NVIC_DEVICE_IRQ(IRQn));

  /* Enable interrupt */
  NVIC_EnableIRQ(IRQn);
}
 80007c8:	4770      	bx	lr
 80007ca:	bf00      	nop
 80007cc:	e000e100 	.word	0xe000e100

080007d0 <FDCAN_CalcultateRamBlockAddresses>:
  * @param  hfdcan pointer to an FDCAN_HandleTypeDef structure that contains
  *         the configuration information for the specified FDCAN.
  * @retval HAL status
 */
static HAL_StatusTypeDef FDCAN_CalcultateRamBlockAddresses(FDCAN_HandleTypeDef *hfdcan)
{
 80007d0:	b430      	push	{r4, r5}
  uint32_t RAMcounter;
  uint32_t StartAddress;

  StartAddress = hfdcan->Init.MessageRAMOffset;
 80007d2:	6b44      	ldr	r4, [r0, #52]	; 0x34

  /* Standard filter list start address */
  MODIFY_REG(hfdcan->Instance->SIDFC, FDCAN_SIDFC_FLSSA, (StartAddress << FDCAN_SIDFC_FLSSA_Pos));
 80007d4:	6802      	ldr	r2, [r0, #0]
 80007d6:	f8d2 1084 	ldr.w	r1, [r2, #132]	; 0x84
 80007da:	4b70      	ldr	r3, [pc, #448]	; (800099c <FDCAN_CalcultateRamBlockAddresses+0x1cc>)
 80007dc:	4019      	ands	r1, r3
 80007de:	ea41 0184 	orr.w	r1, r1, r4, lsl #2
 80007e2:	f8c2 1084 	str.w	r1, [r2, #132]	; 0x84

  /* Standard filter elements number */
  MODIFY_REG(hfdcan->Instance->SIDFC, FDCAN_SIDFC_LSS, (hfdcan->Init.StdFiltersNbr << FDCAN_SIDFC_LSS_Pos));
 80007e6:	6802      	ldr	r2, [r0, #0]
 80007e8:	f8d2 1084 	ldr.w	r1, [r2, #132]	; 0x84
 80007ec:	f421 017f 	bic.w	r1, r1, #16711680	; 0xff0000
 80007f0:	6b85      	ldr	r5, [r0, #56]	; 0x38
 80007f2:	ea41 4105 	orr.w	r1, r1, r5, lsl #16
 80007f6:	f8c2 1084 	str.w	r1, [r2, #132]	; 0x84

  /* Extended filter list start address */
  StartAddress += hfdcan->Init.StdFiltersNbr;
 80007fa:	6b82      	ldr	r2, [r0, #56]	; 0x38
 80007fc:	4422      	add	r2, r4
  MODIFY_REG(hfdcan->Instance->XIDFC, FDCAN_XIDFC_FLESA, (StartAddress << FDCAN_XIDFC_FLESA_Pos));
 80007fe:	6804      	ldr	r4, [r0, #0]
 8000800:	f8d4 1088 	ldr.w	r1, [r4, #136]	; 0x88
 8000804:	4019      	ands	r1, r3
 8000806:	ea41 0182 	orr.w	r1, r1, r2, lsl #2
 800080a:	f8c4 1088 	str.w	r1, [r4, #136]	; 0x88

  /* Extended filter elements number */
  MODIFY_REG(hfdcan->Instance->XIDFC, FDCAN_XIDFC_LSE, (hfdcan->Init.ExtFiltersNbr << FDCAN_XIDFC_LSE_Pos));
 800080e:	6804      	ldr	r4, [r0, #0]
 8000810:	f8d4 1088 	ldr.w	r1, [r4, #136]	; 0x88
 8000814:	f421 01fe 	bic.w	r1, r1, #8323072	; 0x7f0000
 8000818:	6bc5      	ldr	r5, [r0, #60]	; 0x3c
 800081a:	ea41 4105 	orr.w	r1, r1, r5, lsl #16
 800081e:	f8c4 1088 	str.w	r1, [r4, #136]	; 0x88

  /* Rx FIFO 0 start address */
  StartAddress += (hfdcan->Init.ExtFiltersNbr * 2U);
 8000822:	6bc1      	ldr	r1, [r0, #60]	; 0x3c
 8000824:	eb02 0241 	add.w	r2, r2, r1, lsl #1
  MODIFY_REG(hfdcan->Instance->RXF0C, FDCAN_RXF0C_F0SA, (StartAddress << FDCAN_RXF0C_F0SA_Pos));
 8000828:	6804      	ldr	r4, [r0, #0]
 800082a:	f8d4 10a0 	ldr.w	r1, [r4, #160]	; 0xa0
 800082e:	4019      	ands	r1, r3
 8000830:	ea41 0182 	orr.w	r1, r1, r2, lsl #2
 8000834:	f8c4 10a0 	str.w	r1, [r4, #160]	; 0xa0

  /* Rx FIFO 0 elements number */
  MODIFY_REG(hfdcan->Instance->RXF0C, FDCAN_RXF0C_F0S, (hfdcan->Init.RxFifo0ElmtsNbr << FDCAN_RXF0C_F0S_Pos));
 8000838:	6804      	ldr	r4, [r0, #0]
 800083a:	f8d4 10a0 	ldr.w	r1, [r4, #160]	; 0xa0
 800083e:	f421 01fe 	bic.w	r1, r1, #8323072	; 0x7f0000
 8000842:	6c05      	ldr	r5, [r0, #64]	; 0x40
 8000844:	ea41 4105 	orr.w	r1, r1, r5, lsl #16
 8000848:	f8c4 10a0 	str.w	r1, [r4, #160]	; 0xa0

  /* Rx FIFO 1 start address */
  StartAddress += (hfdcan->Init.RxFifo0ElmtsNbr * hfdcan->Init.RxFifo0ElmtSize);
 800084c:	6c04      	ldr	r4, [r0, #64]	; 0x40
 800084e:	6c41      	ldr	r1, [r0, #68]	; 0x44
 8000850:	fb01 2404 	mla	r4, r1, r4, r2
  MODIFY_REG(hfdcan->Instance->RXF1C, FDCAN_RXF1C_F1SA, (StartAddress << FDCAN_RXF1C_F1SA_Pos));
 8000854:	6802      	ldr	r2, [r0, #0]
 8000856:	f8d2 10b0 	ldr.w	r1, [r2, #176]	; 0xb0
 800085a:	4019      	ands	r1, r3
 800085c:	ea41 0184 	orr.w	r1, r1, r4, lsl #2
 8000860:	f8c2 10b0 	str.w	r1, [r2, #176]	; 0xb0

  /* Rx FIFO 1 elements number */
  MODIFY_REG(hfdcan->Instance->RXF1C, FDCAN_RXF1C_F1S, (hfdcan->Init.RxFifo1ElmtsNbr << FDCAN_RXF1C_F1S_Pos));
 8000864:	6802      	ldr	r2, [r0, #0]
 8000866:	f8d2 10b0 	ldr.w	r1, [r2, #176]	; 0xb0
 800086a:	f421 01fe 	bic.w	r1, r1, #8323072	; 0x7f0000
 800086e:	6c85      	ldr	r5, [r0, #72]	; 0x48
 8000870:	ea41 4105 	orr.w	r1, r1, r5, lsl #16
 8000874:	f8c2 10b0 	str.w	r1, [r2, #176]	; 0xb0

  /* Rx buffer list start address */
  StartAddress += (hfdcan->Init.RxFifo1ElmtsNbr * hfdcan->Init.RxFifo1ElmtSize);
 8000878:	6c82      	ldr	r2, [r0, #72]	; 0x48
 800087a:	6cc1      	ldr	r1, [r0, #76]	; 0x4c
 800087c:	fb01 4402 	mla	r4, r1, r2, r4
  MODIFY_REG(hfdcan->Instance->RXBC, FDCAN_RXBC_RBSA, (StartAddress << FDCAN_RXBC_RBSA_Pos));
 8000880:	6802      	ldr	r2, [r0, #0]
 8000882:	f8d2 10ac 	ldr.w	r1, [r2, #172]	; 0xac
 8000886:	4019      	ands	r1, r3
 8000888:	ea41 0184 	orr.w	r1, r1, r4, lsl #2
 800088c:	f8c2 10ac 	str.w	r1, [r2, #172]	; 0xac

  /* Tx event FIFO start address */
  StartAddress += (hfdcan->Init.RxBuffersNbr * hfdcan->Init.RxBufferSize);
 8000890:	6d02      	ldr	r2, [r0, #80]	; 0x50
 8000892:	6d41      	ldr	r1, [r0, #84]	; 0x54
 8000894:	fb01 4202 	mla	r2, r1, r2, r4
  MODIFY_REG(hfdcan->Instance->TXEFC, FDCAN_TXEFC_EFSA, (StartAddress << FDCAN_TXEFC_EFSA_Pos));
 8000898:	6804      	ldr	r4, [r0, #0]
 800089a:	f8d4 10f0 	ldr.w	r1, [r4, #240]	; 0xf0
 800089e:	4019      	ands	r1, r3
 80008a0:	ea41 0182 	orr.w	r1, r1, r2, lsl #2
 80008a4:	f8c4 10f0 	str.w	r1, [r4, #240]	; 0xf0

  /* Tx event FIFO elements number */
  MODIFY_REG(hfdcan->Instance->TXEFC, FDCAN_TXEFC_EFS, (hfdcan->Init.TxEventsNbr << FDCAN_TXEFC_EFS_Pos));
 80008a8:	6804      	ldr	r4, [r0, #0]
 80008aa:	f8d4 10f0 	ldr.w	r1, [r4, #240]	; 0xf0
 80008ae:	f421 117c 	bic.w	r1, r1, #4128768	; 0x3f0000
 80008b2:	6d85      	ldr	r5, [r0, #88]	; 0x58
 80008b4:	ea41 4105 	orr.w	r1, r1, r5, lsl #16
 80008b8:	f8c4 10f0 	str.w	r1, [r4, #240]	; 0xf0

  /* Tx buffer list start address */
  StartAddress += (hfdcan->Init.TxEventsNbr * 2U);
 80008bc:	6d81      	ldr	r1, [r0, #88]	; 0x58
 80008be:	eb02 0241 	add.w	r2, r2, r1, lsl #1
  MODIFY_REG(hfdcan->Instance->TXBC, FDCAN_TXBC_TBSA, (StartAddress << FDCAN_TXBC_TBSA_Pos));
 80008c2:	6804      	ldr	r4, [r0, #0]
 80008c4:	f8d4 10c0 	ldr.w	r1, [r4, #192]	; 0xc0
 80008c8:	400b      	ands	r3, r1
 80008ca:	ea43 0282 	orr.w	r2, r3, r2, lsl #2
 80008ce:	f8c4 20c0 	str.w	r2, [r4, #192]	; 0xc0

  /* Dedicated Tx buffers number */
  MODIFY_REG(hfdcan->Instance->TXBC, FDCAN_TXBC_NDTB, (hfdcan->Init.TxBuffersNbr << FDCAN_TXBC_NDTB_Pos));
 80008d2:	6802      	ldr	r2, [r0, #0]
 80008d4:	f8d2 30c0 	ldr.w	r3, [r2, #192]	; 0xc0
 80008d8:	f423 137c 	bic.w	r3, r3, #4128768	; 0x3f0000
 80008dc:	6dc1      	ldr	r1, [r0, #92]	; 0x5c
 80008de:	ea43 4301 	orr.w	r3, r3, r1, lsl #16
 80008e2:	f8c2 30c0 	str.w	r3, [r2, #192]	; 0xc0

  /* Tx FIFO/queue elements number */
  MODIFY_REG(hfdcan->Instance->TXBC, FDCAN_TXBC_TFQS, (hfdcan->Init.TxFifoQueueElmtsNbr << FDCAN_TXBC_TFQS_Pos));
 80008e6:	6802      	ldr	r2, [r0, #0]
 80008e8:	f8d2 30c0 	ldr.w	r3, [r2, #192]	; 0xc0
 80008ec:	f023 537c 	bic.w	r3, r3, #1056964608	; 0x3f000000
 80008f0:	6e01      	ldr	r1, [r0, #96]	; 0x60
 80008f2:	ea43 6301 	orr.w	r3, r3, r1, lsl #24
 80008f6:	f8c2 30c0 	str.w	r3, [r2, #192]	; 0xc0

  hfdcan->msgRam.StandardFilterSA = SRAMCAN_BASE + (hfdcan->Init.MessageRAMOffset * 4U);
 80008fa:	6b43      	ldr	r3, [r0, #52]	; 0x34
 80008fc:	4a28      	ldr	r2, [pc, #160]	; (80009a0 <FDCAN_CalcultateRamBlockAddresses+0x1d0>)
 80008fe:	441a      	add	r2, r3
 8000900:	0092      	lsls	r2, r2, #2
 8000902:	66c2      	str	r2, [r0, #108]	; 0x6c
  hfdcan->msgRam.ExtendedFilterSA = hfdcan->msgRam.StandardFilterSA + (hfdcan->Init.StdFiltersNbr * 4U);
 8000904:	6b83      	ldr	r3, [r0, #56]	; 0x38
 8000906:	eb02 0383 	add.w	r3, r2, r3, lsl #2
 800090a:	6703      	str	r3, [r0, #112]	; 0x70
  hfdcan->msgRam.RxFIFO0SA = hfdcan->msgRam.ExtendedFilterSA + (hfdcan->Init.ExtFiltersNbr * 2U * 4U);
 800090c:	6bc1      	ldr	r1, [r0, #60]	; 0x3c
 800090e:	eb03 03c1 	add.w	r3, r3, r1, lsl #3
 8000912:	6743      	str	r3, [r0, #116]	; 0x74
  hfdcan->msgRam.RxFIFO1SA = hfdcan->msgRam.RxFIFO0SA + (hfdcan->Init.RxFifo0ElmtsNbr * hfdcan->Init.RxFifo0ElmtSize * 4U);
 8000914:	6c04      	ldr	r4, [r0, #64]	; 0x40
 8000916:	6c41      	ldr	r1, [r0, #68]	; 0x44
 8000918:	fb01 f104 	mul.w	r1, r1, r4
 800091c:	eb03 0381 	add.w	r3, r3, r1, lsl #2
 8000920:	6783      	str	r3, [r0, #120]	; 0x78
  hfdcan->msgRam.RxBufferSA = hfdcan->msgRam.RxFIFO1SA + (hfdcan->Init.RxFifo1ElmtsNbr * hfdcan->Init.RxFifo1ElmtSize * 4U);
 8000922:	6c84      	ldr	r4, [r0, #72]	; 0x48
 8000924:	6cc1      	ldr	r1, [r0, #76]	; 0x4c
 8000926:	fb01 f104 	mul.w	r1, r1, r4
 800092a:	eb03 0381 	add.w	r3, r3, r1, lsl #2
 800092e:	67c3      	str	r3, [r0, #124]	; 0x7c
  hfdcan->msgRam.TxEventFIFOSA = hfdcan->msgRam.RxBufferSA + (hfdcan->Init.RxBuffersNbr * hfdcan->Init.RxBufferSize * 4U);
 8000930:	6d04      	ldr	r4, [r0, #80]	; 0x50
 8000932:	6d41      	ldr	r1, [r0, #84]	; 0x54
 8000934:	fb01 f104 	mul.w	r1, r1, r4
 8000938:	eb03 0381 	add.w	r3, r3, r1, lsl #2
 800093c:	f8c0 3080 	str.w	r3, [r0, #128]	; 0x80
  hfdcan->msgRam.TxBufferSA = hfdcan->msgRam.TxEventFIFOSA + (hfdcan->Init.TxEventsNbr * 2U * 4U);
 8000940:	6d81      	ldr	r1, [r0, #88]	; 0x58
 8000942:	eb03 03c1 	add.w	r3, r3, r1, lsl #3
 8000946:	f8c0 3084 	str.w	r3, [r0, #132]	; 0x84
  hfdcan->msgRam.TxFIFOQSA = hfdcan->msgRam.TxBufferSA + (hfdcan->Init.TxBuffersNbr * hfdcan->Init.TxElmtSize * 4U);
 800094a:	6dc4      	ldr	r4, [r0, #92]	; 0x5c
 800094c:	6e85      	ldr	r5, [r0, #104]	; 0x68
 800094e:	fb05 f404 	mul.w	r4, r5, r4
 8000952:	eb03 0384 	add.w	r3, r3, r4, lsl #2
 8000956:	f8c0 3088 	str.w	r3, [r0, #136]	; 0x88

  hfdcan->msgRam.EndAddress = hfdcan->msgRam.TxFIFOQSA + (hfdcan->Init.TxFifoQueueElmtsNbr * hfdcan->Init.TxElmtSize * 4U);
 800095a:	6e01      	ldr	r1, [r0, #96]	; 0x60
 800095c:	fb01 f105 	mul.w	r1, r1, r5
 8000960:	eb03 0381 	add.w	r3, r3, r1, lsl #2
 8000964:	f8c0 3090 	str.w	r3, [r0, #144]	; 0x90

  if (hfdcan->msgRam.EndAddress > FDCAN_MESSAGE_RAM_END_ADDRESS) /* Last address of the Message RAM */
 8000968:	490e      	ldr	r1, [pc, #56]	; (80009a4 <FDCAN_CalcultateRamBlockAddresses+0x1d4>)
 800096a:	428b      	cmp	r3, r1
 800096c:	d807      	bhi.n	800097e <FDCAN_CalcultateRamBlockAddresses+0x1ae>
    return HAL_ERROR;
  }
  else
  {
    /* Flush the allocated Message RAM area */
    for (RAMcounter = hfdcan->msgRam.StandardFilterSA; RAMcounter < hfdcan->msgRam.EndAddress; RAMcounter += 4U)
 800096e:	f8d0 3090 	ldr.w	r3, [r0, #144]	; 0x90
 8000972:	4293      	cmp	r3, r2
 8000974:	d90e      	bls.n	8000994 <FDCAN_CalcultateRamBlockAddresses+0x1c4>
    {
      *(uint32_t *)(RAMcounter) = 0x00000000;
 8000976:	2300      	movs	r3, #0
 8000978:	f842 3b04 	str.w	r3, [r2], #4
    for (RAMcounter = hfdcan->msgRam.StandardFilterSA; RAMcounter < hfdcan->msgRam.EndAddress; RAMcounter += 4U)
 800097c:	e7f7      	b.n	800096e <FDCAN_CalcultateRamBlockAddresses+0x19e>
    hfdcan->ErrorCode |= HAL_FDCAN_ERROR_PARAM;
 800097e:	f8d0 309c 	ldr.w	r3, [r0, #156]	; 0x9c
 8000982:	f043 0320 	orr.w	r3, r3, #32
 8000986:	f8c0 309c 	str.w	r3, [r0, #156]	; 0x9c
    hfdcan->State = HAL_FDCAN_STATE_ERROR;
 800098a:	2303      	movs	r3, #3
 800098c:	f880 3098 	strb.w	r3, [r0, #152]	; 0x98
    return HAL_ERROR;
 8000990:	2001      	movs	r0, #1
 8000992:	e000      	b.n	8000996 <FDCAN_CalcultateRamBlockAddresses+0x1c6>
    }
  }

  /* Return function status */
  return HAL_OK;
 8000994:	2000      	movs	r0, #0
}
 8000996:	bc30      	pop	{r4, r5}
 8000998:	4770      	bx	lr
 800099a:	bf00      	nop
 800099c:	ffff0003 	.word	0xffff0003
 80009a0:	10002b00 	.word	0x10002b00
 80009a4:	4000d3fc 	.word	0x4000d3fc

080009a8 <FDCAN_CopyMessageToRAM>:
  * @param  pTxData pointer to a buffer containing the payload of the Tx frame.
  * @param  BufferIndex index of the buffer to be configured.
  * @retval HAL status
 */
static void FDCAN_CopyMessageToRAM(FDCAN_HandleTypeDef *hfdcan, FDCAN_TxHeaderTypeDef *pTxHeader, uint8_t *pTxData, uint32_t BufferIndex)
{
 80009a8:	b4f0      	push	{r4, r5, r6, r7}
  uint32_t TxElementW2;
  uint32_t *TxAddress;
  uint32_t ByteCounter;

  /* Build first word of Tx header element */
  if (pTxHeader->IdType == FDCAN_STANDARD_ID)
 80009aa:	684c      	ldr	r4, [r1, #4]
 80009ac:	2c00      	cmp	r4, #0
 80009ae:	d12f      	bne.n	8000a10 <FDCAN_CopyMessageToRAM+0x68>
  {
    TxElementW1 = (pTxHeader->ErrorStateIndicator |
 80009b0:	690e      	ldr	r6, [r1, #16]
                   FDCAN_STANDARD_ID |
                   pTxHeader->TxFrameType |
 80009b2:	688c      	ldr	r4, [r1, #8]
                   FDCAN_STANDARD_ID |
 80009b4:	4326      	orrs	r6, r4
                   (pTxHeader->Identifier << 18));
 80009b6:	680c      	ldr	r4, [r1, #0]
    TxElementW1 = (pTxHeader->ErrorStateIndicator |
 80009b8:	ea46 4684 	orr.w	r6, r6, r4, lsl #18
                   pTxHeader->TxFrameType |
                   pTxHeader->Identifier);
  }

  /* Build second word of Tx header element */
  TxElementW2 = ((pTxHeader->MessageMarker << 24) |
 80009bc:	6a0d      	ldr	r5, [r1, #32]
                 pTxHeader->TxEventFifoControl |
 80009be:	69cc      	ldr	r4, [r1, #28]
  TxElementW2 = ((pTxHeader->MessageMarker << 24) |
 80009c0:	ea44 6405 	orr.w	r4, r4, r5, lsl #24
                 pTxHeader->FDFormat |
 80009c4:	698d      	ldr	r5, [r1, #24]
                 pTxHeader->TxEventFifoControl |
 80009c6:	432c      	orrs	r4, r5
                 pTxHeader->BitRateSwitch |
 80009c8:	694d      	ldr	r5, [r1, #20]
                 pTxHeader->FDFormat |
 80009ca:	432c      	orrs	r4, r5
                 pTxHeader->DataLength);
 80009cc:	68cd      	ldr	r5, [r1, #12]
  TxElementW2 = ((pTxHeader->MessageMarker << 24) |
 80009ce:	432c      	orrs	r4, r5

  /* Calculate Tx element address */
  TxAddress = (uint32_t *)(hfdcan->msgRam.TxBufferSA + (BufferIndex * hfdcan->Init.TxElmtSize * 4U));
 80009d0:	f8d0 7084 	ldr.w	r7, [r0, #132]	; 0x84
 80009d4:	6e80      	ldr	r0, [r0, #104]	; 0x68
 80009d6:	fb03 f300 	mul.w	r3, r3, r0
 80009da:	eb07 0583 	add.w	r5, r7, r3, lsl #2

  /* Write Tx element header to the message RAM */
  *TxAddress = TxElementW1;
 80009de:	f847 6023 	str.w	r6, [r7, r3, lsl #2]
  TxAddress++;
  *TxAddress = TxElementW2;
 80009e2:	606c      	str	r4, [r5, #4]
  TxAddress++;
 80009e4:	3508      	adds	r5, #8

  /* Write Tx payload to the message RAM */
  for (ByteCounter = 0; ByteCounter < DLCtoBytes[pTxHeader->DataLength >> 16]; ByteCounter += 4U)
 80009e6:	2000      	movs	r0, #0
 80009e8:	89cb      	ldrh	r3, [r1, #14]
 80009ea:	4c0e      	ldr	r4, [pc, #56]	; (8000a24 <FDCAN_CopyMessageToRAM+0x7c>)
 80009ec:	5ce3      	ldrb	r3, [r4, r3]
 80009ee:	4283      	cmp	r3, r0
 80009f0:	d916      	bls.n	8000a20 <FDCAN_CopyMessageToRAM+0x78>
  {
    *TxAddress = (((uint32_t)pTxData[ByteCounter + 3U] << 24) |
 80009f2:	1814      	adds	r4, r2, r0
 80009f4:	78e6      	ldrb	r6, [r4, #3]
                  ((uint32_t)pTxData[ByteCounter + 2U] << 16) |
 80009f6:	78a3      	ldrb	r3, [r4, #2]
 80009f8:	041b      	lsls	r3, r3, #16
    *TxAddress = (((uint32_t)pTxData[ByteCounter + 3U] << 24) |
 80009fa:	ea43 6306 	orr.w	r3, r3, r6, lsl #24
                  ((uint32_t)pTxData[ByteCounter + 1U] << 8) |
 80009fe:	7864      	ldrb	r4, [r4, #1]
                  ((uint32_t)pTxData[ByteCounter + 2U] << 16) |
 8000a00:	ea43 2304 	orr.w	r3, r3, r4, lsl #8
                  (uint32_t)pTxData[ByteCounter]);
 8000a04:	5c14      	ldrb	r4, [r2, r0]
                  ((uint32_t)pTxData[ByteCounter + 1U] << 8) |
 8000a06:	4323      	orrs	r3, r4
    *TxAddress = (((uint32_t)pTxData[ByteCounter + 3U] << 24) |
 8000a08:	f845 3b04 	str.w	r3, [r5], #4
  for (ByteCounter = 0; ByteCounter < DLCtoBytes[pTxHeader->DataLength >> 16]; ByteCounter += 4U)
 8000a0c:	3004      	adds	r0, #4
 8000a0e:	e7eb      	b.n	80009e8 <FDCAN_CopyMessageToRAM+0x40>
    TxElementW1 = (pTxHeader->ErrorStateIndicator |
 8000a10:	690c      	ldr	r4, [r1, #16]
                   pTxHeader->TxFrameType |
 8000a12:	688e      	ldr	r6, [r1, #8]
                   FDCAN_EXTENDED_ID |
 8000a14:	4326      	orrs	r6, r4
                   pTxHeader->Identifier);
 8000a16:	680c      	ldr	r4, [r1, #0]
                   pTxHeader->TxFrameType |
 8000a18:	4326      	orrs	r6, r4
    TxElementW1 = (pTxHeader->ErrorStateIndicator |
 8000a1a:	f046 4680 	orr.w	r6, r6, #1073741824	; 0x40000000
 8000a1e:	e7cd      	b.n	80009bc <FDCAN_CopyMessageToRAM+0x14>
    TxAddress++;
  }
}
 8000a20:	bcf0      	pop	{r4, r5, r6, r7}
 8000a22:	4770      	bx	lr
 8000a24:	08009258 	.word	0x08009258

08000a28 <HAL_FDCAN_Init>:
{
 8000a28:	b530      	push	{r4, r5, lr}
 8000a2a:	b095      	sub	sp, #84	; 0x54
 8000a2c:	4604      	mov	r4, r0
  const uint32_t CvtEltSize[] = {0, 0, 0, 0, 0, 1, 2, 3, 4, 0, 5, 0, 0, 0, 6, 0, 0, 0, 7};
 8000a2e:	224c      	movs	r2, #76	; 0x4c
 8000a30:	49a0      	ldr	r1, [pc, #640]	; (8000cb4 <HAL_FDCAN_Init+0x28c>)
 8000a32:	a801      	add	r0, sp, #4
 8000a34:	f007 fc3a 	bl	80082ac <memcpy>
  if (hfdcan == NULL)
 8000a38:	2c00      	cmp	r4, #0
 8000a3a:	f000 8138 	beq.w	8000cae <HAL_FDCAN_Init+0x286>
  if (hfdcan->Instance == FDCAN1)
 8000a3e:	6823      	ldr	r3, [r4, #0]
 8000a40:	4a9d      	ldr	r2, [pc, #628]	; (8000cb8 <HAL_FDCAN_Init+0x290>)
 8000a42:	4293      	cmp	r3, r2
 8000a44:	d020      	beq.n	8000a88 <HAL_FDCAN_Init+0x60>
  if (hfdcan->State == HAL_FDCAN_STATE_RESET)
 8000a46:	f894 3098 	ldrb.w	r3, [r4, #152]	; 0x98
 8000a4a:	b30b      	cbz	r3, 8000a90 <HAL_FDCAN_Init+0x68>
  CLEAR_BIT(hfdcan->Instance->CCCR, FDCAN_CCCR_CSR);
 8000a4c:	6822      	ldr	r2, [r4, #0]
 8000a4e:	6993      	ldr	r3, [r2, #24]
 8000a50:	f023 0310 	bic.w	r3, r3, #16
 8000a54:	6193      	str	r3, [r2, #24]
  tickstart = HAL_GetTick();
 8000a56:	f7ff fe49 	bl	80006ec <HAL_GetTick>
 8000a5a:	4605      	mov	r5, r0
  while ((hfdcan->Instance->CCCR & FDCAN_CCCR_CSA) == FDCAN_CCCR_CSA)
 8000a5c:	6823      	ldr	r3, [r4, #0]
 8000a5e:	699a      	ldr	r2, [r3, #24]
 8000a60:	f012 0f08 	tst.w	r2, #8
 8000a64:	d01a      	beq.n	8000a9c <HAL_FDCAN_Init+0x74>
    if ((HAL_GetTick() - tickstart) > FDCAN_TIMEOUT_VALUE)
 8000a66:	f7ff fe41 	bl	80006ec <HAL_GetTick>
 8000a6a:	1b43      	subs	r3, r0, r5
 8000a6c:	2b0a      	cmp	r3, #10
 8000a6e:	d9f5      	bls.n	8000a5c <HAL_FDCAN_Init+0x34>
      hfdcan->ErrorCode |= HAL_FDCAN_ERROR_TIMEOUT;
 8000a70:	f8d4 309c 	ldr.w	r3, [r4, #156]	; 0x9c
 8000a74:	f043 0301 	orr.w	r3, r3, #1
 8000a78:	f8c4 309c 	str.w	r3, [r4, #156]	; 0x9c
      hfdcan->State = HAL_FDCAN_STATE_ERROR;
 8000a7c:	2303      	movs	r3, #3
 8000a7e:	f884 3098 	strb.w	r3, [r4, #152]	; 0x98
      return HAL_ERROR;
 8000a82:	2001      	movs	r0, #1
}
 8000a84:	b015      	add	sp, #84	; 0x54
 8000a86:	bd30      	pop	{r4, r5, pc}
    hfdcan->ttcan = (TTCAN_TypeDef *)((uint32_t)hfdcan->Instance + 0x100U);
 8000a88:	f503 7380 	add.w	r3, r3, #256	; 0x100
 8000a8c:	6063      	str	r3, [r4, #4]
 8000a8e:	e7da      	b.n	8000a46 <HAL_FDCAN_Init+0x1e>
    hfdcan->Lock = HAL_UNLOCKED;
 8000a90:	f884 3099 	strb.w	r3, [r4, #153]	; 0x99
    HAL_FDCAN_MspInit(hfdcan);
 8000a94:	4620      	mov	r0, r4
 8000a96:	f006 fef5 	bl	8007884 <HAL_FDCAN_MspInit>
 8000a9a:	e7d7      	b.n	8000a4c <HAL_FDCAN_Init+0x24>
  SET_BIT(hfdcan->Instance->CCCR, FDCAN_CCCR_INIT);
 8000a9c:	699a      	ldr	r2, [r3, #24]
 8000a9e:	f042 0201 	orr.w	r2, r2, #1
 8000aa2:	619a      	str	r2, [r3, #24]
  tickstart = HAL_GetTick();
 8000aa4:	f7ff fe22 	bl	80006ec <HAL_GetTick>
 8000aa8:	4605      	mov	r5, r0
  while ((hfdcan->Instance->CCCR & FDCAN_CCCR_INIT) == 0U)
 8000aaa:	6823      	ldr	r3, [r4, #0]
 8000aac:	699a      	ldr	r2, [r3, #24]
 8000aae:	f012 0f01 	tst.w	r2, #1
 8000ab2:	d10f      	bne.n	8000ad4 <HAL_FDCAN_Init+0xac>
    if ((HAL_GetTick() - tickstart) > FDCAN_TIMEOUT_VALUE)
 8000ab4:	f7ff fe1a 	bl	80006ec <HAL_GetTick>
 8000ab8:	1b40      	subs	r0, r0, r5
 8000aba:	280a      	cmp	r0, #10
 8000abc:	d9f5      	bls.n	8000aaa <HAL_FDCAN_Init+0x82>
      hfdcan->ErrorCode |= HAL_FDCAN_ERROR_TIMEOUT;
 8000abe:	f8d4 309c 	ldr.w	r3, [r4, #156]	; 0x9c
 8000ac2:	f043 0301 	orr.w	r3, r3, #1
 8000ac6:	f8c4 309c 	str.w	r3, [r4, #156]	; 0x9c
      hfdcan->State = HAL_FDCAN_STATE_ERROR;
 8000aca:	2303      	movs	r3, #3
 8000acc:	f884 3098 	strb.w	r3, [r4, #152]	; 0x98
      return HAL_ERROR;
 8000ad0:	2001      	movs	r0, #1
 8000ad2:	e7d7      	b.n	8000a84 <HAL_FDCAN_Init+0x5c>
  SET_BIT(hfdcan->Instance->CCCR, FDCAN_CCCR_CCE);
 8000ad4:	699a      	ldr	r2, [r3, #24]
 8000ad6:	f042 0202 	orr.w	r2, r2, #2
 8000ada:	619a      	str	r2, [r3, #24]
  if (hfdcan->Init.AutoRetransmission == ENABLE)
 8000adc:	7c23      	ldrb	r3, [r4, #16]
 8000ade:	2b01      	cmp	r3, #1
 8000ae0:	d040      	beq.n	8000b64 <HAL_FDCAN_Init+0x13c>
    SET_BIT(hfdcan->Instance->CCCR, FDCAN_CCCR_DAR);
 8000ae2:	6822      	ldr	r2, [r4, #0]
 8000ae4:	6993      	ldr	r3, [r2, #24]
 8000ae6:	f043 0340 	orr.w	r3, r3, #64	; 0x40
 8000aea:	6193      	str	r3, [r2, #24]
  if (hfdcan->Init.TransmitPause == ENABLE)
 8000aec:	7c63      	ldrb	r3, [r4, #17]
 8000aee:	2b01      	cmp	r3, #1
 8000af0:	d03e      	beq.n	8000b70 <HAL_FDCAN_Init+0x148>
    CLEAR_BIT(hfdcan->Instance->CCCR, FDCAN_CCCR_TXP);
 8000af2:	6822      	ldr	r2, [r4, #0]
 8000af4:	6993      	ldr	r3, [r2, #24]
 8000af6:	f423 4380 	bic.w	r3, r3, #16384	; 0x4000
 8000afa:	6193      	str	r3, [r2, #24]
  if (hfdcan->Init.ProtocolException == ENABLE)
 8000afc:	7ca3      	ldrb	r3, [r4, #18]
 8000afe:	2b01      	cmp	r3, #1
 8000b00:	d03c      	beq.n	8000b7c <HAL_FDCAN_Init+0x154>
    SET_BIT(hfdcan->Instance->CCCR, FDCAN_CCCR_PXHD);
 8000b02:	6822      	ldr	r2, [r4, #0]
 8000b04:	6993      	ldr	r3, [r2, #24]
 8000b06:	f443 5380 	orr.w	r3, r3, #4096	; 0x1000
 8000b0a:	6193      	str	r3, [r2, #24]
  MODIFY_REG(hfdcan->Instance->CCCR, FDCAN_FRAME_FD_BRS, hfdcan->Init.FrameFormat);
 8000b0c:	6822      	ldr	r2, [r4, #0]
 8000b0e:	6993      	ldr	r3, [r2, #24]
 8000b10:	f423 7340 	bic.w	r3, r3, #768	; 0x300
 8000b14:	68a1      	ldr	r1, [r4, #8]
 8000b16:	430b      	orrs	r3, r1
 8000b18:	6193      	str	r3, [r2, #24]
  CLEAR_BIT(hfdcan->Instance->CCCR, (FDCAN_CCCR_TEST | FDCAN_CCCR_MON | FDCAN_CCCR_ASM));
 8000b1a:	6822      	ldr	r2, [r4, #0]
 8000b1c:	6993      	ldr	r3, [r2, #24]
 8000b1e:	f023 03a4 	bic.w	r3, r3, #164	; 0xa4
 8000b22:	6193      	str	r3, [r2, #24]
  CLEAR_BIT(hfdcan->Instance->TEST, FDCAN_TEST_LBCK);
 8000b24:	6822      	ldr	r2, [r4, #0]
 8000b26:	6913      	ldr	r3, [r2, #16]
 8000b28:	f023 0310 	bic.w	r3, r3, #16
 8000b2c:	6113      	str	r3, [r2, #16]
  if (hfdcan->Init.Mode == FDCAN_MODE_RESTRICTED_OPERATION)
 8000b2e:	68e3      	ldr	r3, [r4, #12]
 8000b30:	2b01      	cmp	r3, #1
 8000b32:	d029      	beq.n	8000b88 <HAL_FDCAN_Init+0x160>
  else if (hfdcan->Init.Mode != FDCAN_MODE_NORMAL)
 8000b34:	2b00      	cmp	r3, #0
 8000b36:	d02c      	beq.n	8000b92 <HAL_FDCAN_Init+0x16a>
    if (hfdcan->Init.Mode != FDCAN_MODE_BUS_MONITORING)
 8000b38:	2b02      	cmp	r3, #2
 8000b3a:	f000 809b 	beq.w	8000c74 <HAL_FDCAN_Init+0x24c>
      SET_BIT(hfdcan->Instance->CCCR, FDCAN_CCCR_TEST);
 8000b3e:	6822      	ldr	r2, [r4, #0]
 8000b40:	6993      	ldr	r3, [r2, #24]
 8000b42:	f043 0380 	orr.w	r3, r3, #128	; 0x80
 8000b46:	6193      	str	r3, [r2, #24]
      SET_BIT(hfdcan->Instance->TEST, FDCAN_TEST_LBCK);
 8000b48:	6822      	ldr	r2, [r4, #0]
 8000b4a:	6913      	ldr	r3, [r2, #16]
 8000b4c:	f043 0310 	orr.w	r3, r3, #16
 8000b50:	6113      	str	r3, [r2, #16]
      if (hfdcan->Init.Mode == FDCAN_MODE_INTERNAL_LOOPBACK)
 8000b52:	68e3      	ldr	r3, [r4, #12]
 8000b54:	2b03      	cmp	r3, #3
 8000b56:	d11c      	bne.n	8000b92 <HAL_FDCAN_Init+0x16a>
        SET_BIT(hfdcan->Instance->CCCR, FDCAN_CCCR_MON);
 8000b58:	6822      	ldr	r2, [r4, #0]
 8000b5a:	6993      	ldr	r3, [r2, #24]
 8000b5c:	f043 0320 	orr.w	r3, r3, #32
 8000b60:	6193      	str	r3, [r2, #24]
 8000b62:	e016      	b.n	8000b92 <HAL_FDCAN_Init+0x16a>
    CLEAR_BIT(hfdcan->Instance->CCCR, FDCAN_CCCR_DAR);
 8000b64:	6822      	ldr	r2, [r4, #0]
 8000b66:	6993      	ldr	r3, [r2, #24]
 8000b68:	f023 0340 	bic.w	r3, r3, #64	; 0x40
 8000b6c:	6193      	str	r3, [r2, #24]
 8000b6e:	e7bd      	b.n	8000aec <HAL_FDCAN_Init+0xc4>
    SET_BIT(hfdcan->Instance->CCCR, FDCAN_CCCR_TXP);
 8000b70:	6822      	ldr	r2, [r4, #0]
 8000b72:	6993      	ldr	r3, [r2, #24]
 8000b74:	f443 4380 	orr.w	r3, r3, #16384	; 0x4000
 8000b78:	6193      	str	r3, [r2, #24]
 8000b7a:	e7bf      	b.n	8000afc <HAL_FDCAN_Init+0xd4>
    CLEAR_BIT(hfdcan->Instance->CCCR, FDCAN_CCCR_PXHD);
 8000b7c:	6822      	ldr	r2, [r4, #0]
 8000b7e:	6993      	ldr	r3, [r2, #24]
 8000b80:	f423 5380 	bic.w	r3, r3, #4096	; 0x1000
 8000b84:	6193      	str	r3, [r2, #24]
 8000b86:	e7c1      	b.n	8000b0c <HAL_FDCAN_Init+0xe4>
    SET_BIT(hfdcan->Instance->CCCR, FDCAN_CCCR_ASM);
 8000b88:	6822      	ldr	r2, [r4, #0]
 8000b8a:	6993      	ldr	r3, [r2, #24]
 8000b8c:	f043 0304 	orr.w	r3, r3, #4
 8000b90:	6193      	str	r3, [r2, #24]
  hfdcan->Instance->NBTP = ((((uint32_t)hfdcan->Init.NominalSyncJumpWidth - 1U) << FDCAN_NBTP_NSJW_Pos) | \
 8000b92:	69a3      	ldr	r3, [r4, #24]
 8000b94:	1e5a      	subs	r2, r3, #1
                            (((uint32_t)hfdcan->Init.NominalTimeSeg1 - 1U) << FDCAN_NBTP_NTSEG1_Pos)    | \
 8000b96:	69e3      	ldr	r3, [r4, #28]
 8000b98:	3b01      	subs	r3, #1
 8000b9a:	021b      	lsls	r3, r3, #8
  hfdcan->Instance->NBTP = ((((uint32_t)hfdcan->Init.NominalSyncJumpWidth - 1U) << FDCAN_NBTP_NSJW_Pos) | \
 8000b9c:	ea43 6342 	orr.w	r3, r3, r2, lsl #25
                            (((uint32_t)hfdcan->Init.NominalTimeSeg2 - 1U) << FDCAN_NBTP_NTSEG2_Pos)    | \
 8000ba0:	6a22      	ldr	r2, [r4, #32]
 8000ba2:	3a01      	subs	r2, #1
                            (((uint32_t)hfdcan->Init.NominalTimeSeg1 - 1U) << FDCAN_NBTP_NTSEG1_Pos)    | \
 8000ba4:	4313      	orrs	r3, r2
                            (((uint32_t)hfdcan->Init.NominalPrescaler - 1U) << FDCAN_NBTP_NBRP_Pos));
 8000ba6:	6962      	ldr	r2, [r4, #20]
 8000ba8:	3a01      	subs	r2, #1
  hfdcan->Instance->NBTP = ((((uint32_t)hfdcan->Init.NominalSyncJumpWidth - 1U) << FDCAN_NBTP_NSJW_Pos) | \
 8000baa:	6821      	ldr	r1, [r4, #0]
                            (((uint32_t)hfdcan->Init.NominalTimeSeg2 - 1U) << FDCAN_NBTP_NTSEG2_Pos)    | \
 8000bac:	ea43 4302 	orr.w	r3, r3, r2, lsl #16
  hfdcan->Instance->NBTP = ((((uint32_t)hfdcan->Init.NominalSyncJumpWidth - 1U) << FDCAN_NBTP_NSJW_Pos) | \
 8000bb0:	61cb      	str	r3, [r1, #28]
  if (hfdcan->Init.FrameFormat == FDCAN_FRAME_FD_BRS)
 8000bb2:	68a3      	ldr	r3, [r4, #8]
 8000bb4:	f5b3 7f40 	cmp.w	r3, #768	; 0x300
 8000bb8:	d062      	beq.n	8000c80 <HAL_FDCAN_Init+0x258>
  if (hfdcan->Init.TxFifoQueueElmtsNbr > 0U)
 8000bba:	6e23      	ldr	r3, [r4, #96]	; 0x60
 8000bbc:	b133      	cbz	r3, 8000bcc <HAL_FDCAN_Init+0x1a4>
    SET_BIT(hfdcan->Instance->TXBC, hfdcan->Init.TxFifoQueueMode);
 8000bbe:	6822      	ldr	r2, [r4, #0]
 8000bc0:	f8d2 30c0 	ldr.w	r3, [r2, #192]	; 0xc0
 8000bc4:	6e61      	ldr	r1, [r4, #100]	; 0x64
 8000bc6:	430b      	orrs	r3, r1
 8000bc8:	f8c2 30c0 	str.w	r3, [r2, #192]	; 0xc0
  if ((hfdcan->Init.TxBuffersNbr + hfdcan->Init.TxFifoQueueElmtsNbr) > 0U)
 8000bcc:	6de3      	ldr	r3, [r4, #92]	; 0x5c
 8000bce:	6e22      	ldr	r2, [r4, #96]	; 0x60
 8000bd0:	42d3      	cmn	r3, r2
 8000bd2:	d00d      	beq.n	8000bf0 <HAL_FDCAN_Init+0x1c8>
    MODIFY_REG(hfdcan->Instance->TXESC, FDCAN_TXESC_TBDS, CvtEltSize[hfdcan->Init.TxElmtSize]);
 8000bd4:	6821      	ldr	r1, [r4, #0]
 8000bd6:	f8d1 30c8 	ldr.w	r3, [r1, #200]	; 0xc8
 8000bda:	f023 0307 	bic.w	r3, r3, #7
 8000bde:	6ea2      	ldr	r2, [r4, #104]	; 0x68
 8000be0:	a814      	add	r0, sp, #80	; 0x50
 8000be2:	eb00 0282 	add.w	r2, r0, r2, lsl #2
 8000be6:	f852 2c4c 	ldr.w	r2, [r2, #-76]
 8000bea:	4313      	orrs	r3, r2
 8000bec:	f8c1 30c8 	str.w	r3, [r1, #200]	; 0xc8
  if (hfdcan->Init.RxFifo0ElmtsNbr > 0U)
 8000bf0:	6c23      	ldr	r3, [r4, #64]	; 0x40
 8000bf2:	b16b      	cbz	r3, 8000c10 <HAL_FDCAN_Init+0x1e8>
    MODIFY_REG(hfdcan->Instance->RXESC, FDCAN_RXESC_F0DS, (CvtEltSize[hfdcan->Init.RxFifo0ElmtSize] << FDCAN_RXESC_F0DS_Pos));
 8000bf4:	6821      	ldr	r1, [r4, #0]
 8000bf6:	f8d1 30bc 	ldr.w	r3, [r1, #188]	; 0xbc
 8000bfa:	f023 0307 	bic.w	r3, r3, #7
 8000bfe:	6c62      	ldr	r2, [r4, #68]	; 0x44
 8000c00:	a814      	add	r0, sp, #80	; 0x50
 8000c02:	eb00 0282 	add.w	r2, r0, r2, lsl #2
 8000c06:	f852 2c4c 	ldr.w	r2, [r2, #-76]
 8000c0a:	4313      	orrs	r3, r2
 8000c0c:	f8c1 30bc 	str.w	r3, [r1, #188]	; 0xbc
  if (hfdcan->Init.RxFifo1ElmtsNbr > 0U)
 8000c10:	6ca3      	ldr	r3, [r4, #72]	; 0x48
 8000c12:	b173      	cbz	r3, 8000c32 <HAL_FDCAN_Init+0x20a>
    MODIFY_REG(hfdcan->Instance->RXESC, FDCAN_RXESC_F1DS, (CvtEltSize[hfdcan->Init.RxFifo1ElmtSize] << FDCAN_RXESC_F1DS_Pos));
 8000c14:	6821      	ldr	r1, [r4, #0]
 8000c16:	f8d1 30bc 	ldr.w	r3, [r1, #188]	; 0xbc
 8000c1a:	f023 0370 	bic.w	r3, r3, #112	; 0x70
 8000c1e:	6ce2      	ldr	r2, [r4, #76]	; 0x4c
 8000c20:	a814      	add	r0, sp, #80	; 0x50
 8000c22:	eb00 0282 	add.w	r2, r0, r2, lsl #2
 8000c26:	f852 2c4c 	ldr.w	r2, [r2, #-76]
 8000c2a:	ea43 1302 	orr.w	r3, r3, r2, lsl #4
 8000c2e:	f8c1 30bc 	str.w	r3, [r1, #188]	; 0xbc
  if (hfdcan->Init.RxBuffersNbr > 0U)
 8000c32:	6d23      	ldr	r3, [r4, #80]	; 0x50
 8000c34:	b173      	cbz	r3, 8000c54 <HAL_FDCAN_Init+0x22c>
    MODIFY_REG(hfdcan->Instance->RXESC, FDCAN_RXESC_RBDS, (CvtEltSize[hfdcan->Init.RxBufferSize] << FDCAN_RXESC_RBDS_Pos));
 8000c36:	6821      	ldr	r1, [r4, #0]
 8000c38:	f8d1 30bc 	ldr.w	r3, [r1, #188]	; 0xbc
 8000c3c:	f423 63e0 	bic.w	r3, r3, #1792	; 0x700
 8000c40:	6d62      	ldr	r2, [r4, #84]	; 0x54
 8000c42:	a814      	add	r0, sp, #80	; 0x50
 8000c44:	eb00 0282 	add.w	r2, r0, r2, lsl #2
 8000c48:	f852 2c4c 	ldr.w	r2, [r2, #-76]
 8000c4c:	ea43 2302 	orr.w	r3, r3, r2, lsl #8
 8000c50:	f8c1 30bc 	str.w	r3, [r1, #188]	; 0xbc
  if (hfdcan->Instance == FDCAN1)
 8000c54:	6822      	ldr	r2, [r4, #0]
 8000c56:	4b18      	ldr	r3, [pc, #96]	; (8000cb8 <HAL_FDCAN_Init+0x290>)
 8000c58:	429a      	cmp	r2, r3
 8000c5a:	d022      	beq.n	8000ca2 <HAL_FDCAN_Init+0x27a>
  hfdcan->LatestTxFifoQRequest = 0U;
 8000c5c:	2300      	movs	r3, #0
 8000c5e:	f8c4 3094 	str.w	r3, [r4, #148]	; 0x94
  hfdcan->ErrorCode = HAL_FDCAN_ERROR_NONE;
 8000c62:	f8c4 309c 	str.w	r3, [r4, #156]	; 0x9c
  hfdcan->State = HAL_FDCAN_STATE_READY;
 8000c66:	2301      	movs	r3, #1
 8000c68:	f884 3098 	strb.w	r3, [r4, #152]	; 0x98
  status = FDCAN_CalcultateRamBlockAddresses(hfdcan);
 8000c6c:	4620      	mov	r0, r4
 8000c6e:	f7ff fdaf 	bl	80007d0 <FDCAN_CalcultateRamBlockAddresses>
  return status;
 8000c72:	e707      	b.n	8000a84 <HAL_FDCAN_Init+0x5c>
      SET_BIT(hfdcan->Instance->CCCR, FDCAN_CCCR_MON);
 8000c74:	6822      	ldr	r2, [r4, #0]
 8000c76:	6993      	ldr	r3, [r2, #24]
 8000c78:	f043 0320 	orr.w	r3, r3, #32
 8000c7c:	6193      	str	r3, [r2, #24]
 8000c7e:	e788      	b.n	8000b92 <HAL_FDCAN_Init+0x16a>
    hfdcan->Instance->DBTP = ((((uint32_t)hfdcan->Init.DataSyncJumpWidth - 1U) << FDCAN_DBTP_DSJW_Pos) | \
 8000c80:	6aa3      	ldr	r3, [r4, #40]	; 0x28
 8000c82:	3b01      	subs	r3, #1
                              (((uint32_t)hfdcan->Init.DataTimeSeg1 - 1U) << FDCAN_DBTP_DTSEG1_Pos)    | \
 8000c84:	6ae2      	ldr	r2, [r4, #44]	; 0x2c
 8000c86:	3a01      	subs	r2, #1
    hfdcan->Instance->DBTP = ((((uint32_t)hfdcan->Init.DataSyncJumpWidth - 1U) << FDCAN_DBTP_DSJW_Pos) | \
 8000c88:	ea43 2302 	orr.w	r3, r3, r2, lsl #8
                              (((uint32_t)hfdcan->Init.DataTimeSeg2 - 1U) << FDCAN_DBTP_DTSEG2_Pos)    | \
 8000c8c:	6b22      	ldr	r2, [r4, #48]	; 0x30
 8000c8e:	3a01      	subs	r2, #1
                              (((uint32_t)hfdcan->Init.DataTimeSeg1 - 1U) << FDCAN_DBTP_DTSEG1_Pos)    | \
 8000c90:	ea43 1302 	orr.w	r3, r3, r2, lsl #4
                              (((uint32_t)hfdcan->Init.DataPrescaler - 1U) << FDCAN_DBTP_DBRP_Pos));
 8000c94:	6a62      	ldr	r2, [r4, #36]	; 0x24
 8000c96:	3a01      	subs	r2, #1
    hfdcan->Instance->DBTP = ((((uint32_t)hfdcan->Init.DataSyncJumpWidth - 1U) << FDCAN_DBTP_DSJW_Pos) | \
 8000c98:	6821      	ldr	r1, [r4, #0]
                              (((uint32_t)hfdcan->Init.DataTimeSeg2 - 1U) << FDCAN_DBTP_DTSEG2_Pos)    | \
 8000c9a:	ea43 4302 	orr.w	r3, r3, r2, lsl #16
    hfdcan->Instance->DBTP = ((((uint32_t)hfdcan->Init.DataSyncJumpWidth - 1U) << FDCAN_DBTP_DSJW_Pos) | \
 8000c9e:	60cb      	str	r3, [r1, #12]
 8000ca0:	e78b      	b.n	8000bba <HAL_FDCAN_Init+0x192>
    CLEAR_BIT(hfdcan->ttcan->TTOCF, FDCAN_TTOCF_OM);
 8000ca2:	6862      	ldr	r2, [r4, #4]
 8000ca4:	6893      	ldr	r3, [r2, #8]
 8000ca6:	f023 0303 	bic.w	r3, r3, #3
 8000caa:	6093      	str	r3, [r2, #8]
 8000cac:	e7d6      	b.n	8000c5c <HAL_FDCAN_Init+0x234>
    return HAL_ERROR;
 8000cae:	2001      	movs	r0, #1
 8000cb0:	e6e8      	b.n	8000a84 <HAL_FDCAN_Init+0x5c>
 8000cb2:	bf00      	nop
 8000cb4:	08009268 	.word	0x08009268
 8000cb8:	4000a000 	.word	0x4000a000

08000cbc <HAL_FDCAN_ConfigFilter>:
  HAL_FDCAN_StateTypeDef state = hfdcan->State;
 8000cbc:	f890 3098 	ldrb.w	r3, [r0, #152]	; 0x98
  if ((state == HAL_FDCAN_STATE_READY) || (state == HAL_FDCAN_STATE_BUSY))
 8000cc0:	3b01      	subs	r3, #1
 8000cc2:	b2db      	uxtb	r3, r3
 8000cc4:	2b01      	cmp	r3, #1
 8000cc6:	d907      	bls.n	8000cd8 <HAL_FDCAN_ConfigFilter+0x1c>
    hfdcan->ErrorCode |= HAL_FDCAN_ERROR_NOT_INITIALIZED;
 8000cc8:	f8d0 309c 	ldr.w	r3, [r0, #156]	; 0x9c
 8000ccc:	f043 0302 	orr.w	r3, r3, #2
 8000cd0:	f8c0 309c 	str.w	r3, [r0, #156]	; 0x9c
    return HAL_ERROR;
 8000cd4:	2001      	movs	r0, #1
 8000cd6:	4770      	bx	lr
    if (sFilterConfig->FilterConfig == FDCAN_FILTER_TO_RXBUFFER)
 8000cd8:	68cb      	ldr	r3, [r1, #12]
    if (sFilterConfig->IdType == FDCAN_STANDARD_ID)
 8000cda:	680a      	ldr	r2, [r1, #0]
 8000cdc:	b9d2      	cbnz	r2, 8000d14 <HAL_FDCAN_ConfigFilter+0x58>
      if (sFilterConfig->FilterConfig == FDCAN_FILTER_TO_RXBUFFER)
 8000cde:	2b07      	cmp	r3, #7
 8000ce0:	d00e      	beq.n	8000d00 <HAL_FDCAN_ConfigFilter+0x44>
        FilterElementW1 = ((sFilterConfig->FilterType << 30U)   |
 8000ce2:	688a      	ldr	r2, [r1, #8]
                           (sFilterConfig->FilterConfig << 27U) |
 8000ce4:	06db      	lsls	r3, r3, #27
        FilterElementW1 = ((sFilterConfig->FilterType << 30U)   |
 8000ce6:	ea43 7382 	orr.w	r3, r3, r2, lsl #30
                           (sFilterConfig->FilterID1 << 16U)    |
 8000cea:	690a      	ldr	r2, [r1, #16]
                           (sFilterConfig->FilterConfig << 27U) |
 8000cec:	ea43 4302 	orr.w	r3, r3, r2, lsl #16
                           sFilterConfig->FilterID2);
 8000cf0:	694a      	ldr	r2, [r1, #20]
        FilterElementW1 = ((sFilterConfig->FilterType << 30U)   |
 8000cf2:	4313      	orrs	r3, r2
      FilterAddress = (uint32_t *)(hfdcan->msgRam.StandardFilterSA + (sFilterConfig->FilterIndex * 4U));
 8000cf4:	6ec2      	ldr	r2, [r0, #108]	; 0x6c
 8000cf6:	6849      	ldr	r1, [r1, #4]
      *FilterAddress = FilterElementW1;
 8000cf8:	f842 3021 	str.w	r3, [r2, r1, lsl #2]
    return HAL_OK;
 8000cfc:	2000      	movs	r0, #0
}
 8000cfe:	4770      	bx	lr
                           (sFilterConfig->FilterID1 << 16U)       |
 8000d00:	690a      	ldr	r2, [r1, #16]
                           (sFilterConfig->IsCalibrationMsg << 8U) |
 8000d02:	69cb      	ldr	r3, [r1, #28]
 8000d04:	021b      	lsls	r3, r3, #8
                           (sFilterConfig->FilterID1 << 16U)       |
 8000d06:	ea43 4302 	orr.w	r3, r3, r2, lsl #16
                           sFilterConfig->RxBufferIndex);
 8000d0a:	698a      	ldr	r2, [r1, #24]
                           (sFilterConfig->IsCalibrationMsg << 8U) |
 8000d0c:	4313      	orrs	r3, r2
        FilterElementW1 = ((FDCAN_FILTER_TO_RXBUFFER << 27U)       |
 8000d0e:	f043 5360 	orr.w	r3, r3, #939524096	; 0x38000000
 8000d12:	e7ef      	b.n	8000cf4 <HAL_FDCAN_ConfigFilter+0x38>
{
 8000d14:	b410      	push	{r4}
      FilterElementW1 = ((sFilterConfig->FilterConfig << 29U) | sFilterConfig->FilterID1);
 8000d16:	690a      	ldr	r2, [r1, #16]
 8000d18:	ea42 7243 	orr.w	r2, r2, r3, lsl #29
      if (sFilterConfig->FilterConfig == FDCAN_FILTER_TO_RXBUFFER)
 8000d1c:	2b07      	cmp	r3, #7
 8000d1e:	d00e      	beq.n	8000d3e <HAL_FDCAN_ConfigFilter+0x82>
        FilterElementW2 = ((sFilterConfig->FilterType << 30U) | sFilterConfig->FilterID2);
 8000d20:	688c      	ldr	r4, [r1, #8]
 8000d22:	694b      	ldr	r3, [r1, #20]
 8000d24:	ea43 7384 	orr.w	r3, r3, r4, lsl #30
      FilterAddress = (uint32_t *)(hfdcan->msgRam.ExtendedFilterSA + (sFilterConfig->FilterIndex * 4U * 2U));
 8000d28:	6f00      	ldr	r0, [r0, #112]	; 0x70
 8000d2a:	6849      	ldr	r1, [r1, #4]
 8000d2c:	eb00 04c1 	add.w	r4, r0, r1, lsl #3
      *FilterAddress = FilterElementW1;
 8000d30:	f840 2031 	str.w	r2, [r0, r1, lsl #3]
      *FilterAddress = FilterElementW2;
 8000d34:	6063      	str	r3, [r4, #4]
    return HAL_OK;
 8000d36:	2000      	movs	r0, #0
}
 8000d38:	f85d 4b04 	ldr.w	r4, [sp], #4
 8000d3c:	4770      	bx	lr
        FilterElementW2 = sFilterConfig->RxBufferIndex;
 8000d3e:	698b      	ldr	r3, [r1, #24]
 8000d40:	e7f2      	b.n	8000d28 <HAL_FDCAN_ConfigFilter+0x6c>

08000d42 <HAL_FDCAN_ConfigGlobalFilter>:
{
 8000d42:	b410      	push	{r4}
  if (hfdcan->State == HAL_FDCAN_STATE_READY)
 8000d44:	f890 4098 	ldrb.w	r4, [r0, #152]	; 0x98
 8000d48:	b2e4      	uxtb	r4, r4
 8000d4a:	2c01      	cmp	r4, #1
 8000d4c:	d009      	beq.n	8000d62 <HAL_FDCAN_ConfigGlobalFilter+0x20>
    hfdcan->ErrorCode |= HAL_FDCAN_ERROR_NOT_READY;
 8000d4e:	f8d0 309c 	ldr.w	r3, [r0, #156]	; 0x9c
 8000d52:	f043 0304 	orr.w	r3, r3, #4
 8000d56:	f8c0 309c 	str.w	r3, [r0, #156]	; 0x9c
    return HAL_ERROR;
 8000d5a:	2001      	movs	r0, #1
}
 8000d5c:	f85d 4b04 	ldr.w	r4, [sp], #4
 8000d60:	4770      	bx	lr
                             (NonMatchingExt << FDCAN_GFC_ANFE_Pos)  |
 8000d62:	0092      	lsls	r2, r2, #2
    hfdcan->Instance->GFC = ((NonMatchingStd << FDCAN_GFC_ANFS_Pos)  |
 8000d64:	ea42 1201 	orr.w	r2, r2, r1, lsl #4
                             (NonMatchingExt << FDCAN_GFC_ANFE_Pos)  |
 8000d68:	ea42 0243 	orr.w	r2, r2, r3, lsl #1
    hfdcan->Instance->GFC = ((NonMatchingStd << FDCAN_GFC_ANFS_Pos)  |
 8000d6c:	6803      	ldr	r3, [r0, #0]
                             (RejectRemoteStd << FDCAN_GFC_RRFS_Pos) |
 8000d6e:	9901      	ldr	r1, [sp, #4]
 8000d70:	430a      	orrs	r2, r1
    hfdcan->Instance->GFC = ((NonMatchingStd << FDCAN_GFC_ANFS_Pos)  |
 8000d72:	f8c3 2080 	str.w	r2, [r3, #128]	; 0x80
    return HAL_OK;
 8000d76:	2000      	movs	r0, #0
 8000d78:	e7f0      	b.n	8000d5c <HAL_FDCAN_ConfigGlobalFilter+0x1a>

08000d7a <HAL_FDCAN_Start>:
  if (hfdcan->State == HAL_FDCAN_STATE_READY)
 8000d7a:	f890 3098 	ldrb.w	r3, [r0, #152]	; 0x98
 8000d7e:	b2db      	uxtb	r3, r3
 8000d80:	2b01      	cmp	r3, #1
 8000d82:	d007      	beq.n	8000d94 <HAL_FDCAN_Start+0x1a>
    hfdcan->ErrorCode |= HAL_FDCAN_ERROR_NOT_READY;
 8000d84:	f8d0 309c 	ldr.w	r3, [r0, #156]	; 0x9c
 8000d88:	f043 0304 	orr.w	r3, r3, #4
 8000d8c:	f8c0 309c 	str.w	r3, [r0, #156]	; 0x9c
    return HAL_ERROR;
 8000d90:	2001      	movs	r0, #1
}
 8000d92:	4770      	bx	lr
    hfdcan->State = HAL_FDCAN_STATE_BUSY;
 8000d94:	2302      	movs	r3, #2
 8000d96:	f880 3098 	strb.w	r3, [r0, #152]	; 0x98
    CLEAR_BIT(hfdcan->Instance->CCCR, FDCAN_CCCR_INIT);
 8000d9a:	6802      	ldr	r2, [r0, #0]
 8000d9c:	6993      	ldr	r3, [r2, #24]
 8000d9e:	f023 0301 	bic.w	r3, r3, #1
 8000da2:	6193      	str	r3, [r2, #24]
    hfdcan->ErrorCode = HAL_FDCAN_ERROR_NONE;
 8000da4:	2300      	movs	r3, #0
 8000da6:	f8c0 309c 	str.w	r3, [r0, #156]	; 0x9c
    return HAL_OK;
 8000daa:	4618      	mov	r0, r3
 8000dac:	4770      	bx	lr

08000dae <HAL_FDCAN_AddMessageToTxFifoQ>:
{
 8000dae:	b538      	push	{r3, r4, r5, lr}
 8000db0:	4604      	mov	r4, r0
  if (hfdcan->State == HAL_FDCAN_STATE_BUSY)
 8000db2:	f890 3098 	ldrb.w	r3, [r0, #152]	; 0x98
 8000db6:	b2db      	uxtb	r3, r3
 8000db8:	2b02      	cmp	r3, #2
 8000dba:	d12b      	bne.n	8000e14 <HAL_FDCAN_AddMessageToTxFifoQ+0x66>
    if ((hfdcan->Instance->TXBC & FDCAN_TXBC_TFQS) == 0U)
 8000dbc:	6803      	ldr	r3, [r0, #0]
 8000dbe:	f8d3 00c0 	ldr.w	r0, [r3, #192]	; 0xc0
 8000dc2:	f010 5f7c 	tst.w	r0, #1056964608	; 0x3f000000
 8000dc6:	d00c      	beq.n	8000de2 <HAL_FDCAN_AddMessageToTxFifoQ+0x34>
    if ((hfdcan->Instance->TXFQS & FDCAN_TXFQS_TFQF) != 0U)
 8000dc8:	f8d3 00c4 	ldr.w	r0, [r3, #196]	; 0xc4
 8000dcc:	f410 1f00 	tst.w	r0, #2097152	; 0x200000
 8000dd0:	d00f      	beq.n	8000df2 <HAL_FDCAN_AddMessageToTxFifoQ+0x44>
      hfdcan->ErrorCode |= HAL_FDCAN_ERROR_FIFO_FULL;
 8000dd2:	f8d4 309c 	ldr.w	r3, [r4, #156]	; 0x9c
 8000dd6:	f443 7300 	orr.w	r3, r3, #512	; 0x200
 8000dda:	f8c4 309c 	str.w	r3, [r4, #156]	; 0x9c
      return HAL_ERROR;
 8000dde:	2001      	movs	r0, #1
 8000de0:	e01f      	b.n	8000e22 <HAL_FDCAN_AddMessageToTxFifoQ+0x74>
      hfdcan->ErrorCode |= HAL_FDCAN_ERROR_PARAM;
 8000de2:	f8d4 309c 	ldr.w	r3, [r4, #156]	; 0x9c
 8000de6:	f043 0320 	orr.w	r3, r3, #32
 8000dea:	f8c4 309c 	str.w	r3, [r4, #156]	; 0x9c
      return HAL_ERROR;
 8000dee:	2001      	movs	r0, #1
 8000df0:	e017      	b.n	8000e22 <HAL_FDCAN_AddMessageToTxFifoQ+0x74>
      PutIndex = ((hfdcan->Instance->TXFQS & FDCAN_TXFQS_TFQPI) >> FDCAN_TXFQS_TFQPI_Pos);
 8000df2:	f8d3 50c4 	ldr.w	r5, [r3, #196]	; 0xc4
 8000df6:	f3c5 4504 	ubfx	r5, r5, #16, #5
      FDCAN_CopyMessageToRAM(hfdcan, pTxHeader, pTxData, PutIndex);
 8000dfa:	462b      	mov	r3, r5
 8000dfc:	4620      	mov	r0, r4
 8000dfe:	f7ff fdd3 	bl	80009a8 <FDCAN_CopyMessageToRAM>
      hfdcan->Instance->TXBAR = ((uint32_t)1 << PutIndex);
 8000e02:	6822      	ldr	r2, [r4, #0]
 8000e04:	2301      	movs	r3, #1
 8000e06:	40ab      	lsls	r3, r5
 8000e08:	f8c2 30d0 	str.w	r3, [r2, #208]	; 0xd0
      hfdcan->LatestTxFifoQRequest = ((uint32_t)1 << PutIndex);
 8000e0c:	f8c4 3094 	str.w	r3, [r4, #148]	; 0x94
    return HAL_OK;
 8000e10:	2000      	movs	r0, #0
 8000e12:	e006      	b.n	8000e22 <HAL_FDCAN_AddMessageToTxFifoQ+0x74>
    hfdcan->ErrorCode |= HAL_FDCAN_ERROR_NOT_STARTED;
 8000e14:	f8d0 309c 	ldr.w	r3, [r0, #156]	; 0x9c
 8000e18:	f043 0308 	orr.w	r3, r3, #8
 8000e1c:	f8c0 309c 	str.w	r3, [r0, #156]	; 0x9c
    return HAL_ERROR;
 8000e20:	2001      	movs	r0, #1
}
 8000e22:	bd38      	pop	{r3, r4, r5, pc}

08000e24 <HAL_FDCAN_GetRxMessage>:
{
 8000e24:	b4f0      	push	{r4, r5, r6, r7}
  HAL_FDCAN_StateTypeDef state = hfdcan->State;
 8000e26:	f890 4098 	ldrb.w	r4, [r0, #152]	; 0x98
 8000e2a:	b2e4      	uxtb	r4, r4
  if (state == HAL_FDCAN_STATE_BUSY)
 8000e2c:	2c02      	cmp	r4, #2
 8000e2e:	f040 80d2 	bne.w	8000fd6 <HAL_FDCAN_GetRxMessage+0x1b2>
    if (RxLocation == FDCAN_RX_FIFO0) /* Rx element is assigned to the Rx FIFO 0 */
 8000e32:	2940      	cmp	r1, #64	; 0x40
 8000e34:	d00c      	beq.n	8000e50 <HAL_FDCAN_GetRxMessage+0x2c>
    else if (RxLocation == FDCAN_RX_FIFO1) /* Rx element is assigned to the Rx FIFO 1 */
 8000e36:	2941      	cmp	r1, #65	; 0x41
 8000e38:	d03c      	beq.n	8000eb4 <HAL_FDCAN_GetRxMessage+0x90>
      if (RxLocation >= hfdcan->Init.RxBuffersNbr)
 8000e3a:	6d04      	ldr	r4, [r0, #80]	; 0x50
 8000e3c:	428c      	cmp	r4, r1
 8000e3e:	d86b      	bhi.n	8000f18 <HAL_FDCAN_GetRxMessage+0xf4>
        hfdcan->ErrorCode |= HAL_FDCAN_ERROR_PARAM;
 8000e40:	f8d0 309c 	ldr.w	r3, [r0, #156]	; 0x9c
 8000e44:	f043 0320 	orr.w	r3, r3, #32
 8000e48:	f8c0 309c 	str.w	r3, [r0, #156]	; 0x9c
        return HAL_ERROR;
 8000e4c:	2001      	movs	r0, #1
 8000e4e:	e0c9      	b.n	8000fe4 <HAL_FDCAN_GetRxMessage+0x1c0>
      if ((hfdcan->Instance->RXF0C & FDCAN_RXF0C_F0S) == 0U)
 8000e50:	6804      	ldr	r4, [r0, #0]
 8000e52:	f8d4 50a0 	ldr.w	r5, [r4, #160]	; 0xa0
 8000e56:	f415 0ffe 	tst.w	r5, #8323072	; 0x7f0000
 8000e5a:	d00c      	beq.n	8000e76 <HAL_FDCAN_GetRxMessage+0x52>
      if ((hfdcan->Instance->RXF0S & FDCAN_RXF0S_F0FL) == 0U)
 8000e5c:	f8d4 50a4 	ldr.w	r5, [r4, #164]	; 0xa4
 8000e60:	f015 0f7f 	tst.w	r5, #127	; 0x7f
 8000e64:	d10f      	bne.n	8000e86 <HAL_FDCAN_GetRxMessage+0x62>
        hfdcan->ErrorCode |= HAL_FDCAN_ERROR_FIFO_EMPTY;
 8000e66:	f8d0 309c 	ldr.w	r3, [r0, #156]	; 0x9c
 8000e6a:	f443 7380 	orr.w	r3, r3, #256	; 0x100
 8000e6e:	f8c0 309c 	str.w	r3, [r0, #156]	; 0x9c
        return HAL_ERROR;
 8000e72:	2001      	movs	r0, #1
 8000e74:	e0b6      	b.n	8000fe4 <HAL_FDCAN_GetRxMessage+0x1c0>
        hfdcan->ErrorCode |= HAL_FDCAN_ERROR_PARAM;
 8000e76:	f8d0 309c 	ldr.w	r3, [r0, #156]	; 0x9c
 8000e7a:	f043 0320 	orr.w	r3, r3, #32
 8000e7e:	f8c0 309c 	str.w	r3, [r0, #156]	; 0x9c
        return HAL_ERROR;
 8000e82:	2001      	movs	r0, #1
 8000e84:	e0ae      	b.n	8000fe4 <HAL_FDCAN_GetRxMessage+0x1c0>
        if(((hfdcan->Instance->RXF0S & FDCAN_RXF0S_F0F) >> FDCAN_RXF0S_F0F_Pos) == 1U)
 8000e86:	f8d4 50a4 	ldr.w	r5, [r4, #164]	; 0xa4
 8000e8a:	f3c5 6c00 	ubfx	ip, r5, #24, #1
 8000e8e:	f015 7f80 	tst.w	r5, #16777216	; 0x1000000
 8000e92:	d003      	beq.n	8000e9c <HAL_FDCAN_GetRxMessage+0x78>
          if(((hfdcan->Instance->RXF0C & FDCAN_RXF0C_F0OM) >> FDCAN_RXF0C_F0OM_Pos) == FDCAN_RX_FIFO_OVERWRITE)
 8000e94:	f8d4 50a0 	ldr.w	r5, [r4, #160]	; 0xa0
  uint32_t GetIndex = 0;
 8000e98:	f04f 0c00 	mov.w	ip, #0
        GetIndex += ((hfdcan->Instance->RXF0S & FDCAN_RXF0S_F0GI) >> FDCAN_RXF0S_F0GI_Pos);
 8000e9c:	f8d4 40a4 	ldr.w	r4, [r4, #164]	; 0xa4
 8000ea0:	f3c4 2405 	ubfx	r4, r4, #8, #6
 8000ea4:	44a4      	add	ip, r4
        RxAddress = (uint32_t *)(hfdcan->msgRam.RxFIFO0SA + (GetIndex * hfdcan->Init.RxFifo0ElmtSize * 4U));
 8000ea6:	6f44      	ldr	r4, [r0, #116]	; 0x74
 8000ea8:	6c45      	ldr	r5, [r0, #68]	; 0x44
 8000eaa:	fb0c f505 	mul.w	r5, ip, r5
 8000eae:	eb04 0485 	add.w	r4, r4, r5, lsl #2
 8000eb2:	e039      	b.n	8000f28 <HAL_FDCAN_GetRxMessage+0x104>
      if ((hfdcan->Instance->RXF1C & FDCAN_RXF1C_F1S) == 0U)
 8000eb4:	6804      	ldr	r4, [r0, #0]
 8000eb6:	f8d4 50b0 	ldr.w	r5, [r4, #176]	; 0xb0
 8000eba:	f415 0ffe 	tst.w	r5, #8323072	; 0x7f0000
 8000ebe:	d00c      	beq.n	8000eda <HAL_FDCAN_GetRxMessage+0xb6>
      if ((hfdcan->Instance->RXF1S & FDCAN_RXF1S_F1FL) == 0U)
 8000ec0:	f8d4 50b4 	ldr.w	r5, [r4, #180]	; 0xb4
 8000ec4:	f015 0f7f 	tst.w	r5, #127	; 0x7f
 8000ec8:	d10f      	bne.n	8000eea <HAL_FDCAN_GetRxMessage+0xc6>
        hfdcan->ErrorCode |= HAL_FDCAN_ERROR_FIFO_EMPTY;
 8000eca:	f8d0 309c 	ldr.w	r3, [r0, #156]	; 0x9c
 8000ece:	f443 7380 	orr.w	r3, r3, #256	; 0x100
 8000ed2:	f8c0 309c 	str.w	r3, [r0, #156]	; 0x9c
        return HAL_ERROR;
 8000ed6:	2001      	movs	r0, #1
 8000ed8:	e084      	b.n	8000fe4 <HAL_FDCAN_GetRxMessage+0x1c0>
        hfdcan->ErrorCode |= HAL_FDCAN_ERROR_PARAM;
 8000eda:	f8d0 309c 	ldr.w	r3, [r0, #156]	; 0x9c
 8000ede:	f043 0320 	orr.w	r3, r3, #32
 8000ee2:	f8c0 309c 	str.w	r3, [r0, #156]	; 0x9c
        return HAL_ERROR;
 8000ee6:	2001      	movs	r0, #1
 8000ee8:	e07c      	b.n	8000fe4 <HAL_FDCAN_GetRxMessage+0x1c0>
        if(((hfdcan->Instance->RXF1S & FDCAN_RXF1S_F1F) >> FDCAN_RXF1S_F1F_Pos) == 1U)
 8000eea:	f8d4 50b4 	ldr.w	r5, [r4, #180]	; 0xb4
 8000eee:	f3c5 6c00 	ubfx	ip, r5, #24, #1
 8000ef2:	f015 7f80 	tst.w	r5, #16777216	; 0x1000000
 8000ef6:	d003      	beq.n	8000f00 <HAL_FDCAN_GetRxMessage+0xdc>
          if(((hfdcan->Instance->RXF1C & FDCAN_RXF1C_F1OM) >> FDCAN_RXF1C_F1OM_Pos) == FDCAN_RX_FIFO_OVERWRITE)
 8000ef8:	f8d4 50b0 	ldr.w	r5, [r4, #176]	; 0xb0
  uint32_t GetIndex = 0;
 8000efc:	f04f 0c00 	mov.w	ip, #0
        GetIndex += ((hfdcan->Instance->RXF1S & FDCAN_RXF1S_F1GI) >> FDCAN_RXF1S_F1GI_Pos);
 8000f00:	f8d4 40b4 	ldr.w	r4, [r4, #180]	; 0xb4
 8000f04:	f3c4 2405 	ubfx	r4, r4, #8, #6
 8000f08:	44a4      	add	ip, r4
        RxAddress = (uint32_t *)(hfdcan->msgRam.RxFIFO1SA + (GetIndex * hfdcan->Init.RxFifo1ElmtSize * 4U));
 8000f0a:	6f84      	ldr	r4, [r0, #120]	; 0x78
 8000f0c:	6cc5      	ldr	r5, [r0, #76]	; 0x4c
 8000f0e:	fb0c f505 	mul.w	r5, ip, r5
 8000f12:	eb04 0485 	add.w	r4, r4, r5, lsl #2
 8000f16:	e007      	b.n	8000f28 <HAL_FDCAN_GetRxMessage+0x104>
        RxAddress = (uint32_t *)(hfdcan->msgRam.RxBufferSA + (RxLocation * hfdcan->Init.RxBufferSize * 4U));
 8000f18:	6fc4      	ldr	r4, [r0, #124]	; 0x7c
 8000f1a:	6d45      	ldr	r5, [r0, #84]	; 0x54
 8000f1c:	fb01 f505 	mul.w	r5, r1, r5
 8000f20:	eb04 0485 	add.w	r4, r4, r5, lsl #2
  uint32_t GetIndex = 0;
 8000f24:	f04f 0c00 	mov.w	ip, #0
    pRxHeader->IdType = *RxAddress & FDCAN_ELEMENT_MASK_XTD;
 8000f28:	6825      	ldr	r5, [r4, #0]
 8000f2a:	f005 4580 	and.w	r5, r5, #1073741824	; 0x40000000
 8000f2e:	6055      	str	r5, [r2, #4]
    if (pRxHeader->IdType == FDCAN_STANDARD_ID) /* Standard ID element */
 8000f30:	2d00      	cmp	r5, #0
 8000f32:	d12c      	bne.n	8000f8e <HAL_FDCAN_GetRxMessage+0x16a>
      pRxHeader->Identifier = ((*RxAddress & FDCAN_ELEMENT_MASK_STDID) >> 18);
 8000f34:	6825      	ldr	r5, [r4, #0]
 8000f36:	f3c5 458a 	ubfx	r5, r5, #18, #11
 8000f3a:	6015      	str	r5, [r2, #0]
    pRxHeader->RxFrameType = (*RxAddress & FDCAN_ELEMENT_MASK_RTR);
 8000f3c:	6825      	ldr	r5, [r4, #0]
 8000f3e:	f005 5500 	and.w	r5, r5, #536870912	; 0x20000000
 8000f42:	6095      	str	r5, [r2, #8]
    pRxHeader->ErrorStateIndicator = (*RxAddress & FDCAN_ELEMENT_MASK_ESI);
 8000f44:	6825      	ldr	r5, [r4, #0]
 8000f46:	f005 4500 	and.w	r5, r5, #2147483648	; 0x80000000
 8000f4a:	6115      	str	r5, [r2, #16]
    pRxHeader->RxTimestamp = (*RxAddress & FDCAN_ELEMENT_MASK_TS);
 8000f4c:	88a5      	ldrh	r5, [r4, #4]
 8000f4e:	61d5      	str	r5, [r2, #28]
    pRxHeader->DataLength = (*RxAddress & FDCAN_ELEMENT_MASK_DLC);
 8000f50:	6865      	ldr	r5, [r4, #4]
 8000f52:	f405 2570 	and.w	r5, r5, #983040	; 0xf0000
 8000f56:	60d5      	str	r5, [r2, #12]
    pRxHeader->BitRateSwitch = (*RxAddress & FDCAN_ELEMENT_MASK_BRS);
 8000f58:	6865      	ldr	r5, [r4, #4]
 8000f5a:	f405 1580 	and.w	r5, r5, #1048576	; 0x100000
 8000f5e:	6155      	str	r5, [r2, #20]
    pRxHeader->FDFormat = (*RxAddress & FDCAN_ELEMENT_MASK_FDF);
 8000f60:	6865      	ldr	r5, [r4, #4]
 8000f62:	f405 1500 	and.w	r5, r5, #2097152	; 0x200000
 8000f66:	6195      	str	r5, [r2, #24]
    pRxHeader->FilterIndex = ((*RxAddress & FDCAN_ELEMENT_MASK_FIDX) >> 24);
 8000f68:	79e5      	ldrb	r5, [r4, #7]
 8000f6a:	f005 057f 	and.w	r5, r5, #127	; 0x7f
 8000f6e:	6215      	str	r5, [r2, #32]
    pRxHeader->IsFilterMatchingFrame = ((*RxAddress & FDCAN_ELEMENT_MASK_ANMF) >> 31);
 8000f70:	6865      	ldr	r5, [r4, #4]
 8000f72:	0fed      	lsrs	r5, r5, #31
 8000f74:	6255      	str	r5, [r2, #36]	; 0x24
    RxAddress++;
 8000f76:	f104 0508 	add.w	r5, r4, #8
    for (ByteCounter = 0; ByteCounter < DLCtoBytes[pRxHeader->DataLength >> 16]; ByteCounter++)
 8000f7a:	2400      	movs	r4, #0
 8000f7c:	89d6      	ldrh	r6, [r2, #14]
 8000f7e:	4f1a      	ldr	r7, [pc, #104]	; (8000fe8 <HAL_FDCAN_GetRxMessage+0x1c4>)
 8000f80:	5dbe      	ldrb	r6, [r7, r6]
 8000f82:	42a6      	cmp	r6, r4
 8000f84:	d908      	bls.n	8000f98 <HAL_FDCAN_GetRxMessage+0x174>
      pRxData[ByteCounter] = pData[ByteCounter];
 8000f86:	5d2e      	ldrb	r6, [r5, r4]
 8000f88:	551e      	strb	r6, [r3, r4]
    for (ByteCounter = 0; ByteCounter < DLCtoBytes[pRxHeader->DataLength >> 16]; ByteCounter++)
 8000f8a:	3401      	adds	r4, #1
 8000f8c:	e7f6      	b.n	8000f7c <HAL_FDCAN_GetRxMessage+0x158>
      pRxHeader->Identifier = (*RxAddress & FDCAN_ELEMENT_MASK_EXTID);
 8000f8e:	6825      	ldr	r5, [r4, #0]
 8000f90:	f025 4560 	bic.w	r5, r5, #3758096384	; 0xe0000000
 8000f94:	6015      	str	r5, [r2, #0]
 8000f96:	e7d1      	b.n	8000f3c <HAL_FDCAN_GetRxMessage+0x118>
    if (RxLocation == FDCAN_RX_FIFO0) /* Rx element is assigned to the Rx FIFO 0 */
 8000f98:	2940      	cmp	r1, #64	; 0x40
 8000f9a:	d00a      	beq.n	8000fb2 <HAL_FDCAN_GetRxMessage+0x18e>
    else if (RxLocation == FDCAN_RX_FIFO1) /* Rx element is assigned to the Rx FIFO 1 */
 8000f9c:	2941      	cmp	r1, #65	; 0x41
 8000f9e:	d00d      	beq.n	8000fbc <HAL_FDCAN_GetRxMessage+0x198>
      if (RxLocation < FDCAN_RX_BUFFER32)
 8000fa0:	291f      	cmp	r1, #31
 8000fa2:	d80f      	bhi.n	8000fc4 <HAL_FDCAN_GetRxMessage+0x1a0>
        hfdcan->Instance->NDAT1 = ((uint32_t)1 << RxLocation);
 8000fa4:	6802      	ldr	r2, [r0, #0]
 8000fa6:	2301      	movs	r3, #1
 8000fa8:	fa03 f101 	lsl.w	r1, r3, r1
 8000fac:	f8c2 1098 	str.w	r1, [r2, #152]	; 0x98
 8000fb0:	e002      	b.n	8000fb8 <HAL_FDCAN_GetRxMessage+0x194>
      hfdcan->Instance->RXF0A = GetIndex;
 8000fb2:	6803      	ldr	r3, [r0, #0]
 8000fb4:	f8c3 c0a8 	str.w	ip, [r3, #168]	; 0xa8
    return HAL_OK;
 8000fb8:	2000      	movs	r0, #0
 8000fba:	e013      	b.n	8000fe4 <HAL_FDCAN_GetRxMessage+0x1c0>
      hfdcan->Instance->RXF1A = GetIndex;
 8000fbc:	6803      	ldr	r3, [r0, #0]
 8000fbe:	f8c3 c0b8 	str.w	ip, [r3, #184]	; 0xb8
 8000fc2:	e7f9      	b.n	8000fb8 <HAL_FDCAN_GetRxMessage+0x194>
        hfdcan->Instance->NDAT2 = ((uint32_t)1 << (RxLocation & 0x1FU));
 8000fc4:	f001 011f 	and.w	r1, r1, #31
 8000fc8:	6802      	ldr	r2, [r0, #0]
 8000fca:	2301      	movs	r3, #1
 8000fcc:	fa03 f101 	lsl.w	r1, r3, r1
 8000fd0:	f8c2 109c 	str.w	r1, [r2, #156]	; 0x9c
 8000fd4:	e7f0      	b.n	8000fb8 <HAL_FDCAN_GetRxMessage+0x194>
    hfdcan->ErrorCode |= HAL_FDCAN_ERROR_NOT_STARTED;
 8000fd6:	f8d0 309c 	ldr.w	r3, [r0, #156]	; 0x9c
 8000fda:	f043 0308 	orr.w	r3, r3, #8
 8000fde:	f8c0 309c 	str.w	r3, [r0, #156]	; 0x9c
    return HAL_ERROR;
 8000fe2:	2001      	movs	r0, #1
}
 8000fe4:	bcf0      	pop	{r4, r5, r6, r7}
 8000fe6:	4770      	bx	lr
 8000fe8:	08009258 	.word	0x08009258

08000fec <HAL_FDCAN_ActivateNotification>:
  HAL_FDCAN_StateTypeDef state = hfdcan->State;
 8000fec:	f890 3098 	ldrb.w	r3, [r0, #152]	; 0x98
  if ((state == HAL_FDCAN_STATE_READY) || (state == HAL_FDCAN_STATE_BUSY))
 8000ff0:	3b01      	subs	r3, #1
 8000ff2:	b2db      	uxtb	r3, r3
 8000ff4:	2b01      	cmp	r3, #1
 8000ff6:	d907      	bls.n	8001008 <HAL_FDCAN_ActivateNotification+0x1c>
    hfdcan->ErrorCode |= HAL_FDCAN_ERROR_NOT_INITIALIZED;
 8000ff8:	f8d0 309c 	ldr.w	r3, [r0, #156]	; 0x9c
 8000ffc:	f043 0302 	orr.w	r3, r3, #2
 8001000:	f8c0 309c 	str.w	r3, [r0, #156]	; 0x9c
    return HAL_ERROR;
 8001004:	2001      	movs	r0, #1
}
 8001006:	4770      	bx	lr
{
 8001008:	b410      	push	{r4}
    if ((ActiveITs & hfdcan->Instance->ILS) == 0U)
 800100a:	6803      	ldr	r3, [r0, #0]
 800100c:	6d9c      	ldr	r4, [r3, #88]	; 0x58
 800100e:	420c      	tst	r4, r1
 8001010:	d124      	bne.n	800105c <HAL_FDCAN_ActivateNotification+0x70>
      SET_BIT(hfdcan->Instance->ILE, FDCAN_INTERRUPT_LINE0);
 8001012:	6ddc      	ldr	r4, [r3, #92]	; 0x5c
 8001014:	f044 0401 	orr.w	r4, r4, #1
 8001018:	65dc      	str	r4, [r3, #92]	; 0x5c
    if ((ActiveITs & FDCAN_IT_TX_COMPLETE) != 0U)
 800101a:	f411 7f00 	tst.w	r1, #512	; 0x200
 800101e:	d005      	beq.n	800102c <HAL_FDCAN_ActivateNotification+0x40>
      SET_BIT(hfdcan->Instance->TXBTIE, BufferIndexes);
 8001020:	6804      	ldr	r4, [r0, #0]
 8001022:	f8d4 30e0 	ldr.w	r3, [r4, #224]	; 0xe0
 8001026:	4313      	orrs	r3, r2
 8001028:	f8c4 30e0 	str.w	r3, [r4, #224]	; 0xe0
    if ((ActiveITs & FDCAN_IT_TX_ABORT_COMPLETE) != 0U)
 800102c:	f411 6f80 	tst.w	r1, #1024	; 0x400
 8001030:	d005      	beq.n	800103e <HAL_FDCAN_ActivateNotification+0x52>
      SET_BIT(hfdcan->Instance->TXBCIE, BufferIndexes);
 8001032:	6804      	ldr	r4, [r0, #0]
 8001034:	f8d4 30e4 	ldr.w	r3, [r4, #228]	; 0xe4
 8001038:	431a      	orrs	r2, r3
 800103a:	f8c4 20e4 	str.w	r2, [r4, #228]	; 0xe4
    __HAL_FDCAN_ENABLE_IT(hfdcan, ActiveITs);
 800103e:	6800      	ldr	r0, [r0, #0]
 8001040:	6d43      	ldr	r3, [r0, #84]	; 0x54
 8001042:	4a0c      	ldr	r2, [pc, #48]	; (8001074 <HAL_FDCAN_ActivateNotification+0x88>)
 8001044:	400a      	ands	r2, r1
 8001046:	4313      	orrs	r3, r2
 8001048:	6543      	str	r3, [r0, #84]	; 0x54
 800104a:	4a0b      	ldr	r2, [pc, #44]	; (8001078 <HAL_FDCAN_ActivateNotification+0x8c>)
 800104c:	6953      	ldr	r3, [r2, #20]
 800104e:	ea43 7191 	orr.w	r1, r3, r1, lsr #30
 8001052:	6151      	str	r1, [r2, #20]
    return HAL_OK;
 8001054:	2000      	movs	r0, #0
}
 8001056:	f85d 4b04 	ldr.w	r4, [sp], #4
 800105a:	4770      	bx	lr
    else if ((ActiveITs & hfdcan->Instance->ILS) == ActiveITs)
 800105c:	6d9c      	ldr	r4, [r3, #88]	; 0x58
 800105e:	ea31 0404 	bics.w	r4, r1, r4
 8001062:	d002      	beq.n	800106a <HAL_FDCAN_ActivateNotification+0x7e>
      hfdcan->Instance->ILE = (FDCAN_INTERRUPT_LINE0 | FDCAN_INTERRUPT_LINE1);
 8001064:	2403      	movs	r4, #3
 8001066:	65dc      	str	r4, [r3, #92]	; 0x5c
 8001068:	e7d7      	b.n	800101a <HAL_FDCAN_ActivateNotification+0x2e>
      SET_BIT(hfdcan->Instance->ILE, FDCAN_INTERRUPT_LINE1);
 800106a:	6ddc      	ldr	r4, [r3, #92]	; 0x5c
 800106c:	f044 0402 	orr.w	r4, r4, #2
 8001070:	65dc      	str	r4, [r3, #92]	; 0x5c
 8001072:	e7d2      	b.n	800101a <HAL_FDCAN_ActivateNotification+0x2e>
 8001074:	3fcfffff 	.word	0x3fcfffff
 8001078:	4000a800 	.word	0x4000a800

0800107c <HAL_FDCAN_ClockCalibrationCallback>:
}
 800107c:	4770      	bx	lr

0800107e <HAL_FDCAN_TxEventFifoCallback>:
}
 800107e:	4770      	bx	lr

08001080 <HAL_FDCAN_RxFifo1Callback>:
}
 8001080:	4770      	bx	lr

08001082 <HAL_FDCAN_TxFifoEmptyCallback>:
}
 8001082:	4770      	bx	lr

08001084 <HAL_FDCAN_TxBufferCompleteCallback>:
}
 8001084:	4770      	bx	lr

08001086 <HAL_FDCAN_TxBufferAbortCallback>:
}
 8001086:	4770      	bx	lr

08001088 <HAL_FDCAN_RxBufferNewMessageCallback>:
}
 8001088:	4770      	bx	lr

0800108a <HAL_FDCAN_TimestampWraparoundCallback>:
}
 800108a:	4770      	bx	lr

0800108c <HAL_FDCAN_TimeoutOccurredCallback>:
}
 800108c:	4770      	bx	lr

0800108e <HAL_FDCAN_HighPriorityMessageCallback>:
}
 800108e:	4770      	bx	lr

08001090 <HAL_FDCAN_ErrorCallback>:
}
 8001090:	4770      	bx	lr

08001092 <HAL_FDCAN_ErrorStatusCallback>:
}
 8001092:	4770      	bx	lr

08001094 <HAL_FDCAN_TT_ScheduleSyncCallback>:
}
 8001094:	4770      	bx	lr

08001096 <HAL_FDCAN_TT_TimeMarkCallback>:
}
 8001096:	4770      	bx	lr

08001098 <HAL_FDCAN_TT_StopWatchCallback>:
}
 8001098:	4770      	bx	lr

0800109a <HAL_FDCAN_TT_GlobalTimeCallback>:
}
 800109a:	4770      	bx	lr

0800109c <HAL_FDCAN_IRQHandler>:
{
 800109c:	e92d 47f0 	stmdb	sp!, {r4, r5, r6, r7, r8, r9, sl, lr}
 80010a0:	4604      	mov	r4, r0
  ClkCalibrationITs = (FDCAN_CCU->IR << 30);
 80010a2:	4b95      	ldr	r3, [pc, #596]	; (80012f8 <HAL_FDCAN_IRQHandler+0x25c>)
 80010a4:	691a      	ldr	r2, [r3, #16]
  ClkCalibrationITs &= (FDCAN_CCU->IE << 30);
 80010a6:	695b      	ldr	r3, [r3, #20]
 80010a8:	ea4f 7a83 	mov.w	sl, r3, lsl #30
 80010ac:	ea0a 7a82 	and.w	sl, sl, r2, lsl #30
  TxEventFifoITs = hfdcan->Instance->IR & FDCAN_TX_EVENT_FIFO_MASK;
 80010b0:	6803      	ldr	r3, [r0, #0]
 80010b2:	6d1a      	ldr	r2, [r3, #80]	; 0x50
 80010b4:	f402 4970 	and.w	r9, r2, #61440	; 0xf000
  TxEventFifoITs &= hfdcan->Instance->IE;
 80010b8:	6d5a      	ldr	r2, [r3, #84]	; 0x54
 80010ba:	ea09 0902 	and.w	r9, r9, r2
  RxFifo0ITs = hfdcan->Instance->IR & FDCAN_RX_FIFO0_MASK;
 80010be:	6d1a      	ldr	r2, [r3, #80]	; 0x50
 80010c0:	f002 080f 	and.w	r8, r2, #15
  RxFifo0ITs &= hfdcan->Instance->IE;
 80010c4:	6d5a      	ldr	r2, [r3, #84]	; 0x54
 80010c6:	ea08 0802 	and.w	r8, r8, r2
  RxFifo1ITs = hfdcan->Instance->IR & FDCAN_RX_FIFO1_MASK;
 80010ca:	6d1f      	ldr	r7, [r3, #80]	; 0x50
 80010cc:	f007 07f0 	and.w	r7, r7, #240	; 0xf0
  RxFifo1ITs &= hfdcan->Instance->IE;
 80010d0:	6d5a      	ldr	r2, [r3, #84]	; 0x54
 80010d2:	4017      	ands	r7, r2
  Errors = hfdcan->Instance->IR & FDCAN_ERROR_MASK;
 80010d4:	6d1d      	ldr	r5, [r3, #80]	; 0x50
 80010d6:	f005 5571 	and.w	r5, r5, #1010827264	; 0x3c400000
  Errors &= hfdcan->Instance->IE;
 80010da:	6d5a      	ldr	r2, [r3, #84]	; 0x54
 80010dc:	4015      	ands	r5, r2
  ErrorStatusITs = hfdcan->Instance->IR & FDCAN_ERROR_STATUS_MASK;
 80010de:	6d1e      	ldr	r6, [r3, #80]	; 0x50
 80010e0:	f006 7660 	and.w	r6, r6, #58720256	; 0x3800000
  ErrorStatusITs &= hfdcan->Instance->IE;
 80010e4:	6d5a      	ldr	r2, [r3, #84]	; 0x54
 80010e6:	4016      	ands	r6, r2
  if (__HAL_FDCAN_GET_IT_SOURCE(hfdcan, FDCAN_IT_RX_HIGH_PRIORITY_MSG) != 0U)
 80010e8:	6d5a      	ldr	r2, [r3, #84]	; 0x54
 80010ea:	f412 7f80 	tst.w	r2, #256	; 0x100
 80010ee:	d003      	beq.n	80010f8 <HAL_FDCAN_IRQHandler+0x5c>
    if (__HAL_FDCAN_GET_FLAG(hfdcan, FDCAN_FLAG_RX_HIGH_PRIORITY_MSG) != 0U)
 80010f0:	6d1a      	ldr	r2, [r3, #80]	; 0x50
 80010f2:	f412 7f80 	tst.w	r2, #256	; 0x100
 80010f6:	d178      	bne.n	80011ea <HAL_FDCAN_IRQHandler+0x14e>
  if (__HAL_FDCAN_GET_IT_SOURCE(hfdcan, FDCAN_IT_TX_ABORT_COMPLETE) != 0U)
 80010f8:	6823      	ldr	r3, [r4, #0]
 80010fa:	6d5a      	ldr	r2, [r3, #84]	; 0x54
 80010fc:	f412 6f80 	tst.w	r2, #1024	; 0x400
 8001100:	d003      	beq.n	800110a <HAL_FDCAN_IRQHandler+0x6e>
    if (__HAL_FDCAN_GET_FLAG(hfdcan, FDCAN_FLAG_TX_ABORT_COMPLETE) != 0U)
 8001102:	6d1a      	ldr	r2, [r3, #80]	; 0x50
 8001104:	f412 6f80 	tst.w	r2, #1024	; 0x400
 8001108:	d178      	bne.n	80011fc <HAL_FDCAN_IRQHandler+0x160>
  if (ClkCalibrationITs != 0U)
 800110a:	f1ba 0f00 	cmp.w	sl, #0
 800110e:	f040 8084 	bne.w	800121a <HAL_FDCAN_IRQHandler+0x17e>
  if (TxEventFifoITs != 0U)
 8001112:	f1b9 0f00 	cmp.w	r9, #0
 8001116:	f040 808c 	bne.w	8001232 <HAL_FDCAN_IRQHandler+0x196>
  if (RxFifo0ITs != 0U)
 800111a:	f1b8 0f00 	cmp.w	r8, #0
 800111e:	f040 8094 	bne.w	800124a <HAL_FDCAN_IRQHandler+0x1ae>
  if (RxFifo1ITs != 0U)
 8001122:	2f00      	cmp	r7, #0
 8001124:	f040 809d 	bne.w	8001262 <HAL_FDCAN_IRQHandler+0x1c6>
  if (__HAL_FDCAN_GET_IT_SOURCE(hfdcan, FDCAN_IT_TX_FIFO_EMPTY) != 0U)
 8001128:	6823      	ldr	r3, [r4, #0]
 800112a:	6d5a      	ldr	r2, [r3, #84]	; 0x54
 800112c:	f412 6f00 	tst.w	r2, #2048	; 0x800
 8001130:	d004      	beq.n	800113c <HAL_FDCAN_IRQHandler+0xa0>
    if (__HAL_FDCAN_GET_FLAG(hfdcan, FDCAN_FLAG_TX_FIFO_EMPTY) != 0U)
 8001132:	6d1a      	ldr	r2, [r3, #80]	; 0x50
 8001134:	f412 6f00 	tst.w	r2, #2048	; 0x800
 8001138:	f040 809d 	bne.w	8001276 <HAL_FDCAN_IRQHandler+0x1da>
  if (__HAL_FDCAN_GET_IT_SOURCE(hfdcan, FDCAN_IT_TX_COMPLETE) != 0U)
 800113c:	6823      	ldr	r3, [r4, #0]
 800113e:	6d5a      	ldr	r2, [r3, #84]	; 0x54
 8001140:	f412 7f00 	tst.w	r2, #512	; 0x200
 8001144:	d004      	beq.n	8001150 <HAL_FDCAN_IRQHandler+0xb4>
    if (__HAL_FDCAN_GET_FLAG(hfdcan, FDCAN_FLAG_TX_COMPLETE) != 0U)
 8001146:	6d1a      	ldr	r2, [r3, #80]	; 0x50
 8001148:	f412 7f00 	tst.w	r2, #512	; 0x200
 800114c:	f040 809d 	bne.w	800128a <HAL_FDCAN_IRQHandler+0x1ee>
  if (__HAL_FDCAN_GET_IT_SOURCE(hfdcan, FDCAN_IT_RX_BUFFER_NEW_MESSAGE) != 0U)
 8001150:	6823      	ldr	r3, [r4, #0]
 8001152:	6d5a      	ldr	r2, [r3, #84]	; 0x54
 8001154:	f412 2f00 	tst.w	r2, #524288	; 0x80000
 8001158:	d004      	beq.n	8001164 <HAL_FDCAN_IRQHandler+0xc8>
    if (__HAL_FDCAN_GET_FLAG(hfdcan, FDCAN_FLAG_RX_BUFFER_NEW_MESSAGE) != 0U)
 800115a:	6d1a      	ldr	r2, [r3, #80]	; 0x50
 800115c:	f412 2f00 	tst.w	r2, #524288	; 0x80000
 8001160:	f040 80a2 	bne.w	80012a8 <HAL_FDCAN_IRQHandler+0x20c>
  if (__HAL_FDCAN_GET_IT_SOURCE(hfdcan, FDCAN_IT_TIMESTAMP_WRAPAROUND) != 0U)
 8001164:	6823      	ldr	r3, [r4, #0]
 8001166:	6d5a      	ldr	r2, [r3, #84]	; 0x54
 8001168:	f412 3f80 	tst.w	r2, #65536	; 0x10000
 800116c:	d004      	beq.n	8001178 <HAL_FDCAN_IRQHandler+0xdc>
    if (__HAL_FDCAN_GET_FLAG(hfdcan, FDCAN_FLAG_TIMESTAMP_WRAPAROUND) != 0U)
 800116e:	6d1a      	ldr	r2, [r3, #80]	; 0x50
 8001170:	f412 3f80 	tst.w	r2, #65536	; 0x10000
 8001174:	f040 80a2 	bne.w	80012bc <HAL_FDCAN_IRQHandler+0x220>
  if (__HAL_FDCAN_GET_IT_SOURCE(hfdcan, FDCAN_IT_TIMEOUT_OCCURRED) != 0U)
 8001178:	6823      	ldr	r3, [r4, #0]
 800117a:	6d5a      	ldr	r2, [r3, #84]	; 0x54
 800117c:	f412 2f80 	tst.w	r2, #262144	; 0x40000
 8001180:	d004      	beq.n	800118c <HAL_FDCAN_IRQHandler+0xf0>
    if (__HAL_FDCAN_GET_FLAG(hfdcan, FDCAN_FLAG_TIMEOUT_OCCURRED) != 0U)
 8001182:	6d1a      	ldr	r2, [r3, #80]	; 0x50
 8001184:	f412 2f80 	tst.w	r2, #262144	; 0x40000
 8001188:	f040 80a2 	bne.w	80012d0 <HAL_FDCAN_IRQHandler+0x234>
  if (__HAL_FDCAN_GET_IT_SOURCE(hfdcan, FDCAN_IT_RAM_ACCESS_FAILURE) != 0U)
 800118c:	6823      	ldr	r3, [r4, #0]
 800118e:	6d5a      	ldr	r2, [r3, #84]	; 0x54
 8001190:	f412 3f00 	tst.w	r2, #131072	; 0x20000
 8001194:	d00f      	beq.n	80011b6 <HAL_FDCAN_IRQHandler+0x11a>
    if (__HAL_FDCAN_GET_FLAG(hfdcan, FDCAN_FLAG_RAM_ACCESS_FAILURE) != 0U)
 8001196:	6d1a      	ldr	r2, [r3, #80]	; 0x50
 8001198:	f412 3f00 	tst.w	r2, #131072	; 0x20000
 800119c:	d00b      	beq.n	80011b6 <HAL_FDCAN_IRQHandler+0x11a>
      __HAL_FDCAN_CLEAR_FLAG(hfdcan, FDCAN_FLAG_RAM_ACCESS_FAILURE);
 800119e:	f44f 3200 	mov.w	r2, #131072	; 0x20000
 80011a2:	651a      	str	r2, [r3, #80]	; 0x50
 80011a4:	4b54      	ldr	r3, [pc, #336]	; (80012f8 <HAL_FDCAN_IRQHandler+0x25c>)
 80011a6:	2200      	movs	r2, #0
 80011a8:	611a      	str	r2, [r3, #16]
      hfdcan->ErrorCode |= HAL_FDCAN_ERROR_RAM_ACCESS;
 80011aa:	f8d4 309c 	ldr.w	r3, [r4, #156]	; 0x9c
 80011ae:	f043 0380 	orr.w	r3, r3, #128	; 0x80
 80011b2:	f8c4 309c 	str.w	r3, [r4, #156]	; 0x9c
  if (ErrorStatusITs != 0U)
 80011b6:	2e00      	cmp	r6, #0
 80011b8:	f040 8094 	bne.w	80012e4 <HAL_FDCAN_IRQHandler+0x248>
  if (Errors != 0U)
 80011bc:	b14d      	cbz	r5, 80011d2 <HAL_FDCAN_IRQHandler+0x136>
    __HAL_FDCAN_CLEAR_FLAG(hfdcan, Errors);
 80011be:	6823      	ldr	r3, [r4, #0]
 80011c0:	651d      	str	r5, [r3, #80]	; 0x50
 80011c2:	0faa      	lsrs	r2, r5, #30
 80011c4:	4b4c      	ldr	r3, [pc, #304]	; (80012f8 <HAL_FDCAN_IRQHandler+0x25c>)
 80011c6:	611a      	str	r2, [r3, #16]
    hfdcan->ErrorCode |= Errors;
 80011c8:	f8d4 309c 	ldr.w	r3, [r4, #156]	; 0x9c
 80011cc:	431d      	orrs	r5, r3
 80011ce:	f8c4 509c 	str.w	r5, [r4, #156]	; 0x9c
  if (hfdcan->Instance == FDCAN1)
 80011d2:	6822      	ldr	r2, [r4, #0]
 80011d4:	4b49      	ldr	r3, [pc, #292]	; (80012fc <HAL_FDCAN_IRQHandler+0x260>)
 80011d6:	429a      	cmp	r2, r3
 80011d8:	f000 8092 	beq.w	8001300 <HAL_FDCAN_IRQHandler+0x264>
  if (hfdcan->ErrorCode != HAL_FDCAN_ERROR_NONE)
 80011dc:	f8d4 309c 	ldr.w	r3, [r4, #156]	; 0x9c
 80011e0:	2b00      	cmp	r3, #0
 80011e2:	f040 80ed 	bne.w	80013c0 <HAL_FDCAN_IRQHandler+0x324>
}
 80011e6:	e8bd 87f0 	ldmia.w	sp!, {r4, r5, r6, r7, r8, r9, sl, pc}
      __HAL_FDCAN_CLEAR_FLAG(hfdcan, FDCAN_FLAG_RX_HIGH_PRIORITY_MSG);
 80011ea:	f44f 7280 	mov.w	r2, #256	; 0x100
 80011ee:	651a      	str	r2, [r3, #80]	; 0x50
 80011f0:	4b41      	ldr	r3, [pc, #260]	; (80012f8 <HAL_FDCAN_IRQHandler+0x25c>)
 80011f2:	2200      	movs	r2, #0
 80011f4:	611a      	str	r2, [r3, #16]
      HAL_FDCAN_HighPriorityMessageCallback(hfdcan);
 80011f6:	f7ff ff4a 	bl	800108e <HAL_FDCAN_HighPriorityMessageCallback>
 80011fa:	e77d      	b.n	80010f8 <HAL_FDCAN_IRQHandler+0x5c>
      AbortedBuffers = hfdcan->Instance->TXBCF;
 80011fc:	f8d3 10dc 	ldr.w	r1, [r3, #220]	; 0xdc
      AbortedBuffers &= hfdcan->Instance->TXBCIE;
 8001200:	f8d3 20e4 	ldr.w	r2, [r3, #228]	; 0xe4
      __HAL_FDCAN_CLEAR_FLAG(hfdcan, FDCAN_FLAG_TX_ABORT_COMPLETE);
 8001204:	f44f 6080 	mov.w	r0, #1024	; 0x400
 8001208:	6518      	str	r0, [r3, #80]	; 0x50
 800120a:	4b3b      	ldr	r3, [pc, #236]	; (80012f8 <HAL_FDCAN_IRQHandler+0x25c>)
 800120c:	2000      	movs	r0, #0
 800120e:	6118      	str	r0, [r3, #16]
      HAL_FDCAN_TxBufferAbortCallback(hfdcan, AbortedBuffers);
 8001210:	4011      	ands	r1, r2
 8001212:	4620      	mov	r0, r4
 8001214:	f7ff ff37 	bl	8001086 <HAL_FDCAN_TxBufferAbortCallback>
 8001218:	e777      	b.n	800110a <HAL_FDCAN_IRQHandler+0x6e>
    __HAL_FDCAN_CLEAR_FLAG(hfdcan, ClkCalibrationITs);
 800121a:	6823      	ldr	r3, [r4, #0]
 800121c:	2200      	movs	r2, #0
 800121e:	651a      	str	r2, [r3, #80]	; 0x50
 8001220:	ea4f 729a 	mov.w	r2, sl, lsr #30
 8001224:	4b34      	ldr	r3, [pc, #208]	; (80012f8 <HAL_FDCAN_IRQHandler+0x25c>)
 8001226:	611a      	str	r2, [r3, #16]
    HAL_FDCAN_ClockCalibrationCallback(hfdcan, ClkCalibrationITs);
 8001228:	4651      	mov	r1, sl
 800122a:	4620      	mov	r0, r4
 800122c:	f7ff ff26 	bl	800107c <HAL_FDCAN_ClockCalibrationCallback>
 8001230:	e76f      	b.n	8001112 <HAL_FDCAN_IRQHandler+0x76>
    __HAL_FDCAN_CLEAR_FLAG(hfdcan, TxEventFifoITs);
 8001232:	6823      	ldr	r3, [r4, #0]
 8001234:	f8c3 9050 	str.w	r9, [r3, #80]	; 0x50
 8001238:	ea4f 7299 	mov.w	r2, r9, lsr #30
 800123c:	4b2e      	ldr	r3, [pc, #184]	; (80012f8 <HAL_FDCAN_IRQHandler+0x25c>)
 800123e:	611a      	str	r2, [r3, #16]
    HAL_FDCAN_TxEventFifoCallback(hfdcan, TxEventFifoITs);
 8001240:	4649      	mov	r1, r9
 8001242:	4620      	mov	r0, r4
 8001244:	f7ff ff1b 	bl	800107e <HAL_FDCAN_TxEventFifoCallback>
 8001248:	e767      	b.n	800111a <HAL_FDCAN_IRQHandler+0x7e>
    __HAL_FDCAN_CLEAR_FLAG(hfdcan, RxFifo0ITs);
 800124a:	6823      	ldr	r3, [r4, #0]
 800124c:	f8c3 8050 	str.w	r8, [r3, #80]	; 0x50
 8001250:	ea4f 7298 	mov.w	r2, r8, lsr #30
 8001254:	4b28      	ldr	r3, [pc, #160]	; (80012f8 <HAL_FDCAN_IRQHandler+0x25c>)
 8001256:	611a      	str	r2, [r3, #16]
    HAL_FDCAN_RxFifo0Callback(hfdcan, RxFifo0ITs);
 8001258:	4641      	mov	r1, r8
 800125a:	4620      	mov	r0, r4
 800125c:	f006 fa92 	bl	8007784 <HAL_FDCAN_RxFifo0Callback>
 8001260:	e75f      	b.n	8001122 <HAL_FDCAN_IRQHandler+0x86>
    __HAL_FDCAN_CLEAR_FLAG(hfdcan, RxFifo1ITs);
 8001262:	6823      	ldr	r3, [r4, #0]
 8001264:	651f      	str	r7, [r3, #80]	; 0x50
 8001266:	0fba      	lsrs	r2, r7, #30
 8001268:	4b23      	ldr	r3, [pc, #140]	; (80012f8 <HAL_FDCAN_IRQHandler+0x25c>)
 800126a:	611a      	str	r2, [r3, #16]
    HAL_FDCAN_RxFifo1Callback(hfdcan, RxFifo1ITs);
 800126c:	4639      	mov	r1, r7
 800126e:	4620      	mov	r0, r4
 8001270:	f7ff ff06 	bl	8001080 <HAL_FDCAN_RxFifo1Callback>
 8001274:	e758      	b.n	8001128 <HAL_FDCAN_IRQHandler+0x8c>
      __HAL_FDCAN_CLEAR_FLAG(hfdcan, FDCAN_FLAG_TX_FIFO_EMPTY);
 8001276:	f44f 6200 	mov.w	r2, #2048	; 0x800
 800127a:	651a      	str	r2, [r3, #80]	; 0x50
 800127c:	4b1e      	ldr	r3, [pc, #120]	; (80012f8 <HAL_FDCAN_IRQHandler+0x25c>)
 800127e:	2200      	movs	r2, #0
 8001280:	611a      	str	r2, [r3, #16]
      HAL_FDCAN_TxFifoEmptyCallback(hfdcan);
 8001282:	4620      	mov	r0, r4
 8001284:	f7ff fefd 	bl	8001082 <HAL_FDCAN_TxFifoEmptyCallback>
 8001288:	e758      	b.n	800113c <HAL_FDCAN_IRQHandler+0xa0>
      TransmittedBuffers = hfdcan->Instance->TXBTO;
 800128a:	f8d3 10d8 	ldr.w	r1, [r3, #216]	; 0xd8
      TransmittedBuffers &= hfdcan->Instance->TXBTIE;
 800128e:	f8d3 20e0 	ldr.w	r2, [r3, #224]	; 0xe0
      __HAL_FDCAN_CLEAR_FLAG(hfdcan, FDCAN_FLAG_TX_COMPLETE);
 8001292:	f44f 7000 	mov.w	r0, #512	; 0x200
 8001296:	6518      	str	r0, [r3, #80]	; 0x50
 8001298:	4b17      	ldr	r3, [pc, #92]	; (80012f8 <HAL_FDCAN_IRQHandler+0x25c>)
 800129a:	2000      	movs	r0, #0
 800129c:	6118      	str	r0, [r3, #16]
      HAL_FDCAN_TxBufferCompleteCallback(hfdcan, TransmittedBuffers);
 800129e:	4011      	ands	r1, r2
 80012a0:	4620      	mov	r0, r4
 80012a2:	f7ff feef 	bl	8001084 <HAL_FDCAN_TxBufferCompleteCallback>
 80012a6:	e753      	b.n	8001150 <HAL_FDCAN_IRQHandler+0xb4>
      __HAL_FDCAN_CLEAR_FLAG(hfdcan, FDCAN_FLAG_RX_BUFFER_NEW_MESSAGE);
 80012a8:	f44f 2200 	mov.w	r2, #524288	; 0x80000
 80012ac:	651a      	str	r2, [r3, #80]	; 0x50
 80012ae:	4b12      	ldr	r3, [pc, #72]	; (80012f8 <HAL_FDCAN_IRQHandler+0x25c>)
 80012b0:	2200      	movs	r2, #0
 80012b2:	611a      	str	r2, [r3, #16]
      HAL_FDCAN_RxBufferNewMessageCallback(hfdcan);
 80012b4:	4620      	mov	r0, r4
 80012b6:	f7ff fee7 	bl	8001088 <HAL_FDCAN_RxBufferNewMessageCallback>
 80012ba:	e753      	b.n	8001164 <HAL_FDCAN_IRQHandler+0xc8>
      __HAL_FDCAN_CLEAR_FLAG(hfdcan, FDCAN_FLAG_TIMESTAMP_WRAPAROUND);
 80012bc:	f44f 3280 	mov.w	r2, #65536	; 0x10000
 80012c0:	651a      	str	r2, [r3, #80]	; 0x50
 80012c2:	4b0d      	ldr	r3, [pc, #52]	; (80012f8 <HAL_FDCAN_IRQHandler+0x25c>)
 80012c4:	2200      	movs	r2, #0
 80012c6:	611a      	str	r2, [r3, #16]
      HAL_FDCAN_TimestampWraparoundCallback(hfdcan);
 80012c8:	4620      	mov	r0, r4
 80012ca:	f7ff fede 	bl	800108a <HAL_FDCAN_TimestampWraparoundCallback>
 80012ce:	e753      	b.n	8001178 <HAL_FDCAN_IRQHandler+0xdc>
      __HAL_FDCAN_CLEAR_FLAG(hfdcan, FDCAN_FLAG_TIMEOUT_OCCURRED);
 80012d0:	f44f 2280 	mov.w	r2, #262144	; 0x40000
 80012d4:	651a      	str	r2, [r3, #80]	; 0x50
 80012d6:	4b08      	ldr	r3, [pc, #32]	; (80012f8 <HAL_FDCAN_IRQHandler+0x25c>)
 80012d8:	2200      	movs	r2, #0
 80012da:	611a      	str	r2, [r3, #16]
      HAL_FDCAN_TimeoutOccurredCallback(hfdcan);
 80012dc:	4620      	mov	r0, r4
 80012de:	f7ff fed5 	bl	800108c <HAL_FDCAN_TimeoutOccurredCallback>
 80012e2:	e753      	b.n	800118c <HAL_FDCAN_IRQHandler+0xf0>
    __HAL_FDCAN_CLEAR_FLAG(hfdcan, ErrorStatusITs);
 80012e4:	6823      	ldr	r3, [r4, #0]
 80012e6:	651e      	str	r6, [r3, #80]	; 0x50
 80012e8:	0fb2      	lsrs	r2, r6, #30
 80012ea:	4b03      	ldr	r3, [pc, #12]	; (80012f8 <HAL_FDCAN_IRQHandler+0x25c>)
 80012ec:	611a      	str	r2, [r3, #16]
    HAL_FDCAN_ErrorStatusCallback(hfdcan, ErrorStatusITs);
 80012ee:	4631      	mov	r1, r6
 80012f0:	4620      	mov	r0, r4
 80012f2:	f7ff fece 	bl	8001092 <HAL_FDCAN_ErrorStatusCallback>
 80012f6:	e761      	b.n	80011bc <HAL_FDCAN_IRQHandler+0x120>
 80012f8:	4000a800 	.word	0x4000a800
 80012fc:	4000a000 	.word	0x4000a000
    if ((hfdcan->ttcan->TTOCF & FDCAN_TTOCF_OM) != 0U)
 8001300:	6863      	ldr	r3, [r4, #4]
 8001302:	689a      	ldr	r2, [r3, #8]
 8001304:	f012 0f03 	tst.w	r2, #3
 8001308:	f43f af68 	beq.w	80011dc <HAL_FDCAN_IRQHandler+0x140>
      TTSchedSyncITs = hfdcan->ttcan->TTIR & FDCAN_TT_SCHEDULE_SYNC_MASK;
 800130c:	6a19      	ldr	r1, [r3, #32]
 800130e:	f001 010f 	and.w	r1, r1, #15
      TTSchedSyncITs &= hfdcan->ttcan->TTIE;
 8001312:	6a5a      	ldr	r2, [r3, #36]	; 0x24
      TTTimeMarkITs = hfdcan->ttcan->TTIR & FDCAN_TT_TIME_MARK_MASK;
 8001314:	6a18      	ldr	r0, [r3, #32]
 8001316:	f000 0830 	and.w	r8, r0, #48	; 0x30
      TTTimeMarkITs &= hfdcan->ttcan->TTIE;
 800131a:	6a58      	ldr	r0, [r3, #36]	; 0x24
 800131c:	ea08 0800 	and.w	r8, r8, r0
      TTGlobTimeITs = hfdcan->ttcan->TTIR & FDCAN_TT_GLOBAL_TIME_MASK;
 8001320:	6a1f      	ldr	r7, [r3, #32]
 8001322:	f407 77c0 	and.w	r7, r7, #384	; 0x180
      TTGlobTimeITs &= hfdcan->ttcan->TTIE;
 8001326:	6a58      	ldr	r0, [r3, #36]	; 0x24
 8001328:	4007      	ands	r7, r0
      TTDistErrors = hfdcan->ttcan->TTIR & FDCAN_TT_DISTURBING_ERROR_MASK;
 800132a:	6a1e      	ldr	r6, [r3, #32]
 800132c:	f406 46fc 	and.w	r6, r6, #32256	; 0x7e00
      TTDistErrors &= hfdcan->ttcan->TTIE;
 8001330:	6a58      	ldr	r0, [r3, #36]	; 0x24
 8001332:	4006      	ands	r6, r0
      TTFatalErrors = hfdcan->ttcan->TTIR & FDCAN_TT_FATAL_ERROR_MASK;
 8001334:	6a1d      	ldr	r5, [r3, #32]
 8001336:	f405 25f0 	and.w	r5, r5, #491520	; 0x78000
      TTFatalErrors &= hfdcan->ttcan->TTIE;
 800133a:	6a58      	ldr	r0, [r3, #36]	; 0x24
 800133c:	4005      	ands	r5, r0
      if (TTSchedSyncITs != 0U)
 800133e:	4011      	ands	r1, r2
 8001340:	d11f      	bne.n	8001382 <HAL_FDCAN_IRQHandler+0x2e6>
      if (TTTimeMarkITs != 0U)
 8001342:	f1b8 0f00 	cmp.w	r8, #0
 8001346:	d121      	bne.n	800138c <HAL_FDCAN_IRQHandler+0x2f0>
      if (__HAL_FDCAN_TT_GET_IT_SOURCE(hfdcan, FDCAN_TT_IT_STOP_WATCH) != 0U)
 8001348:	6863      	ldr	r3, [r4, #4]
 800134a:	6a5a      	ldr	r2, [r3, #36]	; 0x24
 800134c:	f012 0f40 	tst.w	r2, #64	; 0x40
 8001350:	d003      	beq.n	800135a <HAL_FDCAN_IRQHandler+0x2be>
        if (__HAL_FDCAN_TT_GET_FLAG(hfdcan, FDCAN_TT_FLAG_STOP_WATCH) != 0U)
 8001352:	6a1a      	ldr	r2, [r3, #32]
 8001354:	f012 0f40 	tst.w	r2, #64	; 0x40
 8001358:	d120      	bne.n	800139c <HAL_FDCAN_IRQHandler+0x300>
      if (TTGlobTimeITs != 0U)
 800135a:	bb57      	cbnz	r7, 80013b2 <HAL_FDCAN_IRQHandler+0x316>
      if (TTDistErrors != 0U)
 800135c:	b136      	cbz	r6, 800136c <HAL_FDCAN_IRQHandler+0x2d0>
        __HAL_FDCAN_TT_CLEAR_FLAG(hfdcan, TTDistErrors);
 800135e:	6863      	ldr	r3, [r4, #4]
 8001360:	621e      	str	r6, [r3, #32]
        hfdcan->ErrorCode |= TTDistErrors;
 8001362:	f8d4 309c 	ldr.w	r3, [r4, #156]	; 0x9c
 8001366:	431e      	orrs	r6, r3
 8001368:	f8c4 609c 	str.w	r6, [r4, #156]	; 0x9c
      if (TTFatalErrors != 0U)
 800136c:	2d00      	cmp	r5, #0
 800136e:	f43f af35 	beq.w	80011dc <HAL_FDCAN_IRQHandler+0x140>
        __HAL_FDCAN_TT_CLEAR_FLAG(hfdcan, TTFatalErrors);
 8001372:	6863      	ldr	r3, [r4, #4]
 8001374:	621d      	str	r5, [r3, #32]
        hfdcan->ErrorCode |= TTFatalErrors;
 8001376:	f8d4 309c 	ldr.w	r3, [r4, #156]	; 0x9c
 800137a:	431d      	orrs	r5, r3
 800137c:	f8c4 509c 	str.w	r5, [r4, #156]	; 0x9c
 8001380:	e72c      	b.n	80011dc <HAL_FDCAN_IRQHandler+0x140>
        __HAL_FDCAN_TT_CLEAR_FLAG(hfdcan, TTSchedSyncITs);
 8001382:	6219      	str	r1, [r3, #32]
        HAL_FDCAN_TT_ScheduleSyncCallback(hfdcan, TTSchedSyncITs);
 8001384:	4620      	mov	r0, r4
 8001386:	f7ff fe85 	bl	8001094 <HAL_FDCAN_TT_ScheduleSyncCallback>
 800138a:	e7da      	b.n	8001342 <HAL_FDCAN_IRQHandler+0x2a6>
        __HAL_FDCAN_TT_CLEAR_FLAG(hfdcan, TTTimeMarkITs);
 800138c:	6863      	ldr	r3, [r4, #4]
 800138e:	f8c3 8020 	str.w	r8, [r3, #32]
        HAL_FDCAN_TT_TimeMarkCallback(hfdcan, TTTimeMarkITs);
 8001392:	4641      	mov	r1, r8
 8001394:	4620      	mov	r0, r4
 8001396:	f7ff fe7e 	bl	8001096 <HAL_FDCAN_TT_TimeMarkCallback>
 800139a:	e7d5      	b.n	8001348 <HAL_FDCAN_IRQHandler+0x2ac>
          SWTime = ((hfdcan->ttcan->TTCPT & FDCAN_TTCPT_SWV) >> FDCAN_TTCPT_SWV_Pos);
 800139c:	6bd9      	ldr	r1, [r3, #60]	; 0x3c
          SWCycleCount = ((hfdcan->ttcan->TTCPT & FDCAN_TTCPT_CCV) >> FDCAN_TTCPT_CCV_Pos);
 800139e:	6bda      	ldr	r2, [r3, #60]	; 0x3c
          __HAL_FDCAN_TT_CLEAR_FLAG(hfdcan, FDCAN_TT_FLAG_STOP_WATCH);
 80013a0:	2040      	movs	r0, #64	; 0x40
 80013a2:	6218      	str	r0, [r3, #32]
          HAL_FDCAN_TT_StopWatchCallback(hfdcan, SWTime, SWCycleCount);
 80013a4:	f002 023f 	and.w	r2, r2, #63	; 0x3f
 80013a8:	0c09      	lsrs	r1, r1, #16
 80013aa:	4620      	mov	r0, r4
 80013ac:	f7ff fe74 	bl	8001098 <HAL_FDCAN_TT_StopWatchCallback>
 80013b0:	e7d3      	b.n	800135a <HAL_FDCAN_IRQHandler+0x2be>
        __HAL_FDCAN_TT_CLEAR_FLAG(hfdcan, TTGlobTimeITs);
 80013b2:	6863      	ldr	r3, [r4, #4]
 80013b4:	621f      	str	r7, [r3, #32]
        HAL_FDCAN_TT_GlobalTimeCallback(hfdcan, TTGlobTimeITs);
 80013b6:	4639      	mov	r1, r7
 80013b8:	4620      	mov	r0, r4
 80013ba:	f7ff fe6e 	bl	800109a <HAL_FDCAN_TT_GlobalTimeCallback>
 80013be:	e7cd      	b.n	800135c <HAL_FDCAN_IRQHandler+0x2c0>
    HAL_FDCAN_ErrorCallback(hfdcan);
 80013c0:	4620      	mov	r0, r4
 80013c2:	f7ff fe65 	bl	8001090 <HAL_FDCAN_ErrorCallback>
}
 80013c6:	e70e      	b.n	80011e6 <HAL_FDCAN_IRQHandler+0x14a>

080013c8 <HAL_GPIO_Init>:
  * @param  GPIO_Init: pointer to a GPIO_InitTypeDef structure that contains
  *         the configuration information for the specified GPIO peripheral.
  * @retval None
  */
void HAL_GPIO_Init(GPIO_TypeDef  *GPIOx, GPIO_InitTypeDef *GPIO_Init)
{
 80013c8:	b5f0      	push	{r4, r5, r6, r7, lr}
 80013ca:	b083      	sub	sp, #12
  uint32_t position = 0x00U;
 80013cc:	2300      	movs	r3, #0
  assert_param(IS_GPIO_PIN(GPIO_Init->Pin));
  assert_param(IS_GPIO_MODE(GPIO_Init->Mode));
  assert_param(IS_GPIO_PULL(GPIO_Init->Pull));

  /* Configure the port pins */
  while (((GPIO_Init->Pin) >> position) != 0x00U)
 80013ce:	e03a      	b.n	8001446 <HAL_GPIO_Init+0x7e>
        /* Enable SYSCFG Clock */
        __HAL_RCC_SYSCFG_CLK_ENABLE();

        temp = SYSCFG->EXTICR[position >> 2U];
        temp &= ~(0x0FUL << (4U * (position & 0x03U)));
        temp |= (GPIO_GET_INDEX(GPIOx) << (4U * (position & 0x03U)));
 80013d0:	2409      	movs	r4, #9
 80013d2:	e000      	b.n	80013d6 <HAL_GPIO_Init+0xe>
 80013d4:	2400      	movs	r4, #0
 80013d6:	40b4      	lsls	r4, r6
 80013d8:	433c      	orrs	r4, r7
        SYSCFG->EXTICR[position >> 2U] = temp;
 80013da:	3502      	adds	r5, #2
 80013dc:	4e6f      	ldr	r6, [pc, #444]	; (800159c <HAL_GPIO_Init+0x1d4>)
 80013de:	f846 4025 	str.w	r4, [r6, r5, lsl #2]

        /* Clear EXTI line configuration */
        temp = EXTI_CurrentCPU->IMR1;
 80013e2:	4c6f      	ldr	r4, [pc, #444]	; (80015a0 <HAL_GPIO_Init+0x1d8>)
 80013e4:	6825      	ldr	r5, [r4, #0]
        temp &= ~(iocurrent);
 80013e6:	43d4      	mvns	r4, r2
 80013e8:	ea25 0602 	bic.w	r6, r5, r2
        if ((GPIO_Init->Mode & GPIO_MODE_IT) == GPIO_MODE_IT)
 80013ec:	684f      	ldr	r7, [r1, #4]
 80013ee:	f417 3f80 	tst.w	r7, #65536	; 0x10000
 80013f2:	d001      	beq.n	80013f8 <HAL_GPIO_Init+0x30>
        {
          temp |= iocurrent;
 80013f4:	ea42 0605 	orr.w	r6, r2, r5
        }
        EXTI_CurrentCPU->IMR1 = temp;
 80013f8:	4d69      	ldr	r5, [pc, #420]	; (80015a0 <HAL_GPIO_Init+0x1d8>)
 80013fa:	602e      	str	r6, [r5, #0]

        temp = EXTI_CurrentCPU->EMR1;
 80013fc:	686e      	ldr	r6, [r5, #4]
        temp &= ~(iocurrent);
 80013fe:	ea04 0506 	and.w	r5, r4, r6
        if ((GPIO_Init->Mode & GPIO_MODE_EVT) == GPIO_MODE_EVT)
 8001402:	684f      	ldr	r7, [r1, #4]
 8001404:	f417 3f00 	tst.w	r7, #131072	; 0x20000
 8001408:	d001      	beq.n	800140e <HAL_GPIO_Init+0x46>
        {
          temp |= iocurrent;
 800140a:	ea42 0506 	orr.w	r5, r2, r6
        }
        EXTI_CurrentCPU->EMR1 = temp;
 800140e:	4e64      	ldr	r6, [pc, #400]	; (80015a0 <HAL_GPIO_Init+0x1d8>)
 8001410:	6075      	str	r5, [r6, #4]

        /* Clear Rising Falling edge configuration */
        temp = EXTI->RTSR1;
 8001412:	f04f 45b0 	mov.w	r5, #1476395008	; 0x58000000
 8001416:	682d      	ldr	r5, [r5, #0]
        temp &= ~(iocurrent);
 8001418:	ea04 0605 	and.w	r6, r4, r5
        if ((GPIO_Init->Mode & RISING_EDGE) == RISING_EDGE)
 800141c:	684f      	ldr	r7, [r1, #4]
 800141e:	f417 1f80 	tst.w	r7, #1048576	; 0x100000
 8001422:	d001      	beq.n	8001428 <HAL_GPIO_Init+0x60>
        {
          temp |= iocurrent;
 8001424:	ea42 0605 	orr.w	r6, r2, r5
        }
        EXTI->RTSR1 = temp;
 8001428:	f04f 45b0 	mov.w	r5, #1476395008	; 0x58000000
 800142c:	602e      	str	r6, [r5, #0]

        temp = EXTI->FTSR1;
 800142e:	686d      	ldr	r5, [r5, #4]
        temp &= ~(iocurrent);
 8001430:	402c      	ands	r4, r5
        if ((GPIO_Init->Mode & FALLING_EDGE) == FALLING_EDGE)
 8001432:	684e      	ldr	r6, [r1, #4]
 8001434:	f416 1f00 	tst.w	r6, #2097152	; 0x200000
 8001438:	d001      	beq.n	800143e <HAL_GPIO_Init+0x76>
        {
          temp |= iocurrent;
 800143a:	ea42 0405 	orr.w	r4, r2, r5
        }
        EXTI->FTSR1 = temp;
 800143e:	f04f 42b0 	mov.w	r2, #1476395008	; 0x58000000
 8001442:	6054      	str	r4, [r2, #4]
      }
    }

    position++;
 8001444:	3301      	adds	r3, #1
  while (((GPIO_Init->Pin) >> position) != 0x00U)
 8001446:	680a      	ldr	r2, [r1, #0]
 8001448:	fa32 f403 	lsrs.w	r4, r2, r3
 800144c:	f000 80a3 	beq.w	8001596 <HAL_GPIO_Init+0x1ce>
    iocurrent = (GPIO_Init->Pin) & (1UL << position);
 8001450:	2401      	movs	r4, #1
 8001452:	409c      	lsls	r4, r3
    if (iocurrent != 0x00U)
 8001454:	4022      	ands	r2, r4
 8001456:	d0f5      	beq.n	8001444 <HAL_GPIO_Init+0x7c>
      if ((GPIO_Init->Mode == GPIO_MODE_OUTPUT_PP) || (GPIO_Init->Mode == GPIO_MODE_AF_PP) ||
 8001458:	684d      	ldr	r5, [r1, #4]
 800145a:	1e6e      	subs	r6, r5, #1
 800145c:	2d11      	cmp	r5, #17
 800145e:	bf18      	it	ne
 8001460:	2e01      	cmpne	r6, #1
 8001462:	d901      	bls.n	8001468 <HAL_GPIO_Init+0xa0>
          (GPIO_Init->Mode == GPIO_MODE_OUTPUT_OD) || (GPIO_Init->Mode == GPIO_MODE_AF_OD))
 8001464:	2d12      	cmp	r5, #18
 8001466:	d112      	bne.n	800148e <HAL_GPIO_Init+0xc6>
        temp = GPIOx->OSPEEDR;
 8001468:	6886      	ldr	r6, [r0, #8]
        temp &= ~(GPIO_OSPEEDR_OSPEED0 << (position * 2U));
 800146a:	005f      	lsls	r7, r3, #1
 800146c:	2503      	movs	r5, #3
 800146e:	40bd      	lsls	r5, r7
 8001470:	ea26 0605 	bic.w	r6, r6, r5
        temp |= (GPIO_Init->Speed << (position * 2U));
 8001474:	68cd      	ldr	r5, [r1, #12]
 8001476:	40bd      	lsls	r5, r7
 8001478:	4335      	orrs	r5, r6
        GPIOx->OSPEEDR = temp;
 800147a:	6085      	str	r5, [r0, #8]
        temp = GPIOx->OTYPER;
 800147c:	6846      	ldr	r6, [r0, #4]
        temp &= ~(GPIO_OTYPER_OT0 << position) ;
 800147e:	ea26 0604 	bic.w	r6, r6, r4
        temp |= (((GPIO_Init->Mode & GPIO_OUTPUT_TYPE) >> 4U) << position);
 8001482:	684d      	ldr	r5, [r1, #4]
 8001484:	f3c5 1400 	ubfx	r4, r5, #4, #1
 8001488:	409c      	lsls	r4, r3
 800148a:	4334      	orrs	r4, r6
        GPIOx->OTYPER = temp;
 800148c:	6044      	str	r4, [r0, #4]
      temp = GPIOx->PUPDR;
 800148e:	68c7      	ldr	r7, [r0, #12]
      temp &= ~(GPIO_PUPDR_PUPD0 << (position * 2U));
 8001490:	005e      	lsls	r6, r3, #1
 8001492:	2503      	movs	r5, #3
 8001494:	40b5      	lsls	r5, r6
 8001496:	43ec      	mvns	r4, r5
 8001498:	ea27 0705 	bic.w	r7, r7, r5
      temp |= ((GPIO_Init->Pull) << (position * 2U));
 800149c:	688d      	ldr	r5, [r1, #8]
 800149e:	40b5      	lsls	r5, r6
 80014a0:	433d      	orrs	r5, r7
      GPIOx->PUPDR = temp;
 80014a2:	60c5      	str	r5, [r0, #12]
      if ((GPIO_Init->Mode == GPIO_MODE_AF_PP) || (GPIO_Init->Mode == GPIO_MODE_AF_OD))
 80014a4:	684d      	ldr	r5, [r1, #4]
 80014a6:	2d12      	cmp	r5, #18
 80014a8:	bf18      	it	ne
 80014aa:	2d02      	cmpne	r5, #2
 80014ac:	d113      	bne.n	80014d6 <HAL_GPIO_Init+0x10e>
        temp = GPIOx->AFR[position >> 3U];
 80014ae:	08df      	lsrs	r7, r3, #3
 80014b0:	3708      	adds	r7, #8
 80014b2:	f850 e027 	ldr.w	lr, [r0, r7, lsl #2]
        temp &= ~(0xFU << ((position & 0x07U) * 4U));
 80014b6:	f003 0507 	and.w	r5, r3, #7
 80014ba:	ea4f 0c85 	mov.w	ip, r5, lsl #2
 80014be:	250f      	movs	r5, #15
 80014c0:	fa05 f50c 	lsl.w	r5, r5, ip
 80014c4:	ea2e 0e05 	bic.w	lr, lr, r5
        temp |= ((GPIO_Init->Alternate) << ((position & 0x07U) * 4U));
 80014c8:	690d      	ldr	r5, [r1, #16]
 80014ca:	fa05 f50c 	lsl.w	r5, r5, ip
 80014ce:	ea45 050e 	orr.w	r5, r5, lr
        GPIOx->AFR[position >> 3U] = temp;
 80014d2:	f840 5027 	str.w	r5, [r0, r7, lsl #2]
      temp = GPIOx->MODER;
 80014d6:	6805      	ldr	r5, [r0, #0]
      temp &= ~(GPIO_MODER_MODE0 << (position * 2U));
 80014d8:	4025      	ands	r5, r4
      temp |= ((GPIO_Init->Mode & GPIO_MODE) << (position * 2U));
 80014da:	684c      	ldr	r4, [r1, #4]
 80014dc:	f004 0403 	and.w	r4, r4, #3
 80014e0:	40b4      	lsls	r4, r6
 80014e2:	432c      	orrs	r4, r5
      GPIOx->MODER = temp;
 80014e4:	6004      	str	r4, [r0, #0]
      if ((GPIO_Init->Mode & EXTI_MODE) == EXTI_MODE)
 80014e6:	684c      	ldr	r4, [r1, #4]
 80014e8:	f014 5f80 	tst.w	r4, #268435456	; 0x10000000
 80014ec:	d0aa      	beq.n	8001444 <HAL_GPIO_Init+0x7c>
        __HAL_RCC_SYSCFG_CLK_ENABLE();
 80014ee:	4c2d      	ldr	r4, [pc, #180]	; (80015a4 <HAL_GPIO_Init+0x1dc>)
 80014f0:	f8d4 50f4 	ldr.w	r5, [r4, #244]	; 0xf4
 80014f4:	f045 0502 	orr.w	r5, r5, #2
 80014f8:	f8c4 50f4 	str.w	r5, [r4, #244]	; 0xf4
 80014fc:	f8d4 40f4 	ldr.w	r4, [r4, #244]	; 0xf4
 8001500:	f004 0402 	and.w	r4, r4, #2
 8001504:	9401      	str	r4, [sp, #4]
 8001506:	9c01      	ldr	r4, [sp, #4]
        temp = SYSCFG->EXTICR[position >> 2U];
 8001508:	089d      	lsrs	r5, r3, #2
 800150a:	1cae      	adds	r6, r5, #2
 800150c:	4c23      	ldr	r4, [pc, #140]	; (800159c <HAL_GPIO_Init+0x1d4>)
 800150e:	f854 7026 	ldr.w	r7, [r4, r6, lsl #2]
        temp &= ~(0x0FUL << (4U * (position & 0x03U)));
 8001512:	f003 0403 	and.w	r4, r3, #3
 8001516:	00a6      	lsls	r6, r4, #2
 8001518:	240f      	movs	r4, #15
 800151a:	40b4      	lsls	r4, r6
 800151c:	ea27 0704 	bic.w	r7, r7, r4
        temp |= (GPIO_GET_INDEX(GPIOx) << (4U * (position & 0x03U)));
 8001520:	4c21      	ldr	r4, [pc, #132]	; (80015a8 <HAL_GPIO_Init+0x1e0>)
 8001522:	42a0      	cmp	r0, r4
 8001524:	f43f af56 	beq.w	80013d4 <HAL_GPIO_Init+0xc>
 8001528:	f504 6480 	add.w	r4, r4, #1024	; 0x400
 800152c:	42a0      	cmp	r0, r4
 800152e:	d022      	beq.n	8001576 <HAL_GPIO_Init+0x1ae>
 8001530:	f504 6480 	add.w	r4, r4, #1024	; 0x400
 8001534:	42a0      	cmp	r0, r4
 8001536:	d020      	beq.n	800157a <HAL_GPIO_Init+0x1b2>
 8001538:	f504 6480 	add.w	r4, r4, #1024	; 0x400
 800153c:	42a0      	cmp	r0, r4
 800153e:	d01e      	beq.n	800157e <HAL_GPIO_Init+0x1b6>
 8001540:	f504 6480 	add.w	r4, r4, #1024	; 0x400
 8001544:	42a0      	cmp	r0, r4
 8001546:	d01c      	beq.n	8001582 <HAL_GPIO_Init+0x1ba>
 8001548:	f504 6480 	add.w	r4, r4, #1024	; 0x400
 800154c:	42a0      	cmp	r0, r4
 800154e:	d01a      	beq.n	8001586 <HAL_GPIO_Init+0x1be>
 8001550:	f504 6480 	add.w	r4, r4, #1024	; 0x400
 8001554:	42a0      	cmp	r0, r4
 8001556:	d018      	beq.n	800158a <HAL_GPIO_Init+0x1c2>
 8001558:	f504 6480 	add.w	r4, r4, #1024	; 0x400
 800155c:	42a0      	cmp	r0, r4
 800155e:	d016      	beq.n	800158e <HAL_GPIO_Init+0x1c6>
 8001560:	f504 6480 	add.w	r4, r4, #1024	; 0x400
 8001564:	42a0      	cmp	r0, r4
 8001566:	d014      	beq.n	8001592 <HAL_GPIO_Init+0x1ca>
 8001568:	f504 6480 	add.w	r4, r4, #1024	; 0x400
 800156c:	42a0      	cmp	r0, r4
 800156e:	f43f af2f 	beq.w	80013d0 <HAL_GPIO_Init+0x8>
 8001572:	240a      	movs	r4, #10
 8001574:	e72f      	b.n	80013d6 <HAL_GPIO_Init+0xe>
 8001576:	2401      	movs	r4, #1
 8001578:	e72d      	b.n	80013d6 <HAL_GPIO_Init+0xe>
 800157a:	2402      	movs	r4, #2
 800157c:	e72b      	b.n	80013d6 <HAL_GPIO_Init+0xe>
 800157e:	2403      	movs	r4, #3
 8001580:	e729      	b.n	80013d6 <HAL_GPIO_Init+0xe>
 8001582:	2404      	movs	r4, #4
 8001584:	e727      	b.n	80013d6 <HAL_GPIO_Init+0xe>
 8001586:	2405      	movs	r4, #5
 8001588:	e725      	b.n	80013d6 <HAL_GPIO_Init+0xe>
 800158a:	2406      	movs	r4, #6
 800158c:	e723      	b.n	80013d6 <HAL_GPIO_Init+0xe>
 800158e:	2407      	movs	r4, #7
 8001590:	e721      	b.n	80013d6 <HAL_GPIO_Init+0xe>
 8001592:	2408      	movs	r4, #8
 8001594:	e71f      	b.n	80013d6 <HAL_GPIO_Init+0xe>
  }
}
 8001596:	b003      	add	sp, #12
 8001598:	bdf0      	pop	{r4, r5, r6, r7, pc}
 800159a:	bf00      	nop
 800159c:	58000400 	.word	0x58000400
 80015a0:	58000080 	.word	0x58000080
 80015a4:	58024400 	.word	0x58024400
 80015a8:	58020000 	.word	0x58020000

080015ac <HAL_GPIO_WritePin>:
{
  /* Check the parameters */
  assert_param(IS_GPIO_PIN(GPIO_Pin));
  assert_param(IS_GPIO_PIN_ACTION(PinState));

  if (PinState != GPIO_PIN_RESET)
 80015ac:	b10a      	cbz	r2, 80015b2 <HAL_GPIO_WritePin+0x6>
  {
    GPIOx->BSRR = GPIO_Pin;
 80015ae:	6181      	str	r1, [r0, #24]
 80015b0:	4770      	bx	lr
  }
  else
  {
    GPIOx->BSRR = (uint32_t)GPIO_Pin << GPIO_NUMBER;
 80015b2:	0409      	lsls	r1, r1, #16
 80015b4:	6181      	str	r1, [r0, #24]
  }
}
 80015b6:	4770      	bx	lr

080015b8 <HAL_I2C_Init>:
  * @retval HAL status
  */
HAL_StatusTypeDef HAL_I2C_Init(I2C_HandleTypeDef *hi2c)
{
  /* Check the I2C handle allocation */
  if (hi2c == NULL)
 80015b8:	2800      	cmp	r0, #0
 80015ba:	d057      	beq.n	800166c <HAL_I2C_Init+0xb4>
{
 80015bc:	b510      	push	{r4, lr}
 80015be:	4604      	mov	r4, r0
  assert_param(IS_I2C_OWN_ADDRESS2(hi2c->Init.OwnAddress2));
  assert_param(IS_I2C_OWN_ADDRESS2_MASK(hi2c->Init.OwnAddress2Masks));
  assert_param(IS_I2C_GENERAL_CALL(hi2c->Init.GeneralCallMode));
  assert_param(IS_I2C_NO_STRETCH(hi2c->Init.NoStretchMode));

  if (hi2c->State == HAL_I2C_STATE_RESET)
 80015c0:	f890 3041 	ldrb.w	r3, [r0, #65]	; 0x41
 80015c4:	2b00      	cmp	r3, #0
 80015c6:	d041      	beq.n	800164c <HAL_I2C_Init+0x94>
    /* Init the low level hardware : GPIO, CLOCK, CORTEX...etc */
    HAL_I2C_MspInit(hi2c);
#endif /* USE_HAL_I2C_REGISTER_CALLBACKS */
  }

  hi2c->State = HAL_I2C_STATE_BUSY;
 80015c8:	2324      	movs	r3, #36	; 0x24
 80015ca:	f884 3041 	strb.w	r3, [r4, #65]	; 0x41

  /* Disable the selected I2C peripheral */
  __HAL_I2C_DISABLE(hi2c);
 80015ce:	6822      	ldr	r2, [r4, #0]
 80015d0:	6813      	ldr	r3, [r2, #0]
 80015d2:	f023 0301 	bic.w	r3, r3, #1
 80015d6:	6013      	str	r3, [r2, #0]

  /*---------------------------- I2Cx TIMINGR Configuration ------------------*/
  /* Configure I2Cx: Frequency range */
  hi2c->Instance->TIMINGR = hi2c->Init.Timing & TIMING_CLEAR_MASK;
 80015d8:	6863      	ldr	r3, [r4, #4]
 80015da:	6822      	ldr	r2, [r4, #0]
 80015dc:	f023 6370 	bic.w	r3, r3, #251658240	; 0xf000000
 80015e0:	6113      	str	r3, [r2, #16]

  /*---------------------------- I2Cx OAR1 Configuration ---------------------*/
  /* Disable Own Address1 before set the Own Address1 configuration */
  hi2c->Instance->OAR1 &= ~I2C_OAR1_OA1EN;
 80015e2:	6822      	ldr	r2, [r4, #0]
 80015e4:	6893      	ldr	r3, [r2, #8]
 80015e6:	f423 4300 	bic.w	r3, r3, #32768	; 0x8000
 80015ea:	6093      	str	r3, [r2, #8]

  /* Configure I2Cx: Own Address1 and ack own address1 mode */
  if (hi2c->Init.AddressingMode == I2C_ADDRESSINGMODE_7BIT)
 80015ec:	68e3      	ldr	r3, [r4, #12]
 80015ee:	2b01      	cmp	r3, #1
 80015f0:	d031      	beq.n	8001656 <HAL_I2C_Init+0x9e>
  {
    hi2c->Instance->OAR1 = (I2C_OAR1_OA1EN | hi2c->Init.OwnAddress1);
  }
  else /* I2C_ADDRESSINGMODE_10BIT */
  {
    hi2c->Instance->OAR1 = (I2C_OAR1_OA1EN | I2C_OAR1_OA1MODE | hi2c->Init.OwnAddress1);
 80015f2:	68a3      	ldr	r3, [r4, #8]
 80015f4:	6822      	ldr	r2, [r4, #0]
 80015f6:	f443 4304 	orr.w	r3, r3, #33792	; 0x8400
 80015fa:	6093      	str	r3, [r2, #8]
  }

  /*---------------------------- I2Cx CR2 Configuration ----------------------*/
  /* Configure I2Cx: Addressing Master mode */
  if (hi2c->Init.AddressingMode == I2C_ADDRESSINGMODE_10BIT)
 80015fc:	68e3      	ldr	r3, [r4, #12]
 80015fe:	2b02      	cmp	r3, #2
 8001600:	d02f      	beq.n	8001662 <HAL_I2C_Init+0xaa>
  {
    hi2c->Instance->CR2 = (I2C_CR2_ADD10);
  }
  /* Enable the AUTOEND by default, and enable NACK (should be disable only during Slave process */
  hi2c->Instance->CR2 |= (I2C_CR2_AUTOEND | I2C_CR2_NACK);
 8001602:	6822      	ldr	r2, [r4, #0]
 8001604:	6851      	ldr	r1, [r2, #4]
 8001606:	4b1a      	ldr	r3, [pc, #104]	; (8001670 <HAL_I2C_Init+0xb8>)
 8001608:	430b      	orrs	r3, r1
 800160a:	6053      	str	r3, [r2, #4]

  /*---------------------------- I2Cx OAR2 Configuration ---------------------*/
  /* Disable Own Address2 before set the Own Address2 configuration */
  hi2c->Instance->OAR2 &= ~I2C_DUALADDRESS_ENABLE;
 800160c:	6822      	ldr	r2, [r4, #0]
 800160e:	68d3      	ldr	r3, [r2, #12]
 8001610:	f423 4300 	bic.w	r3, r3, #32768	; 0x8000
 8001614:	60d3      	str	r3, [r2, #12]

  /* Configure I2Cx: Dual mode and Own Address2 */
  hi2c->Instance->OAR2 = (hi2c->Init.DualAddressMode | hi2c->Init.OwnAddress2 | (hi2c->Init.OwnAddress2Masks << 8));
 8001616:	6923      	ldr	r3, [r4, #16]
 8001618:	6962      	ldr	r2, [r4, #20]
 800161a:	4313      	orrs	r3, r2
 800161c:	69a1      	ldr	r1, [r4, #24]
 800161e:	6822      	ldr	r2, [r4, #0]
 8001620:	ea43 2301 	orr.w	r3, r3, r1, lsl #8
 8001624:	60d3      	str	r3, [r2, #12]

  /*---------------------------- I2Cx CR1 Configuration ----------------------*/
  /* Configure I2Cx: Generalcall and NoStretch mode */
  hi2c->Instance->CR1 = (hi2c->Init.GeneralCallMode | hi2c->Init.NoStretchMode);
 8001626:	69e3      	ldr	r3, [r4, #28]
 8001628:	6a21      	ldr	r1, [r4, #32]
 800162a:	6822      	ldr	r2, [r4, #0]
 800162c:	430b      	orrs	r3, r1
 800162e:	6013      	str	r3, [r2, #0]

  /* Enable the selected I2C peripheral */
  __HAL_I2C_ENABLE(hi2c);
 8001630:	6822      	ldr	r2, [r4, #0]
 8001632:	6813      	ldr	r3, [r2, #0]
 8001634:	f043 0301 	orr.w	r3, r3, #1
 8001638:	6013      	str	r3, [r2, #0]

  hi2c->ErrorCode = HAL_I2C_ERROR_NONE;
 800163a:	2000      	movs	r0, #0
 800163c:	6460      	str	r0, [r4, #68]	; 0x44
  hi2c->State = HAL_I2C_STATE_READY;
 800163e:	2320      	movs	r3, #32
 8001640:	f884 3041 	strb.w	r3, [r4, #65]	; 0x41
  hi2c->PreviousState = I2C_STATE_NONE;
 8001644:	6320      	str	r0, [r4, #48]	; 0x30
  hi2c->Mode = HAL_I2C_MODE_NONE;
 8001646:	f884 0042 	strb.w	r0, [r4, #66]	; 0x42

  return HAL_OK;
}
 800164a:	bd10      	pop	{r4, pc}
    hi2c->Lock = HAL_UNLOCKED;
 800164c:	f880 3040 	strb.w	r3, [r0, #64]	; 0x40
    HAL_I2C_MspInit(hi2c);
 8001650:	f006 f9a6 	bl	80079a0 <HAL_I2C_MspInit>
 8001654:	e7b8      	b.n	80015c8 <HAL_I2C_Init+0x10>
    hi2c->Instance->OAR1 = (I2C_OAR1_OA1EN | hi2c->Init.OwnAddress1);
 8001656:	68a3      	ldr	r3, [r4, #8]
 8001658:	6822      	ldr	r2, [r4, #0]
 800165a:	f443 4300 	orr.w	r3, r3, #32768	; 0x8000
 800165e:	6093      	str	r3, [r2, #8]
 8001660:	e7cc      	b.n	80015fc <HAL_I2C_Init+0x44>
    hi2c->Instance->CR2 = (I2C_CR2_ADD10);
 8001662:	6823      	ldr	r3, [r4, #0]
 8001664:	f44f 6200 	mov.w	r2, #2048	; 0x800
 8001668:	605a      	str	r2, [r3, #4]
 800166a:	e7ca      	b.n	8001602 <HAL_I2C_Init+0x4a>
    return HAL_ERROR;
 800166c:	2001      	movs	r0, #1
}
 800166e:	4770      	bx	lr
 8001670:	02008000 	.word	0x02008000

08001674 <HAL_I2CEx_ConfigAnalogFilter>:
{
  /* Check the parameters */
  assert_param(IS_I2C_ALL_INSTANCE(hi2c->Instance));
  assert_param(IS_I2C_ANALOG_FILTER(AnalogFilter));

  if (hi2c->State == HAL_I2C_STATE_READY)
 8001674:	f890 3041 	ldrb.w	r3, [r0, #65]	; 0x41
 8001678:	b2db      	uxtb	r3, r3
 800167a:	2b20      	cmp	r3, #32
 800167c:	d124      	bne.n	80016c8 <HAL_I2CEx_ConfigAnalogFilter+0x54>
  {
    /* Process Locked */
    __HAL_LOCK(hi2c);
 800167e:	f890 3040 	ldrb.w	r3, [r0, #64]	; 0x40
 8001682:	2b01      	cmp	r3, #1
 8001684:	d022      	beq.n	80016cc <HAL_I2CEx_ConfigAnalogFilter+0x58>
 8001686:	2301      	movs	r3, #1
 8001688:	f880 3040 	strb.w	r3, [r0, #64]	; 0x40

    hi2c->State = HAL_I2C_STATE_BUSY;
 800168c:	2324      	movs	r3, #36	; 0x24
 800168e:	f880 3041 	strb.w	r3, [r0, #65]	; 0x41

    /* Disable the selected I2C peripheral */
    __HAL_I2C_DISABLE(hi2c);
 8001692:	6802      	ldr	r2, [r0, #0]
 8001694:	6813      	ldr	r3, [r2, #0]
 8001696:	f023 0301 	bic.w	r3, r3, #1
 800169a:	6013      	str	r3, [r2, #0]

    /* Reset I2Cx ANOFF bit */
    hi2c->Instance->CR1 &= ~(I2C_CR1_ANFOFF);
 800169c:	6802      	ldr	r2, [r0, #0]
 800169e:	6813      	ldr	r3, [r2, #0]
 80016a0:	f423 5380 	bic.w	r3, r3, #4096	; 0x1000
 80016a4:	6013      	str	r3, [r2, #0]

    /* Set analog filter bit*/
    hi2c->Instance->CR1 |= AnalogFilter;
 80016a6:	6802      	ldr	r2, [r0, #0]
 80016a8:	6813      	ldr	r3, [r2, #0]
 80016aa:	4319      	orrs	r1, r3
 80016ac:	6011      	str	r1, [r2, #0]

    __HAL_I2C_ENABLE(hi2c);
 80016ae:	6802      	ldr	r2, [r0, #0]
 80016b0:	6813      	ldr	r3, [r2, #0]
 80016b2:	f043 0301 	orr.w	r3, r3, #1
 80016b6:	6013      	str	r3, [r2, #0]

    hi2c->State = HAL_I2C_STATE_READY;
 80016b8:	2320      	movs	r3, #32
 80016ba:	f880 3041 	strb.w	r3, [r0, #65]	; 0x41

    /* Process Unlocked */
    __HAL_UNLOCK(hi2c);
 80016be:	2300      	movs	r3, #0
 80016c0:	f880 3040 	strb.w	r3, [r0, #64]	; 0x40

    return HAL_OK;
 80016c4:	4618      	mov	r0, r3
 80016c6:	4770      	bx	lr
  }
  else
  {
    return HAL_BUSY;
 80016c8:	2002      	movs	r0, #2
 80016ca:	4770      	bx	lr
    __HAL_LOCK(hi2c);
 80016cc:	2002      	movs	r0, #2
  }
}
 80016ce:	4770      	bx	lr

080016d0 <HAL_I2CEx_ConfigDigitalFilter>:

  /* Check the parameters */
  assert_param(IS_I2C_ALL_INSTANCE(hi2c->Instance));
  assert_param(IS_I2C_DIGITAL_FILTER(DigitalFilter));

  if (hi2c->State == HAL_I2C_STATE_READY)
 80016d0:	f890 3041 	ldrb.w	r3, [r0, #65]	; 0x41
 80016d4:	b2db      	uxtb	r3, r3
 80016d6:	2b20      	cmp	r3, #32
 80016d8:	d122      	bne.n	8001720 <HAL_I2CEx_ConfigDigitalFilter+0x50>
  {
    /* Process Locked */
    __HAL_LOCK(hi2c);
 80016da:	f890 3040 	ldrb.w	r3, [r0, #64]	; 0x40
 80016de:	2b01      	cmp	r3, #1
 80016e0:	d020      	beq.n	8001724 <HAL_I2CEx_ConfigDigitalFilter+0x54>
 80016e2:	2301      	movs	r3, #1
 80016e4:	f880 3040 	strb.w	r3, [r0, #64]	; 0x40

    hi2c->State = HAL_I2C_STATE_BUSY;
 80016e8:	2324      	movs	r3, #36	; 0x24
 80016ea:	f880 3041 	strb.w	r3, [r0, #65]	; 0x41

    /* Disable the selected I2C peripheral */
    __HAL_I2C_DISABLE(hi2c);
 80016ee:	6802      	ldr	r2, [r0, #0]
 80016f0:	6813      	ldr	r3, [r2, #0]
 80016f2:	f023 0301 	bic.w	r3, r3, #1
 80016f6:	6013      	str	r3, [r2, #0]

    /* Get the old register value */
    tmpreg = hi2c->Instance->CR1;
 80016f8:	6802      	ldr	r2, [r0, #0]
 80016fa:	6813      	ldr	r3, [r2, #0]

    /* Reset I2Cx DNF bits [11:8] */
    tmpreg &= ~(I2C_CR1_DNF);
 80016fc:	f423 6370 	bic.w	r3, r3, #3840	; 0xf00

    /* Set I2Cx DNF coefficient */
    tmpreg |= DigitalFilter << 8U;
 8001700:	ea43 2101 	orr.w	r1, r3, r1, lsl #8

    /* Store the new register value */
    hi2c->Instance->CR1 = tmpreg;
 8001704:	6011      	str	r1, [r2, #0]

    __HAL_I2C_ENABLE(hi2c);
 8001706:	6802      	ldr	r2, [r0, #0]
 8001708:	6813      	ldr	r3, [r2, #0]
 800170a:	f043 0301 	orr.w	r3, r3, #1
 800170e:	6013      	str	r3, [r2, #0]

    hi2c->State = HAL_I2C_STATE_READY;
 8001710:	2320      	movs	r3, #32
 8001712:	f880 3041 	strb.w	r3, [r0, #65]	; 0x41

    /* Process Unlocked */
    __HAL_UNLOCK(hi2c);
 8001716:	2300      	movs	r3, #0
 8001718:	f880 3040 	strb.w	r3, [r0, #64]	; 0x40

    return HAL_OK;
 800171c:	4618      	mov	r0, r3
 800171e:	4770      	bx	lr
  }
  else
  {
    return HAL_BUSY;
 8001720:	2002      	movs	r0, #2
 8001722:	4770      	bx	lr
    __HAL_LOCK(hi2c);
 8001724:	2002      	movs	r0, #2
  }
}
 8001726:	4770      	bx	lr

08001728 <PCD_WriteEmptyTxFifo>:
  * @param  hpcd PCD handle
  * @param  epnum endpoint number
  * @retval HAL status
  */
static HAL_StatusTypeDef PCD_WriteEmptyTxFifo(PCD_HandleTypeDef *hpcd, uint32_t epnum)
{
 8001728:	e92d 47f0 	stmdb	sp!, {r4, r5, r6, r7, r8, r9, sl, lr}
 800172c:	b082      	sub	sp, #8
  USB_OTG_GlobalTypeDef *USBx = hpcd->Instance;
 800172e:	f8d0 8000 	ldr.w	r8, [r0]
  uint32_t len32b;
  uint32_t fifoemptymsk;

  ep = &hpcd->IN_ep[epnum];

  if (ep->xfer_count > ep->xfer_len)
 8001732:	ebc1 03c1 	rsb	r3, r1, r1, lsl #3
 8001736:	eb00 0383 	add.w	r3, r0, r3, lsl #2
 800173a:	6d5a      	ldr	r2, [r3, #84]	; 0x54
 800173c:	6d1b      	ldr	r3, [r3, #80]	; 0x50
 800173e:	429a      	cmp	r2, r3
 8001740:	d855      	bhi.n	80017ee <PCD_WriteEmptyTxFifo+0xc6>
 8001742:	4607      	mov	r7, r0
 8001744:	460c      	mov	r4, r1
 8001746:	46c1      	mov	r9, r8
  {
    return HAL_ERROR;
  }

  len = ep->xfer_len - ep->xfer_count;
 8001748:	1a9b      	subs	r3, r3, r2

  if (len > ep->maxpacket)
 800174a:	ebc1 02c1 	rsb	r2, r1, r1, lsl #3
 800174e:	eb00 0282 	add.w	r2, r0, r2, lsl #2
 8001752:	6c52      	ldr	r2, [r2, #68]	; 0x44
 8001754:	429a      	cmp	r2, r3
 8001756:	d300      	bcc.n	800175a <PCD_WriteEmptyTxFifo+0x32>
  len = ep->xfer_len - ep->xfer_count;
 8001758:	461a      	mov	r2, r3
  {
    len = ep->maxpacket;
  }

  len32b = (len + 3U) / 4U;
 800175a:	f102 0a03 	add.w	sl, r2, #3
 800175e:	ea4f 0a9a 	mov.w	sl, sl, lsr #2

  while (((USBx_INEP(epnum)->DTXFSTS & USB_OTG_DTXFSTS_INEPTFSAV) >= len32b) &&
 8001762:	e015      	b.n	8001790 <PCD_WriteEmptyTxFifo+0x68>

    if (len > ep->maxpacket)
    {
      len = ep->maxpacket;
    }
    len32b = (len + 3U) / 4U;
 8001764:	f106 0a03 	add.w	sl, r6, #3
 8001768:	ea4f 0a9a 	mov.w	sl, sl, lsr #2

    (void)USB_WritePacket(USBx, ep->xfer_buff, (uint8_t)epnum, (uint16_t)len,
 800176c:	ebc4 05c4 	rsb	r5, r4, r4, lsl #3
 8001770:	eb07 0585 	add.w	r5, r7, r5, lsl #2
 8001774:	6ca9      	ldr	r1, [r5, #72]	; 0x48
 8001776:	7c3b      	ldrb	r3, [r7, #16]
 8001778:	9300      	str	r3, [sp, #0]
 800177a:	b2b3      	uxth	r3, r6
 800177c:	b2e2      	uxtb	r2, r4
 800177e:	4640      	mov	r0, r8
 8001780:	f004 fac6 	bl	8005d10 <USB_WritePacket>
                          (uint8_t)hpcd->Init.dma_enable);

    ep->xfer_buff  += len;
 8001784:	6cab      	ldr	r3, [r5, #72]	; 0x48
 8001786:	4433      	add	r3, r6
 8001788:	64ab      	str	r3, [r5, #72]	; 0x48
    ep->xfer_count += len;
 800178a:	6d6b      	ldr	r3, [r5, #84]	; 0x54
 800178c:	441e      	add	r6, r3
 800178e:	656e      	str	r6, [r5, #84]	; 0x54
  while (((USBx_INEP(epnum)->DTXFSTS & USB_OTG_DTXFSTS_INEPTFSAV) >= len32b) &&
 8001790:	eb09 1344 	add.w	r3, r9, r4, lsl #5
 8001794:	f503 6310 	add.w	r3, r3, #2304	; 0x900
 8001798:	699b      	ldr	r3, [r3, #24]
 800179a:	b29b      	uxth	r3, r3
 800179c:	4553      	cmp	r3, sl
 800179e:	d312      	bcc.n	80017c6 <PCD_WriteEmptyTxFifo+0x9e>
         (ep->xfer_count < ep->xfer_len) && (ep->xfer_len != 0U))
 80017a0:	ebc4 02c4 	rsb	r2, r4, r4, lsl #3
 80017a4:	eb07 0282 	add.w	r2, r7, r2, lsl #2
 80017a8:	6d51      	ldr	r1, [r2, #84]	; 0x54
 80017aa:	6d13      	ldr	r3, [r2, #80]	; 0x50
  while (((USBx_INEP(epnum)->DTXFSTS & USB_OTG_DTXFSTS_INEPTFSAV) >= len32b) &&
 80017ac:	4299      	cmp	r1, r3
 80017ae:	d20a      	bcs.n	80017c6 <PCD_WriteEmptyTxFifo+0x9e>
         (ep->xfer_count < ep->xfer_len) && (ep->xfer_len != 0U))
 80017b0:	b14b      	cbz	r3, 80017c6 <PCD_WriteEmptyTxFifo+0x9e>
    len = ep->xfer_len - ep->xfer_count;
 80017b2:	1a5b      	subs	r3, r3, r1
    if (len > ep->maxpacket)
 80017b4:	ebc4 02c4 	rsb	r2, r4, r4, lsl #3
 80017b8:	eb07 0282 	add.w	r2, r7, r2, lsl #2
 80017bc:	6c56      	ldr	r6, [r2, #68]	; 0x44
 80017be:	429e      	cmp	r6, r3
 80017c0:	d3d0      	bcc.n	8001764 <PCD_WriteEmptyTxFifo+0x3c>
    len = ep->xfer_len - ep->xfer_count;
 80017c2:	461e      	mov	r6, r3
 80017c4:	e7ce      	b.n	8001764 <PCD_WriteEmptyTxFifo+0x3c>
  }

  if (ep->xfer_len <= ep->xfer_count)
 80017c6:	ebc4 00c4 	rsb	r0, r4, r4, lsl #3
 80017ca:	eb07 0780 	add.w	r7, r7, r0, lsl #2
 80017ce:	6d3a      	ldr	r2, [r7, #80]	; 0x50
 80017d0:	6d7b      	ldr	r3, [r7, #84]	; 0x54
 80017d2:	429a      	cmp	r2, r3
 80017d4:	d80f      	bhi.n	80017f6 <PCD_WriteEmptyTxFifo+0xce>
  {
    fifoemptymsk = (uint32_t)(0x1UL << (epnum & EP_ADDR_MSK));
 80017d6:	f004 040f 	and.w	r4, r4, #15
 80017da:	2301      	movs	r3, #1
 80017dc:	40a3      	lsls	r3, r4
    USBx_DEVICE->DIEPEMPMSK &= ~fifoemptymsk;
 80017de:	f8d8 4834 	ldr.w	r4, [r8, #2100]	; 0x834
 80017e2:	ea24 0403 	bic.w	r4, r4, r3
 80017e6:	f8c8 4834 	str.w	r4, [r8, #2100]	; 0x834
  }

  return HAL_OK;
 80017ea:	2000      	movs	r0, #0
 80017ec:	e000      	b.n	80017f0 <PCD_WriteEmptyTxFifo+0xc8>
    return HAL_ERROR;
 80017ee:	2001      	movs	r0, #1
}
 80017f0:	b002      	add	sp, #8
 80017f2:	e8bd 87f0 	ldmia.w	sp!, {r4, r5, r6, r7, r8, r9, sl, pc}
  return HAL_OK;
 80017f6:	2000      	movs	r0, #0
 80017f8:	e7fa      	b.n	80017f0 <PCD_WriteEmptyTxFifo+0xc8>

080017fa <HAL_PCD_Init>:
{
 80017fa:	b5f0      	push	{r4, r5, r6, r7, lr}
 80017fc:	b08b      	sub	sp, #44	; 0x2c
  if (hpcd == NULL)
 80017fe:	2800      	cmp	r0, #0
 8001800:	f000 8093 	beq.w	800192a <HAL_PCD_Init+0x130>
 8001804:	4605      	mov	r5, r0
  USBx = hpcd->Instance;
 8001806:	6804      	ldr	r4, [r0, #0]
  if (hpcd->State == HAL_PCD_STATE_RESET)
 8001808:	f890 33bd 	ldrb.w	r3, [r0, #957]	; 0x3bd
 800180c:	b32b      	cbz	r3, 800185a <HAL_PCD_Init+0x60>
  hpcd->State = HAL_PCD_STATE_BUSY;
 800180e:	2303      	movs	r3, #3
 8001810:	f885 33bd 	strb.w	r3, [r5, #957]	; 0x3bd
  if ((USBx->CID & (0x1U << 8)) == 0U)
 8001814:	6be3      	ldr	r3, [r4, #60]	; 0x3c
 8001816:	f413 7f80 	tst.w	r3, #256	; 0x100
 800181a:	d101      	bne.n	8001820 <HAL_PCD_Init+0x26>
    hpcd->Init.dma_enable = 0U;
 800181c:	2300      	movs	r3, #0
 800181e:	612b      	str	r3, [r5, #16]
  __HAL_PCD_DISABLE(hpcd);
 8001820:	6828      	ldr	r0, [r5, #0]
 8001822:	f004 f80f 	bl	8005844 <USB_DisableGlobalInt>
  if (USB_CoreInit(hpcd->Instance, hpcd->Init) != HAL_OK)
 8001826:	462c      	mov	r4, r5
 8001828:	f854 7b10 	ldr.w	r7, [r4], #16
 800182c:	466e      	mov	r6, sp
 800182e:	cc0f      	ldmia	r4!, {r0, r1, r2, r3}
 8001830:	c60f      	stmia	r6!, {r0, r1, r2, r3}
 8001832:	cc0f      	ldmia	r4!, {r0, r1, r2, r3}
 8001834:	c60f      	stmia	r6!, {r0, r1, r2, r3}
 8001836:	e894 0003 	ldmia.w	r4, {r0, r1}
 800183a:	e886 0003 	stmia.w	r6, {r0, r1}
 800183e:	1d2b      	adds	r3, r5, #4
 8001840:	cb0e      	ldmia	r3, {r1, r2, r3}
 8001842:	4638      	mov	r0, r7
 8001844:	f003 ff40 	bl	80056c8 <USB_CoreInit>
 8001848:	4604      	mov	r4, r0
 800184a:	b158      	cbz	r0, 8001864 <HAL_PCD_Init+0x6a>
    hpcd->State = HAL_PCD_STATE_ERROR;
 800184c:	2302      	movs	r3, #2
 800184e:	f885 33bd 	strb.w	r3, [r5, #957]	; 0x3bd
    return HAL_ERROR;
 8001852:	2401      	movs	r4, #1
}
 8001854:	4620      	mov	r0, r4
 8001856:	b00b      	add	sp, #44	; 0x2c
 8001858:	bdf0      	pop	{r4, r5, r6, r7, pc}
    hpcd->Lock = HAL_UNLOCKED;
 800185a:	f880 33bc 	strb.w	r3, [r0, #956]	; 0x3bc
    HAL_PCD_MspInit(hpcd);
 800185e:	f006 fad3 	bl	8007e08 <HAL_PCD_MspInit>
 8001862:	e7d4      	b.n	800180e <HAL_PCD_Init+0x14>
  (void)USB_SetCurrentMode(hpcd->Instance, USB_DEVICE_MODE);
 8001864:	2100      	movs	r1, #0
 8001866:	6828      	ldr	r0, [r5, #0]
 8001868:	f003 fff2 	bl	8005850 <USB_SetCurrentMode>
  for (i = 0U; i < hpcd->Init.dev_endpoints; i++)
 800186c:	4623      	mov	r3, r4
 800186e:	e016      	b.n	800189e <HAL_PCD_Init+0xa4>
    hpcd->IN_ep[i].is_in = 1U;
 8001870:	ebc3 02c3 	rsb	r2, r3, r3, lsl #3
 8001874:	eb05 0282 	add.w	r2, r5, r2, lsl #2
 8001878:	2101      	movs	r1, #1
 800187a:	f882 103d 	strb.w	r1, [r2, #61]	; 0x3d
    hpcd->IN_ep[i].num = i;
 800187e:	f882 303c 	strb.w	r3, [r2, #60]	; 0x3c
    hpcd->IN_ep[i].tx_fifo_num = i;
 8001882:	f8a2 3042 	strh.w	r3, [r2, #66]	; 0x42
    hpcd->IN_ep[i].type = EP_TYPE_CTRL;
 8001886:	2100      	movs	r1, #0
 8001888:	f882 103f 	strb.w	r1, [r2, #63]	; 0x3f
    hpcd->IN_ep[i].maxpacket = 0U;
 800188c:	6451      	str	r1, [r2, #68]	; 0x44
    hpcd->IN_ep[i].xfer_buff = 0U;
 800188e:	6491      	str	r1, [r2, #72]	; 0x48
    hpcd->IN_ep[i].xfer_len = 0U;
 8001890:	ebc3 02c3 	rsb	r2, r3, r3, lsl #3
 8001894:	eb05 0282 	add.w	r2, r5, r2, lsl #2
 8001898:	6511      	str	r1, [r2, #80]	; 0x50
  for (i = 0U; i < hpcd->Init.dev_endpoints; i++)
 800189a:	3301      	adds	r3, #1
 800189c:	b2db      	uxtb	r3, r3
 800189e:	6869      	ldr	r1, [r5, #4]
 80018a0:	428b      	cmp	r3, r1
 80018a2:	d3e5      	bcc.n	8001870 <HAL_PCD_Init+0x76>
 80018a4:	e016      	b.n	80018d4 <HAL_PCD_Init+0xda>
    hpcd->OUT_ep[i].is_in = 0U;
 80018a6:	ebc4 03c4 	rsb	r3, r4, r4, lsl #3
 80018aa:	eb05 0383 	add.w	r3, r5, r3, lsl #2
 80018ae:	2200      	movs	r2, #0
 80018b0:	f883 21fd 	strb.w	r2, [r3, #509]	; 0x1fd
    hpcd->OUT_ep[i].num = i;
 80018b4:	f883 41fc 	strb.w	r4, [r3, #508]	; 0x1fc
    hpcd->OUT_ep[i].type = EP_TYPE_CTRL;
 80018b8:	f883 21ff 	strb.w	r2, [r3, #511]	; 0x1ff
    hpcd->OUT_ep[i].maxpacket = 0U;
 80018bc:	f8c3 2204 	str.w	r2, [r3, #516]	; 0x204
    hpcd->OUT_ep[i].xfer_buff = 0U;
 80018c0:	f8c3 2208 	str.w	r2, [r3, #520]	; 0x208
    hpcd->OUT_ep[i].xfer_len = 0U;
 80018c4:	ebc4 03c4 	rsb	r3, r4, r4, lsl #3
 80018c8:	eb05 0383 	add.w	r3, r5, r3, lsl #2
 80018cc:	f8c3 2210 	str.w	r2, [r3, #528]	; 0x210
  for (i = 0U; i < hpcd->Init.dev_endpoints; i++)
 80018d0:	3401      	adds	r4, #1
 80018d2:	b2e4      	uxtb	r4, r4
 80018d4:	42a1      	cmp	r1, r4
 80018d6:	d8e6      	bhi.n	80018a6 <HAL_PCD_Init+0xac>
  if (USB_DevInit(hpcd->Instance, hpcd->Init) != HAL_OK)
 80018d8:	462c      	mov	r4, r5
 80018da:	f854 7b10 	ldr.w	r7, [r4], #16
 80018de:	466e      	mov	r6, sp
 80018e0:	cc0f      	ldmia	r4!, {r0, r1, r2, r3}
 80018e2:	c60f      	stmia	r6!, {r0, r1, r2, r3}
 80018e4:	cc0f      	ldmia	r4!, {r0, r1, r2, r3}
 80018e6:	c60f      	stmia	r6!, {r0, r1, r2, r3}
 80018e8:	e894 0003 	ldmia.w	r4, {r0, r1}
 80018ec:	e886 0003 	stmia.w	r6, {r0, r1}
 80018f0:	1d2b      	adds	r3, r5, #4
 80018f2:	cb0e      	ldmia	r3, {r1, r2, r3}
 80018f4:	4638      	mov	r0, r7
 80018f6:	f003 fff1 	bl	80058dc <USB_DevInit>
 80018fa:	4604      	mov	r4, r0
 80018fc:	b960      	cbnz	r0, 8001918 <HAL_PCD_Init+0x11e>
  hpcd->USB_Address = 0U;
 80018fe:	2300      	movs	r3, #0
 8001900:	f885 3038 	strb.w	r3, [r5, #56]	; 0x38
  hpcd->State = HAL_PCD_STATE_READY;
 8001904:	2301      	movs	r3, #1
 8001906:	f885 33bd 	strb.w	r3, [r5, #957]	; 0x3bd
  if (hpcd->Init.lpm_enable == 1U)
 800190a:	6a6b      	ldr	r3, [r5, #36]	; 0x24
 800190c:	2b01      	cmp	r3, #1
 800190e:	d008      	beq.n	8001922 <HAL_PCD_Init+0x128>
  (void)USB_DevDisconnect(hpcd->Instance);
 8001910:	6828      	ldr	r0, [r5, #0]
 8001912:	f004 fba3 	bl	800605c <USB_DevDisconnect>
  return HAL_OK;
 8001916:	e79d      	b.n	8001854 <HAL_PCD_Init+0x5a>
    hpcd->State = HAL_PCD_STATE_ERROR;
 8001918:	2302      	movs	r3, #2
 800191a:	f885 33bd 	strb.w	r3, [r5, #957]	; 0x3bd
    return HAL_ERROR;
 800191e:	2401      	movs	r4, #1
 8001920:	e798      	b.n	8001854 <HAL_PCD_Init+0x5a>
    (void)HAL_PCDEx_ActivateLPM(hpcd);
 8001922:	4628      	mov	r0, r5
 8001924:	f000 fcda 	bl	80022dc <HAL_PCDEx_ActivateLPM>
 8001928:	e7f2      	b.n	8001910 <HAL_PCD_Init+0x116>
    return HAL_ERROR;
 800192a:	2401      	movs	r4, #1
 800192c:	e792      	b.n	8001854 <HAL_PCD_Init+0x5a>

0800192e <HAL_PCD_Start>:
  USB_OTG_GlobalTypeDef *USBx = hpcd->Instance;
 800192e:	6802      	ldr	r2, [r0, #0]
  __HAL_LOCK(hpcd);
 8001930:	f890 33bc 	ldrb.w	r3, [r0, #956]	; 0x3bc
 8001934:	2b01      	cmp	r3, #1
 8001936:	d019      	beq.n	800196c <HAL_PCD_Start+0x3e>
{
 8001938:	b510      	push	{r4, lr}
 800193a:	4604      	mov	r4, r0
  __HAL_LOCK(hpcd);
 800193c:	2301      	movs	r3, #1
 800193e:	f880 33bc 	strb.w	r3, [r0, #956]	; 0x3bc
  if ((hpcd->Init.battery_charging_enable == 1U) &&
 8001942:	6a83      	ldr	r3, [r0, #40]	; 0x28
 8001944:	2b01      	cmp	r3, #1
 8001946:	d009      	beq.n	800195c <HAL_PCD_Start+0x2e>
  (void)USB_DevConnect(hpcd->Instance);
 8001948:	6820      	ldr	r0, [r4, #0]
 800194a:	f004 fb7b 	bl	8006044 <USB_DevConnect>
  __HAL_PCD_ENABLE(hpcd);
 800194e:	6820      	ldr	r0, [r4, #0]
 8001950:	f003 ff72 	bl	8005838 <USB_EnableGlobalInt>
  __HAL_UNLOCK(hpcd);
 8001954:	2000      	movs	r0, #0
 8001956:	f884 03bc 	strb.w	r0, [r4, #956]	; 0x3bc
}
 800195a:	bd10      	pop	{r4, pc}
      (hpcd->Init.phy_itface != USB_OTG_ULPI_PHY))
 800195c:	6983      	ldr	r3, [r0, #24]
  if ((hpcd->Init.battery_charging_enable == 1U) &&
 800195e:	2b01      	cmp	r3, #1
 8001960:	d0f2      	beq.n	8001948 <HAL_PCD_Start+0x1a>
    USBx->GCCFG |= USB_OTG_GCCFG_PWRDWN;
 8001962:	6b93      	ldr	r3, [r2, #56]	; 0x38
 8001964:	f443 3380 	orr.w	r3, r3, #65536	; 0x10000
 8001968:	6393      	str	r3, [r2, #56]	; 0x38
 800196a:	e7ed      	b.n	8001948 <HAL_PCD_Start+0x1a>
  __HAL_LOCK(hpcd);
 800196c:	2002      	movs	r0, #2
}
 800196e:	4770      	bx	lr

08001970 <PCD_EP_OutXfrComplete_int>:
  * @param  hpcd PCD handle
  * @param  epnum endpoint number
  * @retval HAL status
  */
static HAL_StatusTypeDef PCD_EP_OutXfrComplete_int(PCD_HandleTypeDef *hpcd, uint32_t epnum)
{
 8001970:	b570      	push	{r4, r5, r6, lr}
 8001972:	4604      	mov	r4, r0
 8001974:	460d      	mov	r5, r1
  USB_OTG_GlobalTypeDef *USBx = hpcd->Instance;
 8001976:	6800      	ldr	r0, [r0, #0]
  uint32_t USBx_BASE = (uint32_t)USBx;
  uint32_t gSNPSiD = *(__IO uint32_t *)(&USBx->CID + 0x1U);
 8001978:	6c06      	ldr	r6, [r0, #64]	; 0x40
  uint32_t DoepintReg = USBx_OUTEP(epnum)->DOEPINT;
 800197a:	eb00 1341 	add.w	r3, r0, r1, lsl #5
 800197e:	f503 6330 	add.w	r3, r3, #2816	; 0xb00
 8001982:	689a      	ldr	r2, [r3, #8]

  if (hpcd->Init.dma_enable == 1U)
 8001984:	6921      	ldr	r1, [r4, #16]
 8001986:	2901      	cmp	r1, #1
 8001988:	d011      	beq.n	80019ae <PCD_EP_OutXfrComplete_int+0x3e>
      /* ... */
    }
  }
  else
  {
    if (gSNPSiD == USB_OTG_CORE_ID_310A)
 800198a:	4935      	ldr	r1, [pc, #212]	; (8001a60 <PCD_EP_OutXfrComplete_int+0xf0>)
 800198c:	428e      	cmp	r6, r1
 800198e:	d050      	beq.n	8001a32 <PCD_EP_OutXfrComplete_int+0xc2>
#endif /* USE_HAL_PCD_REGISTER_CALLBACKS */
      }
    }
    else
    {
      if ((epnum == 0U) && (hpcd->OUT_ep[epnum].xfer_len == 0U))
 8001990:	b93d      	cbnz	r5, 80019a2 <PCD_EP_OutXfrComplete_int+0x32>
 8001992:	ebc5 03c5 	rsb	r3, r5, r5, lsl #3
 8001996:	eb04 0383 	add.w	r3, r4, r3, lsl #2
 800199a:	f8d3 3210 	ldr.w	r3, [r3, #528]	; 0x210
 800199e:	2b00      	cmp	r3, #0
 80019a0:	d058      	beq.n	8001a54 <PCD_EP_OutXfrComplete_int+0xe4>
      }

#if (USE_HAL_PCD_REGISTER_CALLBACKS == 1U)
      hpcd->DataOutStageCallback(hpcd, (uint8_t)epnum);
#else
      HAL_PCD_DataOutStageCallback(hpcd, (uint8_t)epnum);
 80019a2:	b2e9      	uxtb	r1, r5
 80019a4:	4620      	mov	r0, r4
 80019a6:	f006 fa7d 	bl	8007ea4 <HAL_PCD_DataOutStageCallback>
#endif /* USE_HAL_PCD_REGISTER_CALLBACKS */
    }
  }

  return HAL_OK;
}
 80019aa:	2000      	movs	r0, #0
 80019ac:	bd70      	pop	{r4, r5, r6, pc}
    if ((DoepintReg & USB_OTG_DOEPINT_STUP) == USB_OTG_DOEPINT_STUP) /* Class C */
 80019ae:	f012 0f08 	tst.w	r2, #8
 80019b2:	d009      	beq.n	80019c8 <PCD_EP_OutXfrComplete_int+0x58>
      if ((gSNPSiD > USB_OTG_CORE_ID_300A) &&
 80019b4:	492b      	ldr	r1, [pc, #172]	; (8001a64 <PCD_EP_OutXfrComplete_int+0xf4>)
 80019b6:	428e      	cmp	r6, r1
 80019b8:	d9f7      	bls.n	80019aa <PCD_EP_OutXfrComplete_int+0x3a>
 80019ba:	f412 4f00 	tst.w	r2, #32768	; 0x8000
 80019be:	d0f4      	beq.n	80019aa <PCD_EP_OutXfrComplete_int+0x3a>
        CLEAR_OUT_EP_INTR(epnum, USB_OTG_DOEPINT_STPKTRX);
 80019c0:	f44f 4200 	mov.w	r2, #32768	; 0x8000
 80019c4:	609a      	str	r2, [r3, #8]
 80019c6:	e7f0      	b.n	80019aa <PCD_EP_OutXfrComplete_int+0x3a>
    else if ((DoepintReg & USB_OTG_DOEPINT_OTEPSPR) == USB_OTG_DOEPINT_OTEPSPR) /* Class E */
 80019c8:	f012 0f20 	tst.w	r2, #32
 80019cc:	d002      	beq.n	80019d4 <PCD_EP_OutXfrComplete_int+0x64>
      CLEAR_OUT_EP_INTR(epnum, USB_OTG_DOEPINT_OTEPSPR);
 80019ce:	2220      	movs	r2, #32
 80019d0:	609a      	str	r2, [r3, #8]
 80019d2:	e7ea      	b.n	80019aa <PCD_EP_OutXfrComplete_int+0x3a>
    else if ((DoepintReg & (USB_OTG_DOEPINT_STUP | USB_OTG_DOEPINT_OTEPSPR)) == 0U)
 80019d4:	f012 0f28 	tst.w	r2, #40	; 0x28
 80019d8:	d1e7      	bne.n	80019aa <PCD_EP_OutXfrComplete_int+0x3a>
      if ((gSNPSiD > USB_OTG_CORE_ID_300A) &&
 80019da:	4922      	ldr	r1, [pc, #136]	; (8001a64 <PCD_EP_OutXfrComplete_int+0xf4>)
 80019dc:	428e      	cmp	r6, r1
 80019de:	d906      	bls.n	80019ee <PCD_EP_OutXfrComplete_int+0x7e>
 80019e0:	f412 4f00 	tst.w	r2, #32768	; 0x8000
 80019e4:	d003      	beq.n	80019ee <PCD_EP_OutXfrComplete_int+0x7e>
        CLEAR_OUT_EP_INTR(epnum, USB_OTG_DOEPINT_STPKTRX);
 80019e6:	f44f 4200 	mov.w	r2, #32768	; 0x8000
 80019ea:	609a      	str	r2, [r3, #8]
 80019ec:	e7dd      	b.n	80019aa <PCD_EP_OutXfrComplete_int+0x3a>
          hpcd->OUT_ep[epnum].maxpacket -
 80019ee:	ebc5 02c5 	rsb	r2, r5, r5, lsl #3
 80019f2:	eb04 0282 	add.w	r2, r4, r2, lsl #2
 80019f6:	f8d2 1204 	ldr.w	r1, [r2, #516]	; 0x204
          (USBx_OUTEP(epnum)->DOEPTSIZ & USB_OTG_DOEPTSIZ_XFRSIZ);
 80019fa:	691b      	ldr	r3, [r3, #16]
 80019fc:	f3c3 0312 	ubfx	r3, r3, #0, #19
          hpcd->OUT_ep[epnum].maxpacket -
 8001a00:	1ac9      	subs	r1, r1, r3
        hpcd->OUT_ep[epnum].xfer_count =
 8001a02:	f8c2 1214 	str.w	r1, [r2, #532]	; 0x214
        hpcd->OUT_ep[epnum].xfer_buff += hpcd->OUT_ep[epnum].maxpacket;
 8001a06:	f8d2 1204 	ldr.w	r1, [r2, #516]	; 0x204
 8001a0a:	f8d2 3208 	ldr.w	r3, [r2, #520]	; 0x208
 8001a0e:	440b      	add	r3, r1
 8001a10:	f8c2 3208 	str.w	r3, [r2, #520]	; 0x208
        if ((epnum == 0U) && (hpcd->OUT_ep[epnum].xfer_len == 0U))
 8001a14:	b915      	cbnz	r5, 8001a1c <PCD_EP_OutXfrComplete_int+0xac>
 8001a16:	f8d2 3210 	ldr.w	r3, [r2, #528]	; 0x210
 8001a1a:	b123      	cbz	r3, 8001a26 <PCD_EP_OutXfrComplete_int+0xb6>
        HAL_PCD_DataOutStageCallback(hpcd, (uint8_t)epnum);
 8001a1c:	b2e9      	uxtb	r1, r5
 8001a1e:	4620      	mov	r0, r4
 8001a20:	f006 fa40 	bl	8007ea4 <HAL_PCD_DataOutStageCallback>
 8001a24:	e7c1      	b.n	80019aa <PCD_EP_OutXfrComplete_int+0x3a>
          (void)USB_EP0_OutStart(hpcd->Instance, 1U, (uint8_t *)hpcd->Setup);
 8001a26:	f504 7271 	add.w	r2, r4, #964	; 0x3c4
 8001a2a:	2101      	movs	r1, #1
 8001a2c:	f004 fb68 	bl	8006100 <USB_EP0_OutStart>
 8001a30:	e7f4      	b.n	8001a1c <PCD_EP_OutXfrComplete_int+0xac>
      if ((DoepintReg & USB_OTG_DOEPINT_STPKTRX) == USB_OTG_DOEPINT_STPKTRX)
 8001a32:	f412 4f00 	tst.w	r2, #32768	; 0x8000
 8001a36:	d003      	beq.n	8001a40 <PCD_EP_OutXfrComplete_int+0xd0>
        CLEAR_OUT_EP_INTR(epnum, USB_OTG_DOEPINT_STPKTRX);
 8001a38:	f44f 4200 	mov.w	r2, #32768	; 0x8000
 8001a3c:	609a      	str	r2, [r3, #8]
 8001a3e:	e7b4      	b.n	80019aa <PCD_EP_OutXfrComplete_int+0x3a>
        if ((DoepintReg & USB_OTG_DOEPINT_OTEPSPR) == USB_OTG_DOEPINT_OTEPSPR)
 8001a40:	f012 0f20 	tst.w	r2, #32
 8001a44:	d001      	beq.n	8001a4a <PCD_EP_OutXfrComplete_int+0xda>
          CLEAR_OUT_EP_INTR(epnum, USB_OTG_DOEPINT_OTEPSPR);
 8001a46:	2220      	movs	r2, #32
 8001a48:	609a      	str	r2, [r3, #8]
        HAL_PCD_DataOutStageCallback(hpcd, (uint8_t)epnum);
 8001a4a:	b2e9      	uxtb	r1, r5
 8001a4c:	4620      	mov	r0, r4
 8001a4e:	f006 fa29 	bl	8007ea4 <HAL_PCD_DataOutStageCallback>
 8001a52:	e7aa      	b.n	80019aa <PCD_EP_OutXfrComplete_int+0x3a>
        (void)USB_EP0_OutStart(hpcd->Instance, 0U, (uint8_t *)hpcd->Setup);
 8001a54:	f504 7271 	add.w	r2, r4, #964	; 0x3c4
 8001a58:	2100      	movs	r1, #0
 8001a5a:	f004 fb51 	bl	8006100 <USB_EP0_OutStart>
 8001a5e:	e7a0      	b.n	80019a2 <PCD_EP_OutXfrComplete_int+0x32>
 8001a60:	4f54310a 	.word	0x4f54310a
 8001a64:	4f54300a 	.word	0x4f54300a

08001a68 <PCD_EP_OutSetupPacket_int>:
  * @param  hpcd PCD handle
  * @param  epnum endpoint number
  * @retval HAL status
  */
static HAL_StatusTypeDef PCD_EP_OutSetupPacket_int(PCD_HandleTypeDef *hpcd, uint32_t epnum)
{
 8001a68:	b538      	push	{r3, r4, r5, lr}
 8001a6a:	4604      	mov	r4, r0
  USB_OTG_GlobalTypeDef *USBx = hpcd->Instance;
 8001a6c:	6803      	ldr	r3, [r0, #0]
  uint32_t USBx_BASE = (uint32_t)USBx;
  uint32_t gSNPSiD = *(__IO uint32_t *)(&USBx->CID + 0x1U);
 8001a6e:	6c1d      	ldr	r5, [r3, #64]	; 0x40
  uint32_t DoepintReg = USBx_OUTEP(epnum)->DOEPINT;
 8001a70:	eb03 1341 	add.w	r3, r3, r1, lsl #5
 8001a74:	f8d3 1b08 	ldr.w	r1, [r3, #2824]	; 0xb08

  if ((gSNPSiD > USB_OTG_CORE_ID_300A) &&
 8001a78:	4a0e      	ldr	r2, [pc, #56]	; (8001ab4 <PCD_EP_OutSetupPacket_int+0x4c>)
 8001a7a:	4295      	cmp	r5, r2
 8001a7c:	d907      	bls.n	8001a8e <PCD_EP_OutSetupPacket_int+0x26>
 8001a7e:	f503 6330 	add.w	r3, r3, #2816	; 0xb00
 8001a82:	f411 4f00 	tst.w	r1, #32768	; 0x8000
 8001a86:	d002      	beq.n	8001a8e <PCD_EP_OutSetupPacket_int+0x26>
      ((DoepintReg & USB_OTG_DOEPINT_STPKTRX) == USB_OTG_DOEPINT_STPKTRX))
  {
    CLEAR_OUT_EP_INTR(epnum, USB_OTG_DOEPINT_STPKTRX);
 8001a88:	f44f 4200 	mov.w	r2, #32768	; 0x8000
 8001a8c:	609a      	str	r2, [r3, #8]

  /* Inform the upper layer that a setup packet is available */
#if (USE_HAL_PCD_REGISTER_CALLBACKS == 1U)
  hpcd->SetupStageCallback(hpcd);
#else
  HAL_PCD_SetupStageCallback(hpcd);
 8001a8e:	4620      	mov	r0, r4
 8001a90:	f006 fa00 	bl	8007e94 <HAL_PCD_SetupStageCallback>
#endif /* USE_HAL_PCD_REGISTER_CALLBACKS */

  if ((gSNPSiD > USB_OTG_CORE_ID_300A) && (hpcd->Init.dma_enable == 1U))
 8001a94:	4b07      	ldr	r3, [pc, #28]	; (8001ab4 <PCD_EP_OutSetupPacket_int+0x4c>)
 8001a96:	429d      	cmp	r5, r3
 8001a98:	d902      	bls.n	8001aa0 <PCD_EP_OutSetupPacket_int+0x38>
 8001a9a:	6923      	ldr	r3, [r4, #16]
 8001a9c:	2b01      	cmp	r3, #1
 8001a9e:	d001      	beq.n	8001aa4 <PCD_EP_OutSetupPacket_int+0x3c>
  {
    (void)USB_EP0_OutStart(hpcd->Instance, 1U, (uint8_t *)hpcd->Setup);
  }

  return HAL_OK;
}
 8001aa0:	2000      	movs	r0, #0
 8001aa2:	bd38      	pop	{r3, r4, r5, pc}
    (void)USB_EP0_OutStart(hpcd->Instance, 1U, (uint8_t *)hpcd->Setup);
 8001aa4:	f504 7271 	add.w	r2, r4, #964	; 0x3c4
 8001aa8:	2101      	movs	r1, #1
 8001aaa:	6820      	ldr	r0, [r4, #0]
 8001aac:	f004 fb28 	bl	8006100 <USB_EP0_OutStart>
 8001ab0:	e7f6      	b.n	8001aa0 <PCD_EP_OutSetupPacket_int+0x38>
 8001ab2:	bf00      	nop
 8001ab4:	4f54300a 	.word	0x4f54300a

08001ab8 <HAL_PCD_IRQHandler>:
{
 8001ab8:	e92d 4ff0 	stmdb	sp!, {r4, r5, r6, r7, r8, r9, sl, fp, lr}
 8001abc:	b083      	sub	sp, #12
 8001abe:	4604      	mov	r4, r0
  USB_OTG_GlobalTypeDef *USBx = hpcd->Instance;
 8001ac0:	6805      	ldr	r5, [r0, #0]
  if (USB_GetMode(hpcd->Instance) == USB_OTG_MODE_DEVICE)
 8001ac2:	4628      	mov	r0, r5
 8001ac4:	f004 fb07 	bl	80060d6 <USB_GetMode>
 8001ac8:	b110      	cbz	r0, 8001ad0 <HAL_PCD_IRQHandler+0x18>
}
 8001aca:	b003      	add	sp, #12
 8001acc:	e8bd 8ff0 	ldmia.w	sp!, {r4, r5, r6, r7, r8, r9, sl, fp, pc}
 8001ad0:	462f      	mov	r7, r5
 8001ad2:	4606      	mov	r6, r0
    if (__HAL_PCD_IS_INVALID_INTERRUPT(hpcd))
 8001ad4:	6820      	ldr	r0, [r4, #0]
 8001ad6:	f004 facd 	bl	8006074 <USB_ReadInterrupts>
 8001ada:	2800      	cmp	r0, #0
 8001adc:	d0f5      	beq.n	8001aca <HAL_PCD_IRQHandler+0x12>
    if (__HAL_PCD_GET_FLAG(hpcd, USB_OTG_GINTSTS_MMIS))
 8001ade:	6820      	ldr	r0, [r4, #0]
 8001ae0:	f004 fac8 	bl	8006074 <USB_ReadInterrupts>
 8001ae4:	f010 0f02 	tst.w	r0, #2
 8001ae8:	d004      	beq.n	8001af4 <HAL_PCD_IRQHandler+0x3c>
      __HAL_PCD_CLEAR_FLAG(hpcd, USB_OTG_GINTSTS_MMIS);
 8001aea:	6822      	ldr	r2, [r4, #0]
 8001aec:	6953      	ldr	r3, [r2, #20]
 8001aee:	f003 0302 	and.w	r3, r3, #2
 8001af2:	6153      	str	r3, [r2, #20]
    if (__HAL_PCD_GET_FLAG(hpcd, USB_OTG_GINTSTS_RXFLVL))
 8001af4:	6820      	ldr	r0, [r4, #0]
 8001af6:	f004 fabd 	bl	8006074 <USB_ReadInterrupts>
 8001afa:	f010 0f10 	tst.w	r0, #16
 8001afe:	d015      	beq.n	8001b2c <HAL_PCD_IRQHandler+0x74>
      USB_MASK_INTERRUPT(hpcd->Instance, USB_OTG_GINTSTS_RXFLVL);
 8001b00:	6822      	ldr	r2, [r4, #0]
 8001b02:	6993      	ldr	r3, [r2, #24]
 8001b04:	f023 0310 	bic.w	r3, r3, #16
 8001b08:	6193      	str	r3, [r2, #24]
      temp = USBx->GRXSTSP;
 8001b0a:	f8d5 8020 	ldr.w	r8, [r5, #32]
      ep = &hpcd->OUT_ep[temp & USB_OTG_GRXSTSP_EPNUM];
 8001b0e:	f008 090f 	and.w	r9, r8, #15
      if (((temp & USB_OTG_GRXSTSP_PKTSTS) >> 17) ==  STS_DATA_UPDT)
 8001b12:	f3c8 4343 	ubfx	r3, r8, #17, #4
 8001b16:	2b02      	cmp	r3, #2
 8001b18:	f000 8085 	beq.w	8001c26 <HAL_PCD_IRQHandler+0x16e>
      else if (((temp & USB_OTG_GRXSTSP_PKTSTS) >> 17) ==  STS_SETUP_UPDT)
 8001b1c:	2b06      	cmp	r3, #6
 8001b1e:	f000 80aa 	beq.w	8001c76 <HAL_PCD_IRQHandler+0x1be>
      USB_UNMASK_INTERRUPT(hpcd->Instance, USB_OTG_GINTSTS_RXFLVL);
 8001b22:	6822      	ldr	r2, [r4, #0]
 8001b24:	6993      	ldr	r3, [r2, #24]
 8001b26:	f043 0310 	orr.w	r3, r3, #16
 8001b2a:	6193      	str	r3, [r2, #24]
    if (__HAL_PCD_GET_FLAG(hpcd, USB_OTG_GINTSTS_OEPINT))
 8001b2c:	6820      	ldr	r0, [r4, #0]
 8001b2e:	f004 faa1 	bl	8006074 <USB_ReadInterrupts>
 8001b32:	f410 2f00 	tst.w	r0, #524288	; 0x80000
 8001b36:	f040 80b0 	bne.w	8001c9a <HAL_PCD_IRQHandler+0x1e2>
    if (__HAL_PCD_GET_FLAG(hpcd, USB_OTG_GINTSTS_IEPINT))
 8001b3a:	6820      	ldr	r0, [r4, #0]
 8001b3c:	f004 fa9a 	bl	8006074 <USB_ReadInterrupts>
 8001b40:	f410 2f80 	tst.w	r0, #262144	; 0x40000
 8001b44:	f040 80f4 	bne.w	8001d30 <HAL_PCD_IRQHandler+0x278>
    if (__HAL_PCD_GET_FLAG(hpcd, USB_OTG_GINTSTS_WKUINT))
 8001b48:	6820      	ldr	r0, [r4, #0]
 8001b4a:	f004 fa93 	bl	8006074 <USB_ReadInterrupts>
 8001b4e:	2800      	cmp	r0, #0
 8001b50:	f2c0 8160 	blt.w	8001e14 <HAL_PCD_IRQHandler+0x35c>
    if (__HAL_PCD_GET_FLAG(hpcd, USB_OTG_GINTSTS_USBSUSP))
 8001b54:	6820      	ldr	r0, [r4, #0]
 8001b56:	f004 fa8d 	bl	8006074 <USB_ReadInterrupts>
 8001b5a:	f410 6f00 	tst.w	r0, #2048	; 0x800
 8001b5e:	d00a      	beq.n	8001b76 <HAL_PCD_IRQHandler+0xbe>
      if ((USBx_DEVICE->DSTS & USB_OTG_DSTS_SUSPSTS) == USB_OTG_DSTS_SUSPSTS)
 8001b60:	f8d5 3808 	ldr.w	r3, [r5, #2056]	; 0x808
 8001b64:	f013 0f01 	tst.w	r3, #1
 8001b68:	f040 816e 	bne.w	8001e48 <HAL_PCD_IRQHandler+0x390>
      __HAL_PCD_CLEAR_FLAG(hpcd, USB_OTG_GINTSTS_USBSUSP);
 8001b6c:	6822      	ldr	r2, [r4, #0]
 8001b6e:	6953      	ldr	r3, [r2, #20]
 8001b70:	f403 6300 	and.w	r3, r3, #2048	; 0x800
 8001b74:	6153      	str	r3, [r2, #20]
    if (__HAL_PCD_GET_FLAG(hpcd, USB_OTG_GINTSTS_LPMINT))
 8001b76:	6820      	ldr	r0, [r4, #0]
 8001b78:	f004 fa7c 	bl	8006074 <USB_ReadInterrupts>
 8001b7c:	f010 6f00 	tst.w	r0, #134217728	; 0x8000000
 8001b80:	d015      	beq.n	8001bae <HAL_PCD_IRQHandler+0xf6>
      __HAL_PCD_CLEAR_FLAG(hpcd, USB_OTG_GINTSTS_LPMINT);
 8001b82:	6822      	ldr	r2, [r4, #0]
 8001b84:	6953      	ldr	r3, [r2, #20]
 8001b86:	f003 6300 	and.w	r3, r3, #134217728	; 0x8000000
 8001b8a:	6153      	str	r3, [r2, #20]
      if (hpcd->LPM_State == LPM_L0)
 8001b8c:	f894 33f4 	ldrb.w	r3, [r4, #1012]	; 0x3f4
 8001b90:	2b00      	cmp	r3, #0
 8001b92:	f040 815d 	bne.w	8001e50 <HAL_PCD_IRQHandler+0x398>
        hpcd->LPM_State = LPM_L1;
 8001b96:	2101      	movs	r1, #1
 8001b98:	f884 13f4 	strb.w	r1, [r4, #1012]	; 0x3f4
        hpcd->BESL = (hpcd->Instance->GLPMCFG & USB_OTG_GLPMCFG_BESL) >> 2U;
 8001b9c:	6823      	ldr	r3, [r4, #0]
 8001b9e:	6d5b      	ldr	r3, [r3, #84]	; 0x54
 8001ba0:	f3c3 0383 	ubfx	r3, r3, #2, #4
 8001ba4:	f8c4 33f8 	str.w	r3, [r4, #1016]	; 0x3f8
        HAL_PCDEx_LPM_Callback(hpcd, PCD_LPM_L1_ACTIVE);
 8001ba8:	4620      	mov	r0, r4
 8001baa:	f000 fbab 	bl	8002304 <HAL_PCDEx_LPM_Callback>
    if (__HAL_PCD_GET_FLAG(hpcd, USB_OTG_GINTSTS_USBRST))
 8001bae:	6820      	ldr	r0, [r4, #0]
 8001bb0:	f004 fa60 	bl	8006074 <USB_ReadInterrupts>
 8001bb4:	f410 5f80 	tst.w	r0, #4096	; 0x1000
 8001bb8:	f040 814e 	bne.w	8001e58 <HAL_PCD_IRQHandler+0x3a0>
    if (__HAL_PCD_GET_FLAG(hpcd, USB_OTG_GINTSTS_ENUMDNE))
 8001bbc:	6820      	ldr	r0, [r4, #0]
 8001bbe:	f004 fa59 	bl	8006074 <USB_ReadInterrupts>
 8001bc2:	f410 5f00 	tst.w	r0, #8192	; 0x2000
 8001bc6:	f040 81ac 	bne.w	8001f22 <HAL_PCD_IRQHandler+0x46a>
    if (__HAL_PCD_GET_FLAG(hpcd, USB_OTG_GINTSTS_SOF))
 8001bca:	6820      	ldr	r0, [r4, #0]
 8001bcc:	f004 fa52 	bl	8006074 <USB_ReadInterrupts>
 8001bd0:	f010 0f08 	tst.w	r0, #8
 8001bd4:	f040 81bd 	bne.w	8001f52 <HAL_PCD_IRQHandler+0x49a>
    if (__HAL_PCD_GET_FLAG(hpcd, USB_OTG_GINTSTS_IISOIXFR))
 8001bd8:	6820      	ldr	r0, [r4, #0]
 8001bda:	f004 fa4b 	bl	8006074 <USB_ReadInterrupts>
 8001bde:	f410 1f80 	tst.w	r0, #1048576	; 0x100000
 8001be2:	f040 81bf 	bne.w	8001f64 <HAL_PCD_IRQHandler+0x4ac>
    if (__HAL_PCD_GET_FLAG(hpcd, USB_OTG_GINTSTS_PXFR_INCOMPISOOUT))
 8001be6:	6820      	ldr	r0, [r4, #0]
 8001be8:	f004 fa44 	bl	8006074 <USB_ReadInterrupts>
 8001bec:	f410 1f00 	tst.w	r0, #2097152	; 0x200000
 8001bf0:	f040 81c2 	bne.w	8001f78 <HAL_PCD_IRQHandler+0x4c0>
    if (__HAL_PCD_GET_FLAG(hpcd, USB_OTG_GINTSTS_SRQINT))
 8001bf4:	6820      	ldr	r0, [r4, #0]
 8001bf6:	f004 fa3d 	bl	8006074 <USB_ReadInterrupts>
 8001bfa:	f010 4f80 	tst.w	r0, #1073741824	; 0x40000000
 8001bfe:	f040 81c5 	bne.w	8001f8c <HAL_PCD_IRQHandler+0x4d4>
    if (__HAL_PCD_GET_FLAG(hpcd, USB_OTG_GINTSTS_OTGINT))
 8001c02:	6820      	ldr	r0, [r4, #0]
 8001c04:	f004 fa36 	bl	8006074 <USB_ReadInterrupts>
 8001c08:	f010 0f04 	tst.w	r0, #4
 8001c0c:	f43f af5d 	beq.w	8001aca <HAL_PCD_IRQHandler+0x12>
      temp = hpcd->Instance->GOTGINT;
 8001c10:	6823      	ldr	r3, [r4, #0]
 8001c12:	685d      	ldr	r5, [r3, #4]
      if ((temp & USB_OTG_GOTGINT_SEDET) == USB_OTG_GOTGINT_SEDET)
 8001c14:	f015 0f04 	tst.w	r5, #4
 8001c18:	f040 81c1 	bne.w	8001f9e <HAL_PCD_IRQHandler+0x4e6>
      hpcd->Instance->GOTGINT |= temp;
 8001c1c:	6822      	ldr	r2, [r4, #0]
 8001c1e:	6853      	ldr	r3, [r2, #4]
 8001c20:	432b      	orrs	r3, r5
 8001c22:	6053      	str	r3, [r2, #4]
 8001c24:	e751      	b.n	8001aca <HAL_PCD_IRQHandler+0x12>
        if ((temp & USB_OTG_GRXSTSP_BCNT) != 0U)
 8001c26:	f647 73f0 	movw	r3, #32752	; 0x7ff0
 8001c2a:	ea18 0f03 	tst.w	r8, r3
 8001c2e:	f43f af78 	beq.w	8001b22 <HAL_PCD_IRQHandler+0x6a>
                               (uint16_t)((temp & USB_OTG_GRXSTSP_BCNT) >> 4));
 8001c32:	ea4f 1b18 	mov.w	fp, r8, lsr #4
          (void)USB_ReadPacket(USBx, ep->xfer_buff,
 8001c36:	ea4f 03c9 	mov.w	r3, r9, lsl #3
 8001c3a:	9301      	str	r3, [sp, #4]
 8001c3c:	ebc9 0ac9 	rsb	sl, r9, r9, lsl #3
 8001c40:	eb04 0a8a 	add.w	sl, r4, sl, lsl #2
 8001c44:	f3c8 120a 	ubfx	r2, r8, #4, #11
 8001c48:	f8da 1208 	ldr.w	r1, [sl, #520]	; 0x208
 8001c4c:	4628      	mov	r0, r5
 8001c4e:	f004 f97d 	bl	8005f4c <USB_ReadPacket>
          ep->xfer_buff += (temp & USB_OTG_GRXSTSP_BCNT) >> 4;
 8001c52:	f3cb 0b0a 	ubfx	fp, fp, #0, #11
 8001c56:	f8da 3208 	ldr.w	r3, [sl, #520]	; 0x208
 8001c5a:	445b      	add	r3, fp
 8001c5c:	f8ca 3208 	str.w	r3, [sl, #520]	; 0x208
          ep->xfer_count += (temp & USB_OTG_GRXSTSP_BCNT) >> 4;
 8001c60:	9b01      	ldr	r3, [sp, #4]
 8001c62:	eba3 0309 	sub.w	r3, r3, r9
 8001c66:	eb04 0383 	add.w	r3, r4, r3, lsl #2
 8001c6a:	f8d3 3214 	ldr.w	r3, [r3, #532]	; 0x214
 8001c6e:	445b      	add	r3, fp
 8001c70:	f8ca 3214 	str.w	r3, [sl, #532]	; 0x214
 8001c74:	e755      	b.n	8001b22 <HAL_PCD_IRQHandler+0x6a>
        (void)USB_ReadPacket(USBx, (uint8_t *)hpcd->Setup, 8U);
 8001c76:	2208      	movs	r2, #8
 8001c78:	f504 7171 	add.w	r1, r4, #964	; 0x3c4
 8001c7c:	4628      	mov	r0, r5
 8001c7e:	f004 f965 	bl	8005f4c <USB_ReadPacket>
        ep->xfer_count += (temp & USB_OTG_GRXSTSP_BCNT) >> 4;
 8001c82:	f3c8 180a 	ubfx	r8, r8, #4, #11
 8001c86:	ebc9 02c9 	rsb	r2, r9, r9, lsl #3
 8001c8a:	eb04 0282 	add.w	r2, r4, r2, lsl #2
 8001c8e:	f8d2 3214 	ldr.w	r3, [r2, #532]	; 0x214
 8001c92:	4443      	add	r3, r8
 8001c94:	f8c2 3214 	str.w	r3, [r2, #532]	; 0x214
 8001c98:	e743      	b.n	8001b22 <HAL_PCD_IRQHandler+0x6a>
      ep_intr = USB_ReadDevAllOutEpInterrupt(hpcd->Instance);
 8001c9a:	6820      	ldr	r0, [r4, #0]
 8001c9c:	f004 f9ee 	bl	800607c <USB_ReadDevAllOutEpInterrupt>
 8001ca0:	4680      	mov	r8, r0
      epnum = 0U;
 8001ca2:	46b1      	mov	r9, r6
      while (ep_intr != 0U)
 8001ca4:	e017      	b.n	8001cd6 <HAL_PCD_IRQHandler+0x21e>
            CLEAR_OUT_EP_INTR(epnum, USB_OTG_DOEPINT_XFRC);
 8001ca6:	eb07 1349 	add.w	r3, r7, r9, lsl #5
 8001caa:	2201      	movs	r2, #1
 8001cac:	f8c3 2b08 	str.w	r2, [r3, #2824]	; 0xb08
            (void)PCD_EP_OutXfrComplete_int(hpcd, epnum);
 8001cb0:	4649      	mov	r1, r9
 8001cb2:	4620      	mov	r0, r4
 8001cb4:	f7ff fe5c 	bl	8001970 <PCD_EP_OutXfrComplete_int>
 8001cb8:	e01d      	b.n	8001cf6 <HAL_PCD_IRQHandler+0x23e>
            CLEAR_OUT_EP_INTR(epnum, USB_OTG_DOEPINT_STUP);
 8001cba:	eb07 1349 	add.w	r3, r7, r9, lsl #5
 8001cbe:	2208      	movs	r2, #8
 8001cc0:	f8c3 2b08 	str.w	r2, [r3, #2824]	; 0xb08
            (void)PCD_EP_OutSetupPacket_int(hpcd, epnum);
 8001cc4:	4649      	mov	r1, r9
 8001cc6:	4620      	mov	r0, r4
 8001cc8:	f7ff fece 	bl	8001a68 <PCD_EP_OutSetupPacket_int>
 8001ccc:	e016      	b.n	8001cfc <HAL_PCD_IRQHandler+0x244>
        epnum++;
 8001cce:	f109 0901 	add.w	r9, r9, #1
        ep_intr >>= 1U;
 8001cd2:	ea4f 0858 	mov.w	r8, r8, lsr #1
      while (ep_intr != 0U)
 8001cd6:	f1b8 0f00 	cmp.w	r8, #0
 8001cda:	f43f af2e 	beq.w	8001b3a <HAL_PCD_IRQHandler+0x82>
        if ((ep_intr & 0x1U) != 0U)
 8001cde:	f018 0f01 	tst.w	r8, #1
 8001ce2:	d0f4      	beq.n	8001cce <HAL_PCD_IRQHandler+0x216>
          epint = USB_ReadDevOutEPInterrupt(hpcd->Instance, (uint8_t)epnum);
 8001ce4:	fa5f f189 	uxtb.w	r1, r9
 8001ce8:	6820      	ldr	r0, [r4, #0]
 8001cea:	f004 f9d7 	bl	800609c <USB_ReadDevOutEPInterrupt>
 8001cee:	4682      	mov	sl, r0
          if ((epint & USB_OTG_DOEPINT_XFRC) == USB_OTG_DOEPINT_XFRC)
 8001cf0:	f010 0f01 	tst.w	r0, #1
 8001cf4:	d1d7      	bne.n	8001ca6 <HAL_PCD_IRQHandler+0x1ee>
          if ((epint & USB_OTG_DOEPINT_STUP) == USB_OTG_DOEPINT_STUP)
 8001cf6:	f01a 0f08 	tst.w	sl, #8
 8001cfa:	d1de      	bne.n	8001cba <HAL_PCD_IRQHandler+0x202>
          if ((epint & USB_OTG_DOEPINT_OTEPDIS) == USB_OTG_DOEPINT_OTEPDIS)
 8001cfc:	f01a 0f10 	tst.w	sl, #16
 8001d00:	d004      	beq.n	8001d0c <HAL_PCD_IRQHandler+0x254>
            CLEAR_OUT_EP_INTR(epnum, USB_OTG_DOEPINT_OTEPDIS);
 8001d02:	eb07 1349 	add.w	r3, r7, r9, lsl #5
 8001d06:	2210      	movs	r2, #16
 8001d08:	f8c3 2b08 	str.w	r2, [r3, #2824]	; 0xb08
          if ((epint & USB_OTG_DOEPINT_OTEPSPR) == USB_OTG_DOEPINT_OTEPSPR)
 8001d0c:	f01a 0f20 	tst.w	sl, #32
 8001d10:	d004      	beq.n	8001d1c <HAL_PCD_IRQHandler+0x264>
            CLEAR_OUT_EP_INTR(epnum, USB_OTG_DOEPINT_OTEPSPR);
 8001d12:	eb07 1349 	add.w	r3, r7, r9, lsl #5
 8001d16:	2220      	movs	r2, #32
 8001d18:	f8c3 2b08 	str.w	r2, [r3, #2824]	; 0xb08
          if ((epint & USB_OTG_DOEPINT_NAK) == USB_OTG_DOEPINT_NAK)
 8001d1c:	f41a 5f00 	tst.w	sl, #8192	; 0x2000
 8001d20:	d0d5      	beq.n	8001cce <HAL_PCD_IRQHandler+0x216>
            CLEAR_OUT_EP_INTR(epnum, USB_OTG_DOEPINT_NAK);
 8001d22:	eb07 1349 	add.w	r3, r7, r9, lsl #5
 8001d26:	f44f 5200 	mov.w	r2, #8192	; 0x2000
 8001d2a:	f8c3 2b08 	str.w	r2, [r3, #2824]	; 0xb08
 8001d2e:	e7ce      	b.n	8001cce <HAL_PCD_IRQHandler+0x216>
      ep_intr = USB_ReadDevAllInEpInterrupt(hpcd->Instance);
 8001d30:	6820      	ldr	r0, [r4, #0]
 8001d32:	f004 f9ab 	bl	800608c <USB_ReadDevAllInEpInterrupt>
 8001d36:	4680      	mov	r8, r0
      epnum = 0U;
 8001d38:	46b1      	mov	r9, r6
      while (ep_intr != 0U)
 8001d3a:	e02a      	b.n	8001d92 <HAL_PCD_IRQHandler+0x2da>
            HAL_PCD_DataInStageCallback(hpcd, (uint8_t)epnum);
 8001d3c:	4659      	mov	r1, fp
 8001d3e:	4620      	mov	r0, r4
 8001d40:	f006 f8bc 	bl	8007ebc <HAL_PCD_DataInStageCallback>
          if ((epint & USB_OTG_DIEPINT_TOC) == USB_OTG_DIEPINT_TOC)
 8001d44:	f01a 0f08 	tst.w	sl, #8
 8001d48:	d004      	beq.n	8001d54 <HAL_PCD_IRQHandler+0x29c>
            CLEAR_IN_EP_INTR(epnum, USB_OTG_DIEPINT_TOC);
 8001d4a:	eb07 1349 	add.w	r3, r7, r9, lsl #5
 8001d4e:	2208      	movs	r2, #8
 8001d50:	f8c3 2908 	str.w	r2, [r3, #2312]	; 0x908
          if ((epint & USB_OTG_DIEPINT_ITTXFE) == USB_OTG_DIEPINT_ITTXFE)
 8001d54:	f01a 0f10 	tst.w	sl, #16
 8001d58:	d004      	beq.n	8001d64 <HAL_PCD_IRQHandler+0x2ac>
            CLEAR_IN_EP_INTR(epnum, USB_OTG_DIEPINT_ITTXFE);
 8001d5a:	eb07 1349 	add.w	r3, r7, r9, lsl #5
 8001d5e:	2210      	movs	r2, #16
 8001d60:	f8c3 2908 	str.w	r2, [r3, #2312]	; 0x908
          if ((epint & USB_OTG_DIEPINT_INEPNE) == USB_OTG_DIEPINT_INEPNE)
 8001d64:	f01a 0f40 	tst.w	sl, #64	; 0x40
 8001d68:	d004      	beq.n	8001d74 <HAL_PCD_IRQHandler+0x2bc>
            CLEAR_IN_EP_INTR(epnum, USB_OTG_DIEPINT_INEPNE);
 8001d6a:	eb07 1349 	add.w	r3, r7, r9, lsl #5
 8001d6e:	2240      	movs	r2, #64	; 0x40
 8001d70:	f8c3 2908 	str.w	r2, [r3, #2312]	; 0x908
          if ((epint & USB_OTG_DIEPINT_EPDISD) == USB_OTG_DIEPINT_EPDISD)
 8001d74:	f01a 0f02 	tst.w	sl, #2
 8001d78:	d004      	beq.n	8001d84 <HAL_PCD_IRQHandler+0x2cc>
            CLEAR_IN_EP_INTR(epnum, USB_OTG_DIEPINT_EPDISD);
 8001d7a:	eb07 1349 	add.w	r3, r7, r9, lsl #5
 8001d7e:	2202      	movs	r2, #2
 8001d80:	f8c3 2908 	str.w	r2, [r3, #2312]	; 0x908
          if ((epint & USB_OTG_DIEPINT_TXFE) == USB_OTG_DIEPINT_TXFE)
 8001d84:	f01a 0f80 	tst.w	sl, #128	; 0x80
 8001d88:	d13f      	bne.n	8001e0a <HAL_PCD_IRQHandler+0x352>
        epnum++;
 8001d8a:	f109 0901 	add.w	r9, r9, #1
        ep_intr >>= 1U;
 8001d8e:	ea4f 0858 	mov.w	r8, r8, lsr #1
      while (ep_intr != 0U)
 8001d92:	f1b8 0f00 	cmp.w	r8, #0
 8001d96:	f43f aed7 	beq.w	8001b48 <HAL_PCD_IRQHandler+0x90>
        if ((ep_intr & 0x1U) != 0U) /* In ITR */
 8001d9a:	f018 0f01 	tst.w	r8, #1
 8001d9e:	d0f4      	beq.n	8001d8a <HAL_PCD_IRQHandler+0x2d2>
          epint = USB_ReadDevInEPInterrupt(hpcd->Instance, (uint8_t)epnum);
 8001da0:	fa5f fb89 	uxtb.w	fp, r9
 8001da4:	4659      	mov	r1, fp
 8001da6:	6820      	ldr	r0, [r4, #0]
 8001da8:	f004 f981 	bl	80060ae <USB_ReadDevInEPInterrupt>
 8001dac:	4682      	mov	sl, r0
          if ((epint & USB_OTG_DIEPINT_XFRC) == USB_OTG_DIEPINT_XFRC)
 8001dae:	f010 0f01 	tst.w	r0, #1
 8001db2:	d0c7      	beq.n	8001d44 <HAL_PCD_IRQHandler+0x28c>
            fifoemptymsk = (uint32_t)(0x1UL << (epnum & EP_ADDR_MSK));
 8001db4:	f009 030f 	and.w	r3, r9, #15
 8001db8:	2101      	movs	r1, #1
 8001dba:	fa01 f203 	lsl.w	r2, r1, r3
            USBx_DEVICE->DIEPEMPMSK &= ~fifoemptymsk;
 8001dbe:	f8d7 3834 	ldr.w	r3, [r7, #2100]	; 0x834
 8001dc2:	ea23 0302 	bic.w	r3, r3, r2
 8001dc6:	f8c7 3834 	str.w	r3, [r7, #2100]	; 0x834
            CLEAR_IN_EP_INTR(epnum, USB_OTG_DIEPINT_XFRC);
 8001dca:	eb07 1349 	add.w	r3, r7, r9, lsl #5
 8001dce:	f8c3 1908 	str.w	r1, [r3, #2312]	; 0x908
            if (hpcd->Init.dma_enable == 1U)
 8001dd2:	6923      	ldr	r3, [r4, #16]
 8001dd4:	428b      	cmp	r3, r1
 8001dd6:	d1b1      	bne.n	8001d3c <HAL_PCD_IRQHandler+0x284>
              hpcd->IN_ep[epnum].xfer_buff += hpcd->IN_ep[epnum].maxpacket;
 8001dd8:	ebc9 03c9 	rsb	r3, r9, r9, lsl #3
 8001ddc:	eb04 0383 	add.w	r3, r4, r3, lsl #2
 8001de0:	6c59      	ldr	r1, [r3, #68]	; 0x44
 8001de2:	6c9a      	ldr	r2, [r3, #72]	; 0x48
 8001de4:	440a      	add	r2, r1
 8001de6:	649a      	str	r2, [r3, #72]	; 0x48
              if ((epnum == 0U) && (hpcd->IN_ep[epnum].xfer_len == 0U))
 8001de8:	f1b9 0f00 	cmp.w	r9, #0
 8001dec:	d1a6      	bne.n	8001d3c <HAL_PCD_IRQHandler+0x284>
 8001dee:	ebc9 03c9 	rsb	r3, r9, r9, lsl #3
 8001df2:	eb04 0383 	add.w	r3, r4, r3, lsl #2
 8001df6:	6d1b      	ldr	r3, [r3, #80]	; 0x50
 8001df8:	2b00      	cmp	r3, #0
 8001dfa:	d19f      	bne.n	8001d3c <HAL_PCD_IRQHandler+0x284>
                (void)USB_EP0_OutStart(hpcd->Instance, 1U, (uint8_t *)hpcd->Setup);
 8001dfc:	f504 7271 	add.w	r2, r4, #964	; 0x3c4
 8001e00:	2101      	movs	r1, #1
 8001e02:	6820      	ldr	r0, [r4, #0]
 8001e04:	f004 f97c 	bl	8006100 <USB_EP0_OutStart>
 8001e08:	e798      	b.n	8001d3c <HAL_PCD_IRQHandler+0x284>
            (void)PCD_WriteEmptyTxFifo(hpcd, epnum);
 8001e0a:	4649      	mov	r1, r9
 8001e0c:	4620      	mov	r0, r4
 8001e0e:	f7ff fc8b 	bl	8001728 <PCD_WriteEmptyTxFifo>
 8001e12:	e7ba      	b.n	8001d8a <HAL_PCD_IRQHandler+0x2d2>
      USBx_DEVICE->DCTL &= ~USB_OTG_DCTL_RWUSIG;
 8001e14:	f8d5 3804 	ldr.w	r3, [r5, #2052]	; 0x804
 8001e18:	f023 0301 	bic.w	r3, r3, #1
 8001e1c:	f8c5 3804 	str.w	r3, [r5, #2052]	; 0x804
      if (hpcd->LPM_State == LPM_L1)
 8001e20:	f894 33f4 	ldrb.w	r3, [r4, #1012]	; 0x3f4
 8001e24:	2b01      	cmp	r3, #1
 8001e26:	d008      	beq.n	8001e3a <HAL_PCD_IRQHandler+0x382>
        HAL_PCD_ResumeCallback(hpcd);
 8001e28:	4620      	mov	r0, r4
 8001e2a:	f006 f887 	bl	8007f3c <HAL_PCD_ResumeCallback>
      __HAL_PCD_CLEAR_FLAG(hpcd, USB_OTG_GINTSTS_WKUINT);
 8001e2e:	6822      	ldr	r2, [r4, #0]
 8001e30:	6953      	ldr	r3, [r2, #20]
 8001e32:	f003 4300 	and.w	r3, r3, #2147483648	; 0x80000000
 8001e36:	6153      	str	r3, [r2, #20]
 8001e38:	e68c      	b.n	8001b54 <HAL_PCD_IRQHandler+0x9c>
        hpcd->LPM_State = LPM_L0;
 8001e3a:	2100      	movs	r1, #0
 8001e3c:	f884 13f4 	strb.w	r1, [r4, #1012]	; 0x3f4
        HAL_PCDEx_LPM_Callback(hpcd, PCD_LPM_L0_ACTIVE);
 8001e40:	4620      	mov	r0, r4
 8001e42:	f000 fa5f 	bl	8002304 <HAL_PCDEx_LPM_Callback>
 8001e46:	e7f2      	b.n	8001e2e <HAL_PCD_IRQHandler+0x376>
        HAL_PCD_SuspendCallback(hpcd);
 8001e48:	4620      	mov	r0, r4
 8001e4a:	f006 f85f 	bl	8007f0c <HAL_PCD_SuspendCallback>
 8001e4e:	e68d      	b.n	8001b6c <HAL_PCD_IRQHandler+0xb4>
        HAL_PCD_SuspendCallback(hpcd);
 8001e50:	4620      	mov	r0, r4
 8001e52:	f006 f85b 	bl	8007f0c <HAL_PCD_SuspendCallback>
 8001e56:	e6aa      	b.n	8001bae <HAL_PCD_IRQHandler+0xf6>
      USBx_DEVICE->DCTL &= ~USB_OTG_DCTL_RWUSIG;
 8001e58:	f505 6800 	add.w	r8, r5, #2048	; 0x800
 8001e5c:	f8d8 3004 	ldr.w	r3, [r8, #4]
 8001e60:	f023 0301 	bic.w	r3, r3, #1
 8001e64:	f8c8 3004 	str.w	r3, [r8, #4]
      (void)USB_FlushTxFifo(hpcd->Instance, 0x10U);
 8001e68:	2110      	movs	r1, #16
 8001e6a:	6820      	ldr	r0, [r4, #0]
 8001e6c:	f003 fd08 	bl	8005880 <USB_FlushTxFifo>
      for (i = 0U; i < hpcd->Init.dev_endpoints; i++)
 8001e70:	e020      	b.n	8001eb4 <HAL_PCD_IRQHandler+0x3fc>
        USBx_INEP(i)->DIEPINT = 0xFB7FU;
 8001e72:	eb07 1346 	add.w	r3, r7, r6, lsl #5
 8001e76:	f64f 317f 	movw	r1, #64383	; 0xfb7f
 8001e7a:	f8c3 1908 	str.w	r1, [r3, #2312]	; 0x908
        USBx_INEP(i)->DIEPCTL &= ~USB_OTG_DIEPCTL_STALL;
 8001e7e:	f8d3 2900 	ldr.w	r2, [r3, #2304]	; 0x900
 8001e82:	f422 1200 	bic.w	r2, r2, #2097152	; 0x200000
 8001e86:	f8c3 2900 	str.w	r2, [r3, #2304]	; 0x900
        USBx_INEP(i)->DIEPCTL |= USB_OTG_DIEPCTL_SNAK;
 8001e8a:	f8d3 2900 	ldr.w	r2, [r3, #2304]	; 0x900
 8001e8e:	f042 6200 	orr.w	r2, r2, #134217728	; 0x8000000
 8001e92:	f8c3 2900 	str.w	r2, [r3, #2304]	; 0x900
        USBx_OUTEP(i)->DOEPINT = 0xFB7FU;
 8001e96:	f8c3 1b08 	str.w	r1, [r3, #2824]	; 0xb08
        USBx_OUTEP(i)->DOEPCTL &= ~USB_OTG_DOEPCTL_STALL;
 8001e9a:	f8d3 2b00 	ldr.w	r2, [r3, #2816]	; 0xb00
 8001e9e:	f422 1200 	bic.w	r2, r2, #2097152	; 0x200000
 8001ea2:	f8c3 2b00 	str.w	r2, [r3, #2816]	; 0xb00
        USBx_OUTEP(i)->DOEPCTL |= USB_OTG_DOEPCTL_SNAK;
 8001ea6:	f8d3 2b00 	ldr.w	r2, [r3, #2816]	; 0xb00
 8001eaa:	f042 6200 	orr.w	r2, r2, #134217728	; 0x8000000
 8001eae:	f8c3 2b00 	str.w	r2, [r3, #2816]	; 0xb00
      for (i = 0U; i < hpcd->Init.dev_endpoints; i++)
 8001eb2:	3601      	adds	r6, #1
 8001eb4:	6863      	ldr	r3, [r4, #4]
 8001eb6:	42b3      	cmp	r3, r6
 8001eb8:	d8db      	bhi.n	8001e72 <HAL_PCD_IRQHandler+0x3ba>
      USBx_DEVICE->DAINTMSK |= 0x10001U;
 8001eba:	f8d8 301c 	ldr.w	r3, [r8, #28]
 8001ebe:	f043 1301 	orr.w	r3, r3, #65537	; 0x10001
 8001ec2:	f8c8 301c 	str.w	r3, [r8, #28]
      if (hpcd->Init.use_dedicated_ep1 != 0U)
 8001ec6:	6b23      	ldr	r3, [r4, #48]	; 0x30
 8001ec8:	b1eb      	cbz	r3, 8001f06 <HAL_PCD_IRQHandler+0x44e>
        USBx_DEVICE->DOUTEP1MSK |= USB_OTG_DOEPMSK_STUPM |
 8001eca:	f8d8 3084 	ldr.w	r3, [r8, #132]	; 0x84
 8001ece:	f043 030b 	orr.w	r3, r3, #11
 8001ed2:	f8c8 3084 	str.w	r3, [r8, #132]	; 0x84
        USBx_DEVICE->DINEP1MSK |= USB_OTG_DIEPMSK_TOM |
 8001ed6:	f8d8 3044 	ldr.w	r3, [r8, #68]	; 0x44
 8001eda:	f043 030b 	orr.w	r3, r3, #11
 8001ede:	f8c8 3044 	str.w	r3, [r8, #68]	; 0x44
      USBx_DEVICE->DCFG &= ~USB_OTG_DCFG_DAD;
 8001ee2:	f8d5 3800 	ldr.w	r3, [r5, #2048]	; 0x800
 8001ee6:	f423 63fe 	bic.w	r3, r3, #2032	; 0x7f0
 8001eea:	f8c5 3800 	str.w	r3, [r5, #2048]	; 0x800
      (void)USB_EP0_OutStart(hpcd->Instance, (uint8_t)hpcd->Init.dma_enable,
 8001eee:	f504 7271 	add.w	r2, r4, #964	; 0x3c4
 8001ef2:	7c21      	ldrb	r1, [r4, #16]
 8001ef4:	6820      	ldr	r0, [r4, #0]
 8001ef6:	f004 f903 	bl	8006100 <USB_EP0_OutStart>
      __HAL_PCD_CLEAR_FLAG(hpcd, USB_OTG_GINTSTS_USBRST);
 8001efa:	6822      	ldr	r2, [r4, #0]
 8001efc:	6953      	ldr	r3, [r2, #20]
 8001efe:	f403 5380 	and.w	r3, r3, #4096	; 0x1000
 8001f02:	6153      	str	r3, [r2, #20]
 8001f04:	e65a      	b.n	8001bbc <HAL_PCD_IRQHandler+0x104>
        USBx_DEVICE->DOEPMSK |= USB_OTG_DOEPMSK_STUPM |
 8001f06:	f8d8 2014 	ldr.w	r2, [r8, #20]
 8001f0a:	f242 032b 	movw	r3, #8235	; 0x202b
 8001f0e:	4313      	orrs	r3, r2
 8001f10:	f8c8 3014 	str.w	r3, [r8, #20]
        USBx_DEVICE->DIEPMSK |= USB_OTG_DIEPMSK_TOM |
 8001f14:	f8d8 3010 	ldr.w	r3, [r8, #16]
 8001f18:	f043 030b 	orr.w	r3, r3, #11
 8001f1c:	f8c8 3010 	str.w	r3, [r8, #16]
 8001f20:	e7df      	b.n	8001ee2 <HAL_PCD_IRQHandler+0x42a>
      (void)USB_ActivateSetup(hpcd->Instance);
 8001f22:	6820      	ldr	r0, [r4, #0]
 8001f24:	f004 f8dc 	bl	80060e0 <USB_ActivateSetup>
      hpcd->Init.speed = USB_GetDevSpeed(hpcd->Instance);
 8001f28:	6820      	ldr	r0, [r4, #0]
 8001f2a:	f003 fd9f 	bl	8005a6c <USB_GetDevSpeed>
 8001f2e:	60e0      	str	r0, [r4, #12]
      (void)USB_SetTurnaroundTime(hpcd->Instance,
 8001f30:	6825      	ldr	r5, [r4, #0]
 8001f32:	f000 ff85 	bl	8002e40 <HAL_RCC_GetHCLKFreq>
 8001f36:	4601      	mov	r1, r0
 8001f38:	7b22      	ldrb	r2, [r4, #12]
 8001f3a:	4628      	mov	r0, r5
 8001f3c:	f003 fc0a 	bl	8005754 <USB_SetTurnaroundTime>
      HAL_PCD_ResetCallback(hpcd);
 8001f40:	4620      	mov	r0, r4
 8001f42:	f005 ffcc 	bl	8007ede <HAL_PCD_ResetCallback>
      __HAL_PCD_CLEAR_FLAG(hpcd, USB_OTG_GINTSTS_ENUMDNE);
 8001f46:	6822      	ldr	r2, [r4, #0]
 8001f48:	6953      	ldr	r3, [r2, #20]
 8001f4a:	f403 5300 	and.w	r3, r3, #8192	; 0x2000
 8001f4e:	6153      	str	r3, [r2, #20]
 8001f50:	e63b      	b.n	8001bca <HAL_PCD_IRQHandler+0x112>
      HAL_PCD_SOFCallback(hpcd);
 8001f52:	4620      	mov	r0, r4
 8001f54:	f005 ffbd 	bl	8007ed2 <HAL_PCD_SOFCallback>
      __HAL_PCD_CLEAR_FLAG(hpcd, USB_OTG_GINTSTS_SOF);
 8001f58:	6822      	ldr	r2, [r4, #0]
 8001f5a:	6953      	ldr	r3, [r2, #20]
 8001f5c:	f003 0308 	and.w	r3, r3, #8
 8001f60:	6153      	str	r3, [r2, #20]
 8001f62:	e639      	b.n	8001bd8 <HAL_PCD_IRQHandler+0x120>
      HAL_PCD_ISOINIncompleteCallback(hpcd, (uint8_t)epnum);
 8001f64:	2100      	movs	r1, #0
 8001f66:	4620      	mov	r0, r4
 8001f68:	f005 fff4 	bl	8007f54 <HAL_PCD_ISOINIncompleteCallback>
      __HAL_PCD_CLEAR_FLAG(hpcd, USB_OTG_GINTSTS_IISOIXFR);
 8001f6c:	6822      	ldr	r2, [r4, #0]
 8001f6e:	6953      	ldr	r3, [r2, #20]
 8001f70:	f403 1380 	and.w	r3, r3, #1048576	; 0x100000
 8001f74:	6153      	str	r3, [r2, #20]
 8001f76:	e636      	b.n	8001be6 <HAL_PCD_IRQHandler+0x12e>
      HAL_PCD_ISOOUTIncompleteCallback(hpcd, (uint8_t)epnum);
 8001f78:	2100      	movs	r1, #0
 8001f7a:	4620      	mov	r0, r4
 8001f7c:	f005 ffe4 	bl	8007f48 <HAL_PCD_ISOOUTIncompleteCallback>
      __HAL_PCD_CLEAR_FLAG(hpcd, USB_OTG_GINTSTS_PXFR_INCOMPISOOUT);
 8001f80:	6822      	ldr	r2, [r4, #0]
 8001f82:	6953      	ldr	r3, [r2, #20]
 8001f84:	f403 1300 	and.w	r3, r3, #2097152	; 0x200000
 8001f88:	6153      	str	r3, [r2, #20]
 8001f8a:	e633      	b.n	8001bf4 <HAL_PCD_IRQHandler+0x13c>
      HAL_PCD_ConnectCallback(hpcd);
 8001f8c:	4620      	mov	r0, r4
 8001f8e:	f005 ffe7 	bl	8007f60 <HAL_PCD_ConnectCallback>
      __HAL_PCD_CLEAR_FLAG(hpcd, USB_OTG_GINTSTS_SRQINT);
 8001f92:	6822      	ldr	r2, [r4, #0]
 8001f94:	6953      	ldr	r3, [r2, #20]
 8001f96:	f003 4380 	and.w	r3, r3, #1073741824	; 0x40000000
 8001f9a:	6153      	str	r3, [r2, #20]
 8001f9c:	e631      	b.n	8001c02 <HAL_PCD_IRQHandler+0x14a>
        HAL_PCD_DisconnectCallback(hpcd);
 8001f9e:	4620      	mov	r0, r4
 8001fa0:	f005 ffe4 	bl	8007f6c <HAL_PCD_DisconnectCallback>
 8001fa4:	e63a      	b.n	8001c1c <HAL_PCD_IRQHandler+0x164>

08001fa6 <HAL_PCD_SetAddress>:
  __HAL_LOCK(hpcd);
 8001fa6:	f890 33bc 	ldrb.w	r3, [r0, #956]	; 0x3bc
 8001faa:	2b01      	cmp	r3, #1
 8001fac:	d00d      	beq.n	8001fca <HAL_PCD_SetAddress+0x24>
{
 8001fae:	b510      	push	{r4, lr}
 8001fb0:	4604      	mov	r4, r0
  __HAL_LOCK(hpcd);
 8001fb2:	2301      	movs	r3, #1
 8001fb4:	f880 33bc 	strb.w	r3, [r0, #956]	; 0x3bc
  hpcd->USB_Address = address;
 8001fb8:	f880 1038 	strb.w	r1, [r0, #56]	; 0x38
  (void)USB_SetDevAddress(hpcd->Instance, address);
 8001fbc:	6800      	ldr	r0, [r0, #0]
 8001fbe:	f004 f831 	bl	8006024 <USB_SetDevAddress>
  __HAL_UNLOCK(hpcd);
 8001fc2:	2000      	movs	r0, #0
 8001fc4:	f884 03bc 	strb.w	r0, [r4, #956]	; 0x3bc
}
 8001fc8:	bd10      	pop	{r4, pc}
  __HAL_LOCK(hpcd);
 8001fca:	2002      	movs	r0, #2
}
 8001fcc:	4770      	bx	lr

08001fce <HAL_PCD_EP_Open>:
{
 8001fce:	b5f8      	push	{r3, r4, r5, r6, r7, lr}
 8001fd0:	4607      	mov	r7, r0
 8001fd2:	460c      	mov	r4, r1
  if ((ep_addr & 0x80U) == 0x80U)
 8001fd4:	f011 0f80 	tst.w	r1, #128	; 0x80
 8001fd8:	d127      	bne.n	800202a <HAL_PCD_EP_Open+0x5c>
    ep = &hpcd->OUT_ep[ep_addr & EP_ADDR_MSK];
 8001fda:	f001 050f 	and.w	r5, r1, #15
 8001fde:	ebc5 06c5 	rsb	r6, r5, r5, lsl #3
 8001fe2:	00b6      	lsls	r6, r6, #2
 8001fe4:	f506 76fc 	add.w	r6, r6, #504	; 0x1f8
 8001fe8:	4406      	add	r6, r0
 8001fea:	1d31      	adds	r1, r6, #4
    ep->is_in = 0U;
 8001fec:	ebc5 05c5 	rsb	r5, r5, r5, lsl #3
 8001ff0:	eb00 0585 	add.w	r5, r0, r5, lsl #2
 8001ff4:	2000      	movs	r0, #0
 8001ff6:	f885 01fd 	strb.w	r0, [r5, #509]	; 0x1fd
  ep->num = ep_addr & EP_ADDR_MSK;
 8001ffa:	f004 040f 	and.w	r4, r4, #15
 8001ffe:	700c      	strb	r4, [r1, #0]
  ep->maxpacket = ep_mps;
 8002000:	608a      	str	r2, [r1, #8]
  ep->type = ep_type;
 8002002:	70cb      	strb	r3, [r1, #3]
  if (ep->is_in != 0U)
 8002004:	784a      	ldrb	r2, [r1, #1]
 8002006:	b102      	cbz	r2, 800200a <HAL_PCD_EP_Open+0x3c>
    ep->tx_fifo_num = ep->num;
 8002008:	80cc      	strh	r4, [r1, #6]
  if (ep_type == EP_TYPE_BULK)
 800200a:	2b02      	cmp	r3, #2
 800200c:	d01d      	beq.n	800204a <HAL_PCD_EP_Open+0x7c>
  __HAL_LOCK(hpcd);
 800200e:	f897 33bc 	ldrb.w	r3, [r7, #956]	; 0x3bc
 8002012:	2b01      	cmp	r3, #1
 8002014:	d01c      	beq.n	8002050 <HAL_PCD_EP_Open+0x82>
 8002016:	2301      	movs	r3, #1
 8002018:	f887 33bc 	strb.w	r3, [r7, #956]	; 0x3bc
  (void)USB_ActivateEndpoint(hpcd->Instance, ep);
 800201c:	6838      	ldr	r0, [r7, #0]
 800201e:	f003 fd35 	bl	8005a8c <USB_ActivateEndpoint>
  __HAL_UNLOCK(hpcd);
 8002022:	2000      	movs	r0, #0
 8002024:	f887 03bc 	strb.w	r0, [r7, #956]	; 0x3bc
}
 8002028:	bdf8      	pop	{r3, r4, r5, r6, r7, pc}
    ep = &hpcd->IN_ep[ep_addr & EP_ADDR_MSK];
 800202a:	f001 000f 	and.w	r0, r1, #15
 800202e:	ebc0 01c0 	rsb	r1, r0, r0, lsl #3
 8002032:	0089      	lsls	r1, r1, #2
 8002034:	3138      	adds	r1, #56	; 0x38
 8002036:	4439      	add	r1, r7
 8002038:	3104      	adds	r1, #4
    ep->is_in = 1U;
 800203a:	ebc0 00c0 	rsb	r0, r0, r0, lsl #3
 800203e:	eb07 0080 	add.w	r0, r7, r0, lsl #2
 8002042:	2501      	movs	r5, #1
 8002044:	f880 503d 	strb.w	r5, [r0, #61]	; 0x3d
 8002048:	e7d7      	b.n	8001ffa <HAL_PCD_EP_Open+0x2c>
    ep->data_pid_start = 0U;
 800204a:	2300      	movs	r3, #0
 800204c:	710b      	strb	r3, [r1, #4]
 800204e:	e7de      	b.n	800200e <HAL_PCD_EP_Open+0x40>
  __HAL_LOCK(hpcd);
 8002050:	2002      	movs	r0, #2
 8002052:	e7e9      	b.n	8002028 <HAL_PCD_EP_Open+0x5a>

08002054 <HAL_PCD_EP_Close>:
{
 8002054:	b510      	push	{r4, lr}
 8002056:	4604      	mov	r4, r0
 8002058:	460a      	mov	r2, r1
  if ((ep_addr & 0x80U) == 0x80U)
 800205a:	f011 0f80 	tst.w	r1, #128	; 0x80
 800205e:	d120      	bne.n	80020a2 <HAL_PCD_EP_Close+0x4e>
    ep = &hpcd->OUT_ep[ep_addr & EP_ADDR_MSK];
 8002060:	f001 000f 	and.w	r0, r1, #15
 8002064:	ebc0 03c0 	rsb	r3, r0, r0, lsl #3
 8002068:	009b      	lsls	r3, r3, #2
 800206a:	f503 73fc 	add.w	r3, r3, #504	; 0x1f8
 800206e:	4423      	add	r3, r4
 8002070:	1d19      	adds	r1, r3, #4
    ep->is_in = 0U;
 8002072:	ebc0 00c0 	rsb	r0, r0, r0, lsl #3
 8002076:	eb04 0080 	add.w	r0, r4, r0, lsl #2
 800207a:	2300      	movs	r3, #0
 800207c:	f880 31fd 	strb.w	r3, [r0, #509]	; 0x1fd
  ep->num   = ep_addr & EP_ADDR_MSK;
 8002080:	f002 020f 	and.w	r2, r2, #15
 8002084:	700a      	strb	r2, [r1, #0]
  __HAL_LOCK(hpcd);
 8002086:	f894 33bc 	ldrb.w	r3, [r4, #956]	; 0x3bc
 800208a:	2b01      	cmp	r3, #1
 800208c:	d019      	beq.n	80020c2 <HAL_PCD_EP_Close+0x6e>
 800208e:	2301      	movs	r3, #1
 8002090:	f884 33bc 	strb.w	r3, [r4, #956]	; 0x3bc
  (void)USB_DeactivateEndpoint(hpcd->Instance, ep);
 8002094:	6820      	ldr	r0, [r4, #0]
 8002096:	f003 fd41 	bl	8005b1c <USB_DeactivateEndpoint>
  __HAL_UNLOCK(hpcd);
 800209a:	2000      	movs	r0, #0
 800209c:	f884 03bc 	strb.w	r0, [r4, #956]	; 0x3bc
}
 80020a0:	bd10      	pop	{r4, pc}
    ep = &hpcd->IN_ep[ep_addr & EP_ADDR_MSK];
 80020a2:	f001 000f 	and.w	r0, r1, #15
 80020a6:	ebc0 03c0 	rsb	r3, r0, r0, lsl #3
 80020aa:	009b      	lsls	r3, r3, #2
 80020ac:	3338      	adds	r3, #56	; 0x38
 80020ae:	4423      	add	r3, r4
 80020b0:	1d19      	adds	r1, r3, #4
    ep->is_in = 1U;
 80020b2:	ebc0 00c0 	rsb	r0, r0, r0, lsl #3
 80020b6:	eb04 0080 	add.w	r0, r4, r0, lsl #2
 80020ba:	2301      	movs	r3, #1
 80020bc:	f880 303d 	strb.w	r3, [r0, #61]	; 0x3d
 80020c0:	e7de      	b.n	8002080 <HAL_PCD_EP_Close+0x2c>
  __HAL_LOCK(hpcd);
 80020c2:	2002      	movs	r0, #2
 80020c4:	e7ec      	b.n	80020a0 <HAL_PCD_EP_Close+0x4c>

080020c6 <HAL_PCD_EP_Receive>:
{
 80020c6:	b538      	push	{r3, r4, r5, lr}
  ep = &hpcd->OUT_ep[ep_addr & EP_ADDR_MSK];
 80020c8:	f001 040f 	and.w	r4, r1, #15
 80020cc:	ebc4 01c4 	rsb	r1, r4, r4, lsl #3
 80020d0:	0089      	lsls	r1, r1, #2
 80020d2:	f501 71fc 	add.w	r1, r1, #504	; 0x1f8
 80020d6:	4401      	add	r1, r0
 80020d8:	3104      	adds	r1, #4
  ep->xfer_buff = pBuf;
 80020da:	ebc4 05c4 	rsb	r5, r4, r4, lsl #3
 80020de:	eb00 0585 	add.w	r5, r0, r5, lsl #2
 80020e2:	f8c5 2208 	str.w	r2, [r5, #520]	; 0x208
  ep->xfer_len = len;
 80020e6:	f8c5 3210 	str.w	r3, [r5, #528]	; 0x210
  ep->xfer_count = 0U;
 80020ea:	2300      	movs	r3, #0
 80020ec:	f8c5 3214 	str.w	r3, [r5, #532]	; 0x214
  ep->is_in = 0U;
 80020f0:	f885 31fd 	strb.w	r3, [r5, #509]	; 0x1fd
  ep->num = ep_addr & EP_ADDR_MSK;
 80020f4:	f885 41fc 	strb.w	r4, [r5, #508]	; 0x1fc
  if (hpcd->Init.dma_enable == 1U)
 80020f8:	6903      	ldr	r3, [r0, #16]
 80020fa:	2b01      	cmp	r3, #1
 80020fc:	d006      	beq.n	800210c <HAL_PCD_EP_Receive+0x46>
  if ((ep_addr & EP_ADDR_MSK) == 0U)
 80020fe:	b964      	cbnz	r4, 800211a <HAL_PCD_EP_Receive+0x54>
    (void)USB_EP0StartXfer(hpcd->Instance, ep, (uint8_t)hpcd->Init.dma_enable);
 8002100:	b2da      	uxtb	r2, r3
 8002102:	6800      	ldr	r0, [r0, #0]
 8002104:	f003 fd78 	bl	8005bf8 <USB_EP0StartXfer>
}
 8002108:	2000      	movs	r0, #0
 800210a:	bd38      	pop	{r3, r4, r5, pc}
    ep->dma_addr = (uint32_t)pBuf;
 800210c:	ebc4 05c4 	rsb	r5, r4, r4, lsl #3
 8002110:	eb00 0585 	add.w	r5, r0, r5, lsl #2
 8002114:	f8c5 220c 	str.w	r2, [r5, #524]	; 0x20c
 8002118:	e7f1      	b.n	80020fe <HAL_PCD_EP_Receive+0x38>
    (void)USB_EPStartXfer(hpcd->Instance, ep, (uint8_t)hpcd->Init.dma_enable);
 800211a:	b2da      	uxtb	r2, r3
 800211c:	6800      	ldr	r0, [r0, #0]
 800211e:	f003 fe0b 	bl	8005d38 <USB_EPStartXfer>
 8002122:	e7f1      	b.n	8002108 <HAL_PCD_EP_Receive+0x42>

08002124 <HAL_PCD_EP_GetRxCount>:
  return hpcd->OUT_ep[ep_addr & EP_ADDR_MSK].xfer_count;
 8002124:	f001 010f 	and.w	r1, r1, #15
 8002128:	ebc1 01c1 	rsb	r1, r1, r1, lsl #3
 800212c:	eb00 0181 	add.w	r1, r0, r1, lsl #2
}
 8002130:	f8d1 0214 	ldr.w	r0, [r1, #532]	; 0x214
 8002134:	4770      	bx	lr

08002136 <HAL_PCD_EP_Transmit>:
{
 8002136:	b538      	push	{r3, r4, r5, lr}
  ep = &hpcd->IN_ep[ep_addr & EP_ADDR_MSK];
 8002138:	f001 040f 	and.w	r4, r1, #15
 800213c:	ebc4 01c4 	rsb	r1, r4, r4, lsl #3
 8002140:	0089      	lsls	r1, r1, #2
 8002142:	3138      	adds	r1, #56	; 0x38
 8002144:	4401      	add	r1, r0
 8002146:	3104      	adds	r1, #4
  ep->xfer_buff = pBuf;
 8002148:	ebc4 05c4 	rsb	r5, r4, r4, lsl #3
 800214c:	eb00 0585 	add.w	r5, r0, r5, lsl #2
 8002150:	64aa      	str	r2, [r5, #72]	; 0x48
  ep->xfer_len = len;
 8002152:	652b      	str	r3, [r5, #80]	; 0x50
  ep->xfer_count = 0U;
 8002154:	2300      	movs	r3, #0
 8002156:	656b      	str	r3, [r5, #84]	; 0x54
  ep->is_in = 1U;
 8002158:	2301      	movs	r3, #1
 800215a:	f885 303d 	strb.w	r3, [r5, #61]	; 0x3d
  ep->num = ep_addr & EP_ADDR_MSK;
 800215e:	f885 403c 	strb.w	r4, [r5, #60]	; 0x3c
  if (hpcd->Init.dma_enable == 1U)
 8002162:	6903      	ldr	r3, [r0, #16]
 8002164:	2b01      	cmp	r3, #1
 8002166:	d006      	beq.n	8002176 <HAL_PCD_EP_Transmit+0x40>
  if ((ep_addr & EP_ADDR_MSK) == 0U)
 8002168:	b95c      	cbnz	r4, 8002182 <HAL_PCD_EP_Transmit+0x4c>
    (void)USB_EP0StartXfer(hpcd->Instance, ep, (uint8_t)hpcd->Init.dma_enable);
 800216a:	b2da      	uxtb	r2, r3
 800216c:	6800      	ldr	r0, [r0, #0]
 800216e:	f003 fd43 	bl	8005bf8 <USB_EP0StartXfer>
}
 8002172:	2000      	movs	r0, #0
 8002174:	bd38      	pop	{r3, r4, r5, pc}
    ep->dma_addr = (uint32_t)pBuf;
 8002176:	ebc4 05c4 	rsb	r5, r4, r4, lsl #3
 800217a:	eb00 0585 	add.w	r5, r0, r5, lsl #2
 800217e:	64ea      	str	r2, [r5, #76]	; 0x4c
 8002180:	e7f2      	b.n	8002168 <HAL_PCD_EP_Transmit+0x32>
    (void)USB_EPStartXfer(hpcd->Instance, ep, (uint8_t)hpcd->Init.dma_enable);
 8002182:	b2da      	uxtb	r2, r3
 8002184:	6800      	ldr	r0, [r0, #0]
 8002186:	f003 fdd7 	bl	8005d38 <USB_EPStartXfer>
 800218a:	e7f2      	b.n	8002172 <HAL_PCD_EP_Transmit+0x3c>

0800218c <HAL_PCD_EP_SetStall>:
{
 800218c:	b538      	push	{r3, r4, r5, lr}
  if (((uint32_t)ep_addr & EP_ADDR_MSK) > hpcd->Init.dev_endpoints)
 800218e:	f001 050f 	and.w	r5, r1, #15
 8002192:	6842      	ldr	r2, [r0, #4]
 8002194:	4295      	cmp	r5, r2
 8002196:	d839      	bhi.n	800220c <HAL_PCD_EP_SetStall+0x80>
 8002198:	4604      	mov	r4, r0
 800219a:	460b      	mov	r3, r1
  if ((0x80U & ep_addr) == 0x80U)
 800219c:	f011 0f80 	tst.w	r1, #128	; 0x80
 80021a0:	d11f      	bne.n	80021e2 <HAL_PCD_EP_SetStall+0x56>
    ep = &hpcd->OUT_ep[ep_addr];
 80021a2:	ebc1 01c1 	rsb	r1, r1, r1, lsl #3
 80021a6:	0089      	lsls	r1, r1, #2
 80021a8:	f501 71fc 	add.w	r1, r1, #504	; 0x1f8
 80021ac:	4401      	add	r1, r0
 80021ae:	3104      	adds	r1, #4
    ep->is_in = 0U;
 80021b0:	ebc3 03c3 	rsb	r3, r3, r3, lsl #3
 80021b4:	eb00 0383 	add.w	r3, r0, r3, lsl #2
 80021b8:	2200      	movs	r2, #0
 80021ba:	f883 21fd 	strb.w	r2, [r3, #509]	; 0x1fd
  ep->is_stall = 1U;
 80021be:	2301      	movs	r3, #1
 80021c0:	708b      	strb	r3, [r1, #2]
  ep->num = ep_addr & EP_ADDR_MSK;
 80021c2:	700d      	strb	r5, [r1, #0]
  __HAL_LOCK(hpcd);
 80021c4:	f894 33bc 	ldrb.w	r3, [r4, #956]	; 0x3bc
 80021c8:	2b01      	cmp	r3, #1
 80021ca:	d021      	beq.n	8002210 <HAL_PCD_EP_SetStall+0x84>
 80021cc:	2301      	movs	r3, #1
 80021ce:	f884 33bc 	strb.w	r3, [r4, #956]	; 0x3bc
  (void)USB_EPSetStall(hpcd->Instance, ep);
 80021d2:	6820      	ldr	r0, [r4, #0]
 80021d4:	f003 fecb 	bl	8005f6e <USB_EPSetStall>
  if ((ep_addr & EP_ADDR_MSK) == 0U)
 80021d8:	b18d      	cbz	r5, 80021fe <HAL_PCD_EP_SetStall+0x72>
  __HAL_UNLOCK(hpcd);
 80021da:	2000      	movs	r0, #0
 80021dc:	f884 03bc 	strb.w	r0, [r4, #956]	; 0x3bc
}
 80021e0:	bd38      	pop	{r3, r4, r5, pc}
    ep = &hpcd->IN_ep[ep_addr & EP_ADDR_MSK];
 80021e2:	ebc5 01c5 	rsb	r1, r5, r5, lsl #3
 80021e6:	0089      	lsls	r1, r1, #2
 80021e8:	3138      	adds	r1, #56	; 0x38
 80021ea:	4401      	add	r1, r0
 80021ec:	3104      	adds	r1, #4
    ep->is_in = 1U;
 80021ee:	ebc5 03c5 	rsb	r3, r5, r5, lsl #3
 80021f2:	eb00 0383 	add.w	r3, r0, r3, lsl #2
 80021f6:	2201      	movs	r2, #1
 80021f8:	f883 203d 	strb.w	r2, [r3, #61]	; 0x3d
 80021fc:	e7df      	b.n	80021be <HAL_PCD_EP_SetStall+0x32>
    (void)USB_EP0_OutStart(hpcd->Instance, (uint8_t)hpcd->Init.dma_enable, (uint8_t *)hpcd->Setup);
 80021fe:	f504 7271 	add.w	r2, r4, #964	; 0x3c4
 8002202:	7c21      	ldrb	r1, [r4, #16]
 8002204:	6820      	ldr	r0, [r4, #0]
 8002206:	f003 ff7b 	bl	8006100 <USB_EP0_OutStart>
 800220a:	e7e6      	b.n	80021da <HAL_PCD_EP_SetStall+0x4e>
    return HAL_ERROR;
 800220c:	2001      	movs	r0, #1
 800220e:	e7e7      	b.n	80021e0 <HAL_PCD_EP_SetStall+0x54>
  __HAL_LOCK(hpcd);
 8002210:	2002      	movs	r0, #2
 8002212:	e7e5      	b.n	80021e0 <HAL_PCD_EP_SetStall+0x54>

08002214 <HAL_PCD_EP_ClrStall>:
  if (((uint32_t)ep_addr & 0x0FU) > hpcd->Init.dev_endpoints)
 8002214:	f001 030f 	and.w	r3, r1, #15
 8002218:	6842      	ldr	r2, [r0, #4]
 800221a:	4293      	cmp	r3, r2
 800221c:	d831      	bhi.n	8002282 <HAL_PCD_EP_ClrStall+0x6e>
{
 800221e:	b510      	push	{r4, lr}
 8002220:	4604      	mov	r4, r0
  if ((0x80U & ep_addr) == 0x80U)
 8002222:	f011 0f80 	tst.w	r1, #128	; 0x80
 8002226:	d11e      	bne.n	8002266 <HAL_PCD_EP_ClrStall+0x52>
    ep = &hpcd->OUT_ep[ep_addr & EP_ADDR_MSK];
 8002228:	ebc3 01c3 	rsb	r1, r3, r3, lsl #3
 800222c:	0089      	lsls	r1, r1, #2
 800222e:	f501 71fc 	add.w	r1, r1, #504	; 0x1f8
 8002232:	4401      	add	r1, r0
 8002234:	3104      	adds	r1, #4
    ep->is_in = 0U;
 8002236:	ebc3 02c3 	rsb	r2, r3, r3, lsl #3
 800223a:	eb00 0282 	add.w	r2, r0, r2, lsl #2
 800223e:	2000      	movs	r0, #0
 8002240:	f882 01fd 	strb.w	r0, [r2, #509]	; 0x1fd
  ep->is_stall = 0U;
 8002244:	2200      	movs	r2, #0
 8002246:	708a      	strb	r2, [r1, #2]
  ep->num = ep_addr & EP_ADDR_MSK;
 8002248:	700b      	strb	r3, [r1, #0]
  __HAL_LOCK(hpcd);
 800224a:	f894 33bc 	ldrb.w	r3, [r4, #956]	; 0x3bc
 800224e:	2b01      	cmp	r3, #1
 8002250:	d019      	beq.n	8002286 <HAL_PCD_EP_ClrStall+0x72>
 8002252:	2301      	movs	r3, #1
 8002254:	f884 33bc 	strb.w	r3, [r4, #956]	; 0x3bc
  (void)USB_EPClearStall(hpcd->Instance, ep);
 8002258:	6820      	ldr	r0, [r4, #0]
 800225a:	f003 feb5 	bl	8005fc8 <USB_EPClearStall>
  __HAL_UNLOCK(hpcd);
 800225e:	2000      	movs	r0, #0
 8002260:	f884 03bc 	strb.w	r0, [r4, #956]	; 0x3bc
}
 8002264:	bd10      	pop	{r4, pc}
    ep = &hpcd->IN_ep[ep_addr & EP_ADDR_MSK];
 8002266:	ebc3 01c3 	rsb	r1, r3, r3, lsl #3
 800226a:	0089      	lsls	r1, r1, #2
 800226c:	3138      	adds	r1, #56	; 0x38
 800226e:	4401      	add	r1, r0
 8002270:	3104      	adds	r1, #4
    ep->is_in = 1U;
 8002272:	ebc3 02c3 	rsb	r2, r3, r3, lsl #3
 8002276:	eb00 0282 	add.w	r2, r0, r2, lsl #2
 800227a:	2001      	movs	r0, #1
 800227c:	f882 003d 	strb.w	r0, [r2, #61]	; 0x3d
 8002280:	e7e0      	b.n	8002244 <HAL_PCD_EP_ClrStall+0x30>
    return HAL_ERROR;
 8002282:	2001      	movs	r0, #1
}
 8002284:	4770      	bx	lr
  __HAL_LOCK(hpcd);
 8002286:	2002      	movs	r0, #2
 8002288:	e7ec      	b.n	8002264 <HAL_PCD_EP_ClrStall+0x50>

0800228a <HAL_PCDEx_SetTxFiFo>:
  * @param  fifo The number of Tx fifo
  * @param  size Fifo size
  * @retval HAL status
  */
HAL_StatusTypeDef HAL_PCDEx_SetTxFiFo(PCD_HandleTypeDef *hpcd, uint8_t fifo, uint16_t size)
{
 800228a:	b430      	push	{r4, r5}
         --> Txn should be configured with the minimum space of 16 words
     The FIFO is used optimally when used TxFIFOs are allocated in the top
         of the FIFO.Ex: use EP1 and EP2 as IN instead of EP1 and EP3 as IN ones.
     When DMA is used 3n * FIFO locations should be reserved for internal DMA registers */

  Tx_Offset = hpcd->Instance->GRXFSIZ;
 800228c:	6804      	ldr	r4, [r0, #0]
 800228e:	6a60      	ldr	r0, [r4, #36]	; 0x24

  if (fifo == 0U)
 8002290:	b919      	cbnz	r1, 800229a <HAL_PCDEx_SetTxFiFo+0x10>
  {
    hpcd->Instance->DIEPTXF0_HNPTXFSIZ = ((uint32_t)size << 16) | Tx_Offset;
 8002292:	ea40 4002 	orr.w	r0, r0, r2, lsl #16
 8002296:	62a0      	str	r0, [r4, #40]	; 0x28
 8002298:	e018      	b.n	80022cc <HAL_PCDEx_SetTxFiFo+0x42>
 800229a:	460d      	mov	r5, r1
  }
  else
  {
    Tx_Offset += (hpcd->Instance->DIEPTXF0_HNPTXFSIZ) >> 16;
 800229c:	6aa3      	ldr	r3, [r4, #40]	; 0x28
 800229e:	eb00 4013 	add.w	r0, r0, r3, lsr #16
    for (i = 0U; i < (fifo - 1U); i++)
 80022a2:	2300      	movs	r3, #0
 80022a4:	1e69      	subs	r1, r5, #1
 80022a6:	428b      	cmp	r3, r1
 80022a8:	d209      	bcs.n	80022be <HAL_PCDEx_SetTxFiFo+0x34>
    {
      Tx_Offset += (hpcd->Instance->DIEPTXF[i] >> 16);
 80022aa:	f103 0140 	add.w	r1, r3, #64	; 0x40
 80022ae:	eb04 0181 	add.w	r1, r4, r1, lsl #2
 80022b2:	6849      	ldr	r1, [r1, #4]
 80022b4:	eb00 4011 	add.w	r0, r0, r1, lsr #16
    for (i = 0U; i < (fifo - 1U); i++)
 80022b8:	3301      	adds	r3, #1
 80022ba:	b2db      	uxtb	r3, r3
 80022bc:	e7f2      	b.n	80022a4 <HAL_PCDEx_SetTxFiFo+0x1a>
    }

    /* Multiply Tx_Size by 2 to get higher performance */
    hpcd->Instance->DIEPTXF[fifo - 1U] = ((uint32_t)size << 16) | Tx_Offset;
 80022be:	ea40 4002 	orr.w	r0, r0, r2, lsl #16
 80022c2:	f105 013f 	add.w	r1, r5, #63	; 0x3f
 80022c6:	eb04 0181 	add.w	r1, r4, r1, lsl #2
 80022ca:	6048      	str	r0, [r1, #4]
  }

  return HAL_OK;
}
 80022cc:	2000      	movs	r0, #0
 80022ce:	bc30      	pop	{r4, r5}
 80022d0:	4770      	bx	lr

080022d2 <HAL_PCDEx_SetRxFiFo>:
  * @param  size Size of Rx fifo
  * @retval HAL status
  */
HAL_StatusTypeDef HAL_PCDEx_SetRxFiFo(PCD_HandleTypeDef *hpcd, uint16_t size)
{
  hpcd->Instance->GRXFSIZ = size;
 80022d2:	6803      	ldr	r3, [r0, #0]
 80022d4:	6259      	str	r1, [r3, #36]	; 0x24

  return HAL_OK;
}
 80022d6:	2000      	movs	r0, #0
 80022d8:	4770      	bx	lr
	...

080022dc <HAL_PCDEx_ActivateLPM>:
  * @brief  Activate LPM feature.
  * @param  hpcd PCD handle
  * @retval HAL status
  */
HAL_StatusTypeDef HAL_PCDEx_ActivateLPM(PCD_HandleTypeDef *hpcd)
{
 80022dc:	4603      	mov	r3, r0
  USB_OTG_GlobalTypeDef *USBx = hpcd->Instance;
 80022de:	6802      	ldr	r2, [r0, #0]

  hpcd->lpm_active = 1U;
 80022e0:	2101      	movs	r1, #1
 80022e2:	f8c0 13fc 	str.w	r1, [r0, #1020]	; 0x3fc
  hpcd->LPM_State = LPM_L0;
 80022e6:	2000      	movs	r0, #0
 80022e8:	f883 03f4 	strb.w	r0, [r3, #1012]	; 0x3f4
  USBx->GINTMSK |= USB_OTG_GINTMSK_LPMINTM;
 80022ec:	6993      	ldr	r3, [r2, #24]
 80022ee:	f043 6300 	orr.w	r3, r3, #134217728	; 0x8000000
 80022f2:	6193      	str	r3, [r2, #24]
  USBx->GLPMCFG |= (USB_OTG_GLPMCFG_LPMEN | USB_OTG_GLPMCFG_LPMACK | USB_OTG_GLPMCFG_ENBESL);
 80022f4:	6d51      	ldr	r1, [r2, #84]	; 0x54
 80022f6:	4b02      	ldr	r3, [pc, #8]	; (8002300 <HAL_PCDEx_ActivateLPM+0x24>)
 80022f8:	430b      	orrs	r3, r1
 80022fa:	6553      	str	r3, [r2, #84]	; 0x54

  return HAL_OK;
}
 80022fc:	4770      	bx	lr
 80022fe:	bf00      	nop
 8002300:	10000003 	.word	0x10000003

08002304 <HAL_PCDEx_LPM_Callback>:
  UNUSED(msg);

  /* NOTE : This function should not be modified, when the callback is needed,
            the HAL_PCDEx_LPM_Callback could be implemented in the user file
   */
}
 8002304:	4770      	bx	lr
	...

08002308 <HAL_PWREx_ConfigSupply>:
  /* Check the parameters */
  assert_param (IS_PWR_SUPPLY (SupplySource));

  /* Check if supply source was configured */
#if defined (PWR_FLAG_SCUEN)
  if (__HAL_PWR_GET_FLAG (PWR_FLAG_SCUEN) == 0U)
 8002308:	4b13      	ldr	r3, [pc, #76]	; (8002358 <HAL_PWREx_ConfigSupply+0x50>)
 800230a:	68db      	ldr	r3, [r3, #12]
 800230c:	f013 0f04 	tst.w	r3, #4
 8002310:	d107      	bne.n	8002322 <HAL_PWREx_ConfigSupply+0x1a>
#else
  if ((PWR->CR3 & (PWR_CR3_SMPSEN | PWR_CR3_LDOEN | PWR_CR3_BYPASS)) != (PWR_CR3_SMPSEN | PWR_CR3_LDOEN))
#endif /* defined (PWR_FLAG_SCUEN) */
  {
    /* Check supply configuration */
    if ((PWR->CR3 & PWR_SUPPLY_CONFIG_MASK) != SupplySource)
 8002312:	4b11      	ldr	r3, [pc, #68]	; (8002358 <HAL_PWREx_ConfigSupply+0x50>)
 8002314:	68db      	ldr	r3, [r3, #12]
 8002316:	f003 0307 	and.w	r3, r3, #7
 800231a:	4283      	cmp	r3, r0
 800231c:	d01a      	beq.n	8002354 <HAL_PWREx_ConfigSupply+0x4c>
    {
      /* Supply configuration update locked, can't apply a new supply config */
      return HAL_ERROR;
 800231e:	2001      	movs	r0, #1
 8002320:	4770      	bx	lr
{
 8002322:	b510      	push	{r4, lr}
      return HAL_OK;
    }
  }

  /* Set the power supply configuration */
  MODIFY_REG (PWR->CR3, PWR_SUPPLY_CONFIG_MASK, SupplySource);
 8002324:	4a0c      	ldr	r2, [pc, #48]	; (8002358 <HAL_PWREx_ConfigSupply+0x50>)
 8002326:	68d3      	ldr	r3, [r2, #12]
 8002328:	f023 0307 	bic.w	r3, r3, #7
 800232c:	4318      	orrs	r0, r3
 800232e:	60d0      	str	r0, [r2, #12]

  /* Get tick */
  tickstart = HAL_GetTick ();
 8002330:	f7fe f9dc 	bl	80006ec <HAL_GetTick>
 8002334:	4604      	mov	r4, r0

  /* Wait till voltage level flag is set */
  while (__HAL_PWR_GET_FLAG (PWR_FLAG_ACTVOSRDY) == 0U)
 8002336:	4b08      	ldr	r3, [pc, #32]	; (8002358 <HAL_PWREx_ConfigSupply+0x50>)
 8002338:	685b      	ldr	r3, [r3, #4]
 800233a:	f413 5f00 	tst.w	r3, #8192	; 0x2000
 800233e:	d107      	bne.n	8002350 <HAL_PWREx_ConfigSupply+0x48>
  {
    if ((HAL_GetTick () - tickstart) > PWR_FLAG_SETTING_DELAY)
 8002340:	f7fe f9d4 	bl	80006ec <HAL_GetTick>
 8002344:	1b00      	subs	r0, r0, r4
 8002346:	f5b0 7f7a 	cmp.w	r0, #1000	; 0x3e8
 800234a:	d9f4      	bls.n	8002336 <HAL_PWREx_ConfigSupply+0x2e>
    {
      return HAL_ERROR;
 800234c:	2001      	movs	r0, #1
 800234e:	e000      	b.n	8002352 <HAL_PWREx_ConfigSupply+0x4a>
      }
    }
  }
#endif /* defined (SMPS) */

  return HAL_OK;
 8002350:	2000      	movs	r0, #0
}
 8002352:	bd10      	pop	{r4, pc}
      return HAL_OK;
 8002354:	2000      	movs	r0, #0
}
 8002356:	4770      	bx	lr
 8002358:	58024800 	.word	0x58024800

0800235c <HAL_PWREx_EnableUSBVoltageDetector>:
  * @retval None.
  */
void HAL_PWREx_EnableUSBVoltageDetector (void)
{
  /* Enable the USB voltage detector */
  SET_BIT (PWR->CR3, PWR_CR3_USB33DEN);
 800235c:	4a02      	ldr	r2, [pc, #8]	; (8002368 <HAL_PWREx_EnableUSBVoltageDetector+0xc>)
 800235e:	68d3      	ldr	r3, [r2, #12]
 8002360:	f043 7380 	orr.w	r3, r3, #16777216	; 0x1000000
 8002364:	60d3      	str	r3, [r2, #12]
}
 8002366:	4770      	bx	lr
 8002368:	58024800 	.word	0x58024800

0800236c <HAL_RCC_OscConfig>:
{
  uint32_t tickstart;
  uint32_t temp1_pllckcfg, temp2_pllckcfg;

    /* Check Null pointer */
  if(RCC_OscInitStruct == NULL)
 800236c:	2800      	cmp	r0, #0
 800236e:	f000 8304 	beq.w	800297a <HAL_RCC_OscConfig+0x60e>
{
 8002372:	b538      	push	{r3, r4, r5, lr}
 8002374:	4604      	mov	r4, r0
  }

  /* Check the parameters */
  assert_param(IS_RCC_OSCILLATORTYPE(RCC_OscInitStruct->OscillatorType));
  /*------------------------------- HSE Configuration ------------------------*/
  if(((RCC_OscInitStruct->OscillatorType) & RCC_OSCILLATORTYPE_HSE) == RCC_OSCILLATORTYPE_HSE)
 8002376:	6803      	ldr	r3, [r0, #0]
 8002378:	f013 0f01 	tst.w	r3, #1
 800237c:	d025      	beq.n	80023ca <HAL_RCC_OscConfig+0x5e>
  {
    /* Check the parameters */
    assert_param(IS_RCC_HSE(RCC_OscInitStruct->HSEState));

    const uint32_t temp_sysclksrc = __HAL_RCC_GET_SYSCLK_SOURCE();
 800237e:	4aae      	ldr	r2, [pc, #696]	; (8002638 <HAL_RCC_OscConfig+0x2cc>)
 8002380:	6913      	ldr	r3, [r2, #16]
 8002382:	f003 0338 	and.w	r3, r3, #56	; 0x38
    const uint32_t temp_pllckselr = RCC->PLLCKSELR;
 8002386:	6a92      	ldr	r2, [r2, #40]	; 0x28
    /* When the HSE is used as system clock or clock source for PLL in these cases HSE will not disabled */
    if((temp_sysclksrc == RCC_CFGR_SWS_HSE) || ((temp_sysclksrc == RCC_CFGR_SWS_PLL1) && ((temp_pllckselr & RCC_PLLCKSELR_PLLSRC) == RCC_PLLCKSELR_PLLSRC_HSE)))
 8002388:	2b10      	cmp	r3, #16
 800238a:	d015      	beq.n	80023b8 <HAL_RCC_OscConfig+0x4c>
 800238c:	2b18      	cmp	r3, #24
 800238e:	d00f      	beq.n	80023b0 <HAL_RCC_OscConfig+0x44>
      }
    }
    else
    {
      /* Set the new HSE configuration ---------------------------------------*/
      __HAL_RCC_HSE_CONFIG(RCC_OscInitStruct->HSEState);
 8002390:	6863      	ldr	r3, [r4, #4]
 8002392:	f5b3 3f80 	cmp.w	r3, #65536	; 0x10000
 8002396:	d03f      	beq.n	8002418 <HAL_RCC_OscConfig+0xac>
 8002398:	2b00      	cmp	r3, #0
 800239a:	d153      	bne.n	8002444 <HAL_RCC_OscConfig+0xd8>
 800239c:	4ba6      	ldr	r3, [pc, #664]	; (8002638 <HAL_RCC_OscConfig+0x2cc>)
 800239e:	681a      	ldr	r2, [r3, #0]
 80023a0:	f422 3280 	bic.w	r2, r2, #65536	; 0x10000
 80023a4:	601a      	str	r2, [r3, #0]
 80023a6:	681a      	ldr	r2, [r3, #0]
 80023a8:	f422 2280 	bic.w	r2, r2, #262144	; 0x40000
 80023ac:	601a      	str	r2, [r3, #0]
 80023ae:	e038      	b.n	8002422 <HAL_RCC_OscConfig+0xb6>
    if((temp_sysclksrc == RCC_CFGR_SWS_HSE) || ((temp_sysclksrc == RCC_CFGR_SWS_PLL1) && ((temp_pllckselr & RCC_PLLCKSELR_PLLSRC) == RCC_PLLCKSELR_PLLSRC_HSE)))
 80023b0:	f002 0203 	and.w	r2, r2, #3
 80023b4:	2a02      	cmp	r2, #2
 80023b6:	d1eb      	bne.n	8002390 <HAL_RCC_OscConfig+0x24>
      if((__HAL_RCC_GET_FLAG(RCC_FLAG_HSERDY) != 0U) && (RCC_OscInitStruct->HSEState == RCC_HSE_OFF))
 80023b8:	4b9f      	ldr	r3, [pc, #636]	; (8002638 <HAL_RCC_OscConfig+0x2cc>)
 80023ba:	681b      	ldr	r3, [r3, #0]
 80023bc:	f413 3f00 	tst.w	r3, #131072	; 0x20000
 80023c0:	d003      	beq.n	80023ca <HAL_RCC_OscConfig+0x5e>
 80023c2:	6863      	ldr	r3, [r4, #4]
 80023c4:	2b00      	cmp	r3, #0
 80023c6:	f000 82da 	beq.w	800297e <HAL_RCC_OscConfig+0x612>
        }
      }
    }
  }
  /*----------------------------- HSI Configuration --------------------------*/
  if(((RCC_OscInitStruct->OscillatorType) & RCC_OSCILLATORTYPE_HSI) == RCC_OSCILLATORTYPE_HSI)
 80023ca:	6823      	ldr	r3, [r4, #0]
 80023cc:	f013 0f02 	tst.w	r3, #2
 80023d0:	f000 808b 	beq.w	80024ea <HAL_RCC_OscConfig+0x17e>
    /* Check the parameters */
    assert_param(IS_RCC_HSI(RCC_OscInitStruct->HSIState));
    assert_param(IS_RCC_HSICALIBRATION_VALUE(RCC_OscInitStruct->HSICalibrationValue));

    /* When the HSI is used as system clock it will not be disabled */
    const uint32_t temp_sysclksrc = __HAL_RCC_GET_SYSCLK_SOURCE();
 80023d4:	4a98      	ldr	r2, [pc, #608]	; (8002638 <HAL_RCC_OscConfig+0x2cc>)
 80023d6:	6913      	ldr	r3, [r2, #16]
    const uint32_t temp_pllckselr = RCC->PLLCKSELR;
 80023d8:	6a92      	ldr	r2, [r2, #40]	; 0x28
    if((temp_sysclksrc == RCC_CFGR_SWS_HSI) || ((temp_sysclksrc == RCC_CFGR_SWS_PLL1) && ((temp_pllckselr & RCC_PLLCKSELR_PLLSRC) == RCC_PLLCKSELR_PLLSRC_HSI)))
 80023da:	f013 0338 	ands.w	r3, r3, #56	; 0x38
 80023de:	d05a      	beq.n	8002496 <HAL_RCC_OscConfig+0x12a>
 80023e0:	2b18      	cmp	r3, #24
 80023e2:	d055      	beq.n	8002490 <HAL_RCC_OscConfig+0x124>
    }

    else
    {
      /* Check the HSI State */
      if((RCC_OscInitStruct->HSIState)!= RCC_HSI_OFF)
 80023e4:	68e3      	ldr	r3, [r4, #12]
 80023e6:	2b00      	cmp	r3, #0
 80023e8:	f000 80c8 	beq.w	800257c <HAL_RCC_OscConfig+0x210>
      {
     /* Enable the Internal High Speed oscillator (HSI, HSIDIV2,HSIDIV4, or HSIDIV8) */
        __HAL_RCC_HSI_CONFIG(RCC_OscInitStruct->HSIState);
 80023ec:	4992      	ldr	r1, [pc, #584]	; (8002638 <HAL_RCC_OscConfig+0x2cc>)
 80023ee:	680a      	ldr	r2, [r1, #0]
 80023f0:	f022 0219 	bic.w	r2, r2, #25
 80023f4:	4313      	orrs	r3, r2
 80023f6:	600b      	str	r3, [r1, #0]

        /* Get Start Tick*/
        tickstart = HAL_GetTick();
 80023f8:	f7fe f978 	bl	80006ec <HAL_GetTick>
 80023fc:	4605      	mov	r5, r0

        /* Wait till HSI is ready */
        while(__HAL_RCC_GET_FLAG(RCC_FLAG_HSIRDY) == 0U)
 80023fe:	4b8e      	ldr	r3, [pc, #568]	; (8002638 <HAL_RCC_OscConfig+0x2cc>)
 8002400:	681b      	ldr	r3, [r3, #0]
 8002402:	f013 0f04 	tst.w	r3, #4
 8002406:	f040 8097 	bne.w	8002538 <HAL_RCC_OscConfig+0x1cc>
        {
          if((HAL_GetTick() - tickstart ) > HSI_TIMEOUT_VALUE)
 800240a:	f7fe f96f 	bl	80006ec <HAL_GetTick>
 800240e:	1b40      	subs	r0, r0, r5
 8002410:	2802      	cmp	r0, #2
 8002412:	d9f4      	bls.n	80023fe <HAL_RCC_OscConfig+0x92>
          {
            return HAL_TIMEOUT;
 8002414:	2003      	movs	r0, #3
 8002416:	e2b9      	b.n	800298c <HAL_RCC_OscConfig+0x620>
      __HAL_RCC_HSE_CONFIG(RCC_OscInitStruct->HSEState);
 8002418:	4a87      	ldr	r2, [pc, #540]	; (8002638 <HAL_RCC_OscConfig+0x2cc>)
 800241a:	6813      	ldr	r3, [r2, #0]
 800241c:	f443 3380 	orr.w	r3, r3, #65536	; 0x10000
 8002420:	6013      	str	r3, [r2, #0]
      if(RCC_OscInitStruct->HSEState != RCC_HSE_OFF)
 8002422:	6863      	ldr	r3, [r4, #4]
 8002424:	b32b      	cbz	r3, 8002472 <HAL_RCC_OscConfig+0x106>
        tickstart = HAL_GetTick();
 8002426:	f7fe f961 	bl	80006ec <HAL_GetTick>
 800242a:	4605      	mov	r5, r0
        while(__HAL_RCC_GET_FLAG(RCC_FLAG_HSERDY) == 0U)
 800242c:	4b82      	ldr	r3, [pc, #520]	; (8002638 <HAL_RCC_OscConfig+0x2cc>)
 800242e:	681b      	ldr	r3, [r3, #0]
 8002430:	f413 3f00 	tst.w	r3, #131072	; 0x20000
 8002434:	d1c9      	bne.n	80023ca <HAL_RCC_OscConfig+0x5e>
          if((uint32_t) (HAL_GetTick() - tickstart ) > HSE_TIMEOUT_VALUE)
 8002436:	f7fe f959 	bl	80006ec <HAL_GetTick>
 800243a:	1b40      	subs	r0, r0, r5
 800243c:	2864      	cmp	r0, #100	; 0x64
 800243e:	d9f5      	bls.n	800242c <HAL_RCC_OscConfig+0xc0>
            return HAL_TIMEOUT;
 8002440:	2003      	movs	r0, #3
 8002442:	e2a3      	b.n	800298c <HAL_RCC_OscConfig+0x620>
      __HAL_RCC_HSE_CONFIG(RCC_OscInitStruct->HSEState);
 8002444:	f5b3 2fa0 	cmp.w	r3, #327680	; 0x50000
 8002448:	d009      	beq.n	800245e <HAL_RCC_OscConfig+0xf2>
 800244a:	4b7b      	ldr	r3, [pc, #492]	; (8002638 <HAL_RCC_OscConfig+0x2cc>)
 800244c:	681a      	ldr	r2, [r3, #0]
 800244e:	f422 3280 	bic.w	r2, r2, #65536	; 0x10000
 8002452:	601a      	str	r2, [r3, #0]
 8002454:	681a      	ldr	r2, [r3, #0]
 8002456:	f422 2280 	bic.w	r2, r2, #262144	; 0x40000
 800245a:	601a      	str	r2, [r3, #0]
 800245c:	e7e1      	b.n	8002422 <HAL_RCC_OscConfig+0xb6>
 800245e:	4b76      	ldr	r3, [pc, #472]	; (8002638 <HAL_RCC_OscConfig+0x2cc>)
 8002460:	681a      	ldr	r2, [r3, #0]
 8002462:	f442 2280 	orr.w	r2, r2, #262144	; 0x40000
 8002466:	601a      	str	r2, [r3, #0]
 8002468:	681a      	ldr	r2, [r3, #0]
 800246a:	f442 3280 	orr.w	r2, r2, #65536	; 0x10000
 800246e:	601a      	str	r2, [r3, #0]
 8002470:	e7d7      	b.n	8002422 <HAL_RCC_OscConfig+0xb6>
        tickstart = HAL_GetTick();
 8002472:	f7fe f93b 	bl	80006ec <HAL_GetTick>
 8002476:	4605      	mov	r5, r0
        while(__HAL_RCC_GET_FLAG(RCC_FLAG_HSERDY) != 0U)
 8002478:	4b6f      	ldr	r3, [pc, #444]	; (8002638 <HAL_RCC_OscConfig+0x2cc>)
 800247a:	681b      	ldr	r3, [r3, #0]
 800247c:	f413 3f00 	tst.w	r3, #131072	; 0x20000
 8002480:	d0a3      	beq.n	80023ca <HAL_RCC_OscConfig+0x5e>
          if((uint32_t) (HAL_GetTick() - tickstart ) > HSE_TIMEOUT_VALUE)
 8002482:	f7fe f933 	bl	80006ec <HAL_GetTick>
 8002486:	1b40      	subs	r0, r0, r5
 8002488:	2864      	cmp	r0, #100	; 0x64
 800248a:	d9f5      	bls.n	8002478 <HAL_RCC_OscConfig+0x10c>
            return HAL_TIMEOUT;
 800248c:	2003      	movs	r0, #3
 800248e:	e27d      	b.n	800298c <HAL_RCC_OscConfig+0x620>
    if((temp_sysclksrc == RCC_CFGR_SWS_HSI) || ((temp_sysclksrc == RCC_CFGR_SWS_PLL1) && ((temp_pllckselr & RCC_PLLCKSELR_PLLSRC) == RCC_PLLCKSELR_PLLSRC_HSI)))
 8002490:	f012 0f03 	tst.w	r2, #3
 8002494:	d1a6      	bne.n	80023e4 <HAL_RCC_OscConfig+0x78>
      if((__HAL_RCC_GET_FLAG(RCC_FLAG_HSIRDY) != 0U) && (RCC_OscInitStruct->HSIState == RCC_HSI_OFF))
 8002496:	4b68      	ldr	r3, [pc, #416]	; (8002638 <HAL_RCC_OscConfig+0x2cc>)
 8002498:	681b      	ldr	r3, [r3, #0]
 800249a:	f013 0f04 	tst.w	r3, #4
 800249e:	d003      	beq.n	80024a8 <HAL_RCC_OscConfig+0x13c>
 80024a0:	68e3      	ldr	r3, [r4, #12]
 80024a2:	2b00      	cmp	r3, #0
 80024a4:	f000 826d 	beq.w	8002982 <HAL_RCC_OscConfig+0x616>
        __HAL_RCC_HSI_CALIBRATIONVALUE_ADJUST(RCC_OscInitStruct->HSICalibrationValue);
 80024a8:	f7fe f93a 	bl	8000720 <HAL_GetREVID>
 80024ac:	f241 0303 	movw	r3, #4099	; 0x1003
 80024b0:	4298      	cmp	r0, r3
 80024b2:	d812      	bhi.n	80024da <HAL_RCC_OscConfig+0x16e>
 80024b4:	6922      	ldr	r2, [r4, #16]
 80024b6:	2a40      	cmp	r2, #64	; 0x40
 80024b8:	d007      	beq.n	80024ca <HAL_RCC_OscConfig+0x15e>
 80024ba:	495f      	ldr	r1, [pc, #380]	; (8002638 <HAL_RCC_OscConfig+0x2cc>)
 80024bc:	684b      	ldr	r3, [r1, #4]
 80024be:	f423 337c 	bic.w	r3, r3, #258048	; 0x3f000
 80024c2:	ea43 3302 	orr.w	r3, r3, r2, lsl #12
 80024c6:	604b      	str	r3, [r1, #4]
 80024c8:	e00f      	b.n	80024ea <HAL_RCC_OscConfig+0x17e>
 80024ca:	4a5b      	ldr	r2, [pc, #364]	; (8002638 <HAL_RCC_OscConfig+0x2cc>)
 80024cc:	6853      	ldr	r3, [r2, #4]
 80024ce:	f423 337c 	bic.w	r3, r3, #258048	; 0x3f000
 80024d2:	f443 3300 	orr.w	r3, r3, #131072	; 0x20000
 80024d6:	6053      	str	r3, [r2, #4]
 80024d8:	e007      	b.n	80024ea <HAL_RCC_OscConfig+0x17e>
 80024da:	4a57      	ldr	r2, [pc, #348]	; (8002638 <HAL_RCC_OscConfig+0x2cc>)
 80024dc:	6853      	ldr	r3, [r2, #4]
 80024de:	f023 43fe 	bic.w	r3, r3, #2130706432	; 0x7f000000
 80024e2:	6921      	ldr	r1, [r4, #16]
 80024e4:	ea43 6301 	orr.w	r3, r3, r1, lsl #24
 80024e8:	6053      	str	r3, [r2, #4]
        }
      }
    }
  }
  /*----------------------------- CSI Configuration --------------------------*/
  if(((RCC_OscInitStruct->OscillatorType) & RCC_OSCILLATORTYPE_CSI) == RCC_OSCILLATORTYPE_CSI)
 80024ea:	6823      	ldr	r3, [r4, #0]
 80024ec:	f013 0f10 	tst.w	r3, #16
 80024f0:	f000 8086 	beq.w	8002600 <HAL_RCC_OscConfig+0x294>
    /* Check the parameters */
    assert_param(IS_RCC_CSI(RCC_OscInitStruct->CSIState));
    assert_param(IS_RCC_CSICALIBRATION_VALUE(RCC_OscInitStruct->CSICalibrationValue));

    /* When the CSI is used as system clock it will not disabled */
    const uint32_t temp_sysclksrc = __HAL_RCC_GET_SYSCLK_SOURCE();
 80024f4:	4a50      	ldr	r2, [pc, #320]	; (8002638 <HAL_RCC_OscConfig+0x2cc>)
 80024f6:	6913      	ldr	r3, [r2, #16]
 80024f8:	f003 0338 	and.w	r3, r3, #56	; 0x38
    const uint32_t temp_pllckselr = RCC->PLLCKSELR;
 80024fc:	6a92      	ldr	r2, [r2, #40]	; 0x28
    if((temp_sysclksrc == RCC_CFGR_SWS_CSI) || ((temp_sysclksrc == RCC_CFGR_SWS_PLL1) && ((temp_pllckselr & RCC_PLLCKSELR_PLLSRC) == RCC_PLLCKSELR_PLLSRC_CSI)))
 80024fe:	2b08      	cmp	r3, #8
 8002500:	d054      	beq.n	80025ac <HAL_RCC_OscConfig+0x240>
 8002502:	2b18      	cmp	r3, #24
 8002504:	d04e      	beq.n	80025a4 <HAL_RCC_OscConfig+0x238>
      }
    }
    else
    {
      /* Check the CSI State */
      if((RCC_OscInitStruct->CSIState)!= RCC_CSI_OFF)
 8002506:	69e3      	ldr	r3, [r4, #28]
 8002508:	2b00      	cmp	r3, #0
 800250a:	f000 80b9 	beq.w	8002680 <HAL_RCC_OscConfig+0x314>
      {
        /* Enable the Internal High Speed oscillator (CSI). */
        __HAL_RCC_CSI_ENABLE();
 800250e:	4a4a      	ldr	r2, [pc, #296]	; (8002638 <HAL_RCC_OscConfig+0x2cc>)
 8002510:	6813      	ldr	r3, [r2, #0]
 8002512:	f043 0380 	orr.w	r3, r3, #128	; 0x80
 8002516:	6013      	str	r3, [r2, #0]

        /* Get Start Tick*/
        tickstart = HAL_GetTick();
 8002518:	f7fe f8e8 	bl	80006ec <HAL_GetTick>
 800251c:	4605      	mov	r5, r0

        /* Wait till CSI is ready */
        while(__HAL_RCC_GET_FLAG(RCC_FLAG_CSIRDY) == 0U)
 800251e:	4b46      	ldr	r3, [pc, #280]	; (8002638 <HAL_RCC_OscConfig+0x2cc>)
 8002520:	681b      	ldr	r3, [r3, #0]
 8002522:	f413 7f80 	tst.w	r3, #256	; 0x100
 8002526:	f040 8089 	bne.w	800263c <HAL_RCC_OscConfig+0x2d0>
        {
          if((HAL_GetTick() - tickstart ) > CSI_TIMEOUT_VALUE)
 800252a:	f7fe f8df 	bl	80006ec <HAL_GetTick>
 800252e:	1b40      	subs	r0, r0, r5
 8002530:	2802      	cmp	r0, #2
 8002532:	d9f4      	bls.n	800251e <HAL_RCC_OscConfig+0x1b2>
          {
            return HAL_TIMEOUT;
 8002534:	2003      	movs	r0, #3
 8002536:	e229      	b.n	800298c <HAL_RCC_OscConfig+0x620>
        __HAL_RCC_HSI_CALIBRATIONVALUE_ADJUST(RCC_OscInitStruct->HSICalibrationValue);
 8002538:	f7fe f8f2 	bl	8000720 <HAL_GetREVID>
 800253c:	f241 0303 	movw	r3, #4099	; 0x1003
 8002540:	4298      	cmp	r0, r3
 8002542:	d812      	bhi.n	800256a <HAL_RCC_OscConfig+0x1fe>
 8002544:	6922      	ldr	r2, [r4, #16]
 8002546:	2a40      	cmp	r2, #64	; 0x40
 8002548:	d007      	beq.n	800255a <HAL_RCC_OscConfig+0x1ee>
 800254a:	493b      	ldr	r1, [pc, #236]	; (8002638 <HAL_RCC_OscConfig+0x2cc>)
 800254c:	684b      	ldr	r3, [r1, #4]
 800254e:	f423 337c 	bic.w	r3, r3, #258048	; 0x3f000
 8002552:	ea43 3302 	orr.w	r3, r3, r2, lsl #12
 8002556:	604b      	str	r3, [r1, #4]
 8002558:	e7c7      	b.n	80024ea <HAL_RCC_OscConfig+0x17e>
 800255a:	4a37      	ldr	r2, [pc, #220]	; (8002638 <HAL_RCC_OscConfig+0x2cc>)
 800255c:	6853      	ldr	r3, [r2, #4]
 800255e:	f423 337c 	bic.w	r3, r3, #258048	; 0x3f000
 8002562:	f443 3300 	orr.w	r3, r3, #131072	; 0x20000
 8002566:	6053      	str	r3, [r2, #4]
 8002568:	e7bf      	b.n	80024ea <HAL_RCC_OscConfig+0x17e>
 800256a:	4a33      	ldr	r2, [pc, #204]	; (8002638 <HAL_RCC_OscConfig+0x2cc>)
 800256c:	6853      	ldr	r3, [r2, #4]
 800256e:	f023 43fe 	bic.w	r3, r3, #2130706432	; 0x7f000000
 8002572:	6921      	ldr	r1, [r4, #16]
 8002574:	ea43 6301 	orr.w	r3, r3, r1, lsl #24
 8002578:	6053      	str	r3, [r2, #4]
 800257a:	e7b6      	b.n	80024ea <HAL_RCC_OscConfig+0x17e>
        __HAL_RCC_HSI_DISABLE();
 800257c:	4a2e      	ldr	r2, [pc, #184]	; (8002638 <HAL_RCC_OscConfig+0x2cc>)
 800257e:	6813      	ldr	r3, [r2, #0]
 8002580:	f023 0301 	bic.w	r3, r3, #1
 8002584:	6013      	str	r3, [r2, #0]
        tickstart = HAL_GetTick();
 8002586:	f7fe f8b1 	bl	80006ec <HAL_GetTick>
 800258a:	4605      	mov	r5, r0
        while(__HAL_RCC_GET_FLAG(RCC_FLAG_HSIRDY) != 0U)
 800258c:	4b2a      	ldr	r3, [pc, #168]	; (8002638 <HAL_RCC_OscConfig+0x2cc>)
 800258e:	681b      	ldr	r3, [r3, #0]
 8002590:	f013 0f04 	tst.w	r3, #4
 8002594:	d0a9      	beq.n	80024ea <HAL_RCC_OscConfig+0x17e>
          if((HAL_GetTick() - tickstart ) > HSI_TIMEOUT_VALUE)
 8002596:	f7fe f8a9 	bl	80006ec <HAL_GetTick>
 800259a:	1b40      	subs	r0, r0, r5
 800259c:	2802      	cmp	r0, #2
 800259e:	d9f5      	bls.n	800258c <HAL_RCC_OscConfig+0x220>
            return HAL_TIMEOUT;
 80025a0:	2003      	movs	r0, #3
 80025a2:	e1f3      	b.n	800298c <HAL_RCC_OscConfig+0x620>
    if((temp_sysclksrc == RCC_CFGR_SWS_CSI) || ((temp_sysclksrc == RCC_CFGR_SWS_PLL1) && ((temp_pllckselr & RCC_PLLCKSELR_PLLSRC) == RCC_PLLCKSELR_PLLSRC_CSI)))
 80025a4:	f002 0203 	and.w	r2, r2, #3
 80025a8:	2a01      	cmp	r2, #1
 80025aa:	d1ac      	bne.n	8002506 <HAL_RCC_OscConfig+0x19a>
      if((__HAL_RCC_GET_FLAG(RCC_FLAG_CSIRDY) != 0U) && (RCC_OscInitStruct->CSIState != RCC_CSI_ON))
 80025ac:	4b22      	ldr	r3, [pc, #136]	; (8002638 <HAL_RCC_OscConfig+0x2cc>)
 80025ae:	681b      	ldr	r3, [r3, #0]
 80025b0:	f413 7f80 	tst.w	r3, #256	; 0x100
 80025b4:	d003      	beq.n	80025be <HAL_RCC_OscConfig+0x252>
 80025b6:	69e3      	ldr	r3, [r4, #28]
 80025b8:	2b80      	cmp	r3, #128	; 0x80
 80025ba:	f040 81e4 	bne.w	8002986 <HAL_RCC_OscConfig+0x61a>
        __HAL_RCC_CSI_CALIBRATIONVALUE_ADJUST(RCC_OscInitStruct->CSICalibrationValue);
 80025be:	f7fe f8af 	bl	8000720 <HAL_GetREVID>
 80025c2:	f241 0303 	movw	r3, #4099	; 0x1003
 80025c6:	4298      	cmp	r0, r3
 80025c8:	d812      	bhi.n	80025f0 <HAL_RCC_OscConfig+0x284>
 80025ca:	6a22      	ldr	r2, [r4, #32]
 80025cc:	2a20      	cmp	r2, #32
 80025ce:	d007      	beq.n	80025e0 <HAL_RCC_OscConfig+0x274>
 80025d0:	4919      	ldr	r1, [pc, #100]	; (8002638 <HAL_RCC_OscConfig+0x2cc>)
 80025d2:	684b      	ldr	r3, [r1, #4]
 80025d4:	f023 43f8 	bic.w	r3, r3, #2080374784	; 0x7c000000
 80025d8:	ea43 6382 	orr.w	r3, r3, r2, lsl #26
 80025dc:	604b      	str	r3, [r1, #4]
 80025de:	e00f      	b.n	8002600 <HAL_RCC_OscConfig+0x294>
 80025e0:	4a15      	ldr	r2, [pc, #84]	; (8002638 <HAL_RCC_OscConfig+0x2cc>)
 80025e2:	6853      	ldr	r3, [r2, #4]
 80025e4:	f023 43f8 	bic.w	r3, r3, #2080374784	; 0x7c000000
 80025e8:	f043 4380 	orr.w	r3, r3, #1073741824	; 0x40000000
 80025ec:	6053      	str	r3, [r2, #4]
 80025ee:	e007      	b.n	8002600 <HAL_RCC_OscConfig+0x294>
 80025f0:	4a11      	ldr	r2, [pc, #68]	; (8002638 <HAL_RCC_OscConfig+0x2cc>)
 80025f2:	68d3      	ldr	r3, [r2, #12]
 80025f4:	f023 537c 	bic.w	r3, r3, #1056964608	; 0x3f000000
 80025f8:	6a21      	ldr	r1, [r4, #32]
 80025fa:	ea43 6301 	orr.w	r3, r3, r1, lsl #24
 80025fe:	60d3      	str	r3, [r2, #12]
        }
      }
    }
  }
  /*------------------------------ LSI Configuration -------------------------*/
  if(((RCC_OscInitStruct->OscillatorType) & RCC_OSCILLATORTYPE_LSI) == RCC_OSCILLATORTYPE_LSI)
 8002600:	6823      	ldr	r3, [r4, #0]
 8002602:	f013 0f08 	tst.w	r3, #8
 8002606:	d063      	beq.n	80026d0 <HAL_RCC_OscConfig+0x364>
  {
    /* Check the parameters */
    assert_param(IS_RCC_LSI(RCC_OscInitStruct->LSIState));

    /* Check the LSI State */
    if((RCC_OscInitStruct->LSIState)!= RCC_LSI_OFF)
 8002608:	6963      	ldr	r3, [r4, #20]
 800260a:	2b00      	cmp	r3, #0
 800260c:	d04c      	beq.n	80026a8 <HAL_RCC_OscConfig+0x33c>
    {
      /* Enable the Internal Low Speed oscillator (LSI). */
      __HAL_RCC_LSI_ENABLE();
 800260e:	4a0a      	ldr	r2, [pc, #40]	; (8002638 <HAL_RCC_OscConfig+0x2cc>)
 8002610:	6f53      	ldr	r3, [r2, #116]	; 0x74
 8002612:	f043 0301 	orr.w	r3, r3, #1
 8002616:	6753      	str	r3, [r2, #116]	; 0x74

      /* Get Start Tick*/
      tickstart = HAL_GetTick();
 8002618:	f7fe f868 	bl	80006ec <HAL_GetTick>
 800261c:	4605      	mov	r5, r0

      /* Wait till LSI is ready */
      while(__HAL_RCC_GET_FLAG(RCC_FLAG_LSIRDY) == 0U)
 800261e:	4b06      	ldr	r3, [pc, #24]	; (8002638 <HAL_RCC_OscConfig+0x2cc>)
 8002620:	6f5b      	ldr	r3, [r3, #116]	; 0x74
 8002622:	f013 0f02 	tst.w	r3, #2
 8002626:	d153      	bne.n	80026d0 <HAL_RCC_OscConfig+0x364>
      {
        if((HAL_GetTick() - tickstart ) > LSI_TIMEOUT_VALUE)
 8002628:	f7fe f860 	bl	80006ec <HAL_GetTick>
 800262c:	1b40      	subs	r0, r0, r5
 800262e:	2802      	cmp	r0, #2
 8002630:	d9f5      	bls.n	800261e <HAL_RCC_OscConfig+0x2b2>
        {
          return HAL_TIMEOUT;
 8002632:	2003      	movs	r0, #3
 8002634:	e1aa      	b.n	800298c <HAL_RCC_OscConfig+0x620>
 8002636:	bf00      	nop
 8002638:	58024400 	.word	0x58024400
        __HAL_RCC_CSI_CALIBRATIONVALUE_ADJUST(RCC_OscInitStruct->CSICalibrationValue);
 800263c:	f7fe f870 	bl	8000720 <HAL_GetREVID>
 8002640:	f241 0303 	movw	r3, #4099	; 0x1003
 8002644:	4298      	cmp	r0, r3
 8002646:	d812      	bhi.n	800266e <HAL_RCC_OscConfig+0x302>
 8002648:	6a22      	ldr	r2, [r4, #32]
 800264a:	2a20      	cmp	r2, #32
 800264c:	d007      	beq.n	800265e <HAL_RCC_OscConfig+0x2f2>
 800264e:	4985      	ldr	r1, [pc, #532]	; (8002864 <HAL_RCC_OscConfig+0x4f8>)
 8002650:	684b      	ldr	r3, [r1, #4]
 8002652:	f023 43f8 	bic.w	r3, r3, #2080374784	; 0x7c000000
 8002656:	ea43 6382 	orr.w	r3, r3, r2, lsl #26
 800265a:	604b      	str	r3, [r1, #4]
 800265c:	e7d0      	b.n	8002600 <HAL_RCC_OscConfig+0x294>
 800265e:	4a81      	ldr	r2, [pc, #516]	; (8002864 <HAL_RCC_OscConfig+0x4f8>)
 8002660:	6853      	ldr	r3, [r2, #4]
 8002662:	f023 43f8 	bic.w	r3, r3, #2080374784	; 0x7c000000
 8002666:	f043 4380 	orr.w	r3, r3, #1073741824	; 0x40000000
 800266a:	6053      	str	r3, [r2, #4]
 800266c:	e7c8      	b.n	8002600 <HAL_RCC_OscConfig+0x294>
 800266e:	4a7d      	ldr	r2, [pc, #500]	; (8002864 <HAL_RCC_OscConfig+0x4f8>)
 8002670:	68d3      	ldr	r3, [r2, #12]
 8002672:	f023 537c 	bic.w	r3, r3, #1056964608	; 0x3f000000
 8002676:	6a21      	ldr	r1, [r4, #32]
 8002678:	ea43 6301 	orr.w	r3, r3, r1, lsl #24
 800267c:	60d3      	str	r3, [r2, #12]
 800267e:	e7bf      	b.n	8002600 <HAL_RCC_OscConfig+0x294>
        __HAL_RCC_CSI_DISABLE();
 8002680:	4a78      	ldr	r2, [pc, #480]	; (8002864 <HAL_RCC_OscConfig+0x4f8>)
 8002682:	6813      	ldr	r3, [r2, #0]
 8002684:	f023 0380 	bic.w	r3, r3, #128	; 0x80
 8002688:	6013      	str	r3, [r2, #0]
        tickstart = HAL_GetTick();
 800268a:	f7fe f82f 	bl	80006ec <HAL_GetTick>
 800268e:	4605      	mov	r5, r0
        while(__HAL_RCC_GET_FLAG(RCC_FLAG_CSIRDY) != 0U)
 8002690:	4b74      	ldr	r3, [pc, #464]	; (8002864 <HAL_RCC_OscConfig+0x4f8>)
 8002692:	681b      	ldr	r3, [r3, #0]
 8002694:	f413 7f80 	tst.w	r3, #256	; 0x100
 8002698:	d0b2      	beq.n	8002600 <HAL_RCC_OscConfig+0x294>
          if((HAL_GetTick() - tickstart ) > CSI_TIMEOUT_VALUE)
 800269a:	f7fe f827 	bl	80006ec <HAL_GetTick>
 800269e:	1b40      	subs	r0, r0, r5
 80026a0:	2802      	cmp	r0, #2
 80026a2:	d9f5      	bls.n	8002690 <HAL_RCC_OscConfig+0x324>
            return HAL_TIMEOUT;
 80026a4:	2003      	movs	r0, #3
 80026a6:	e171      	b.n	800298c <HAL_RCC_OscConfig+0x620>
      }
    }
    else
    {
      /* Disable the Internal Low Speed oscillator (LSI). */
      __HAL_RCC_LSI_DISABLE();
 80026a8:	4a6e      	ldr	r2, [pc, #440]	; (8002864 <HAL_RCC_OscConfig+0x4f8>)
 80026aa:	6f53      	ldr	r3, [r2, #116]	; 0x74
 80026ac:	f023 0301 	bic.w	r3, r3, #1
 80026b0:	6753      	str	r3, [r2, #116]	; 0x74

      /* Get Start Tick*/
      tickstart = HAL_GetTick();
 80026b2:	f7fe f81b 	bl	80006ec <HAL_GetTick>
 80026b6:	4605      	mov	r5, r0

      /* Wait till LSI is ready */
      while(__HAL_RCC_GET_FLAG(RCC_FLAG_LSIRDY) != 0U)
 80026b8:	4b6a      	ldr	r3, [pc, #424]	; (8002864 <HAL_RCC_OscConfig+0x4f8>)
 80026ba:	6f5b      	ldr	r3, [r3, #116]	; 0x74
 80026bc:	f013 0f02 	tst.w	r3, #2
 80026c0:	d006      	beq.n	80026d0 <HAL_RCC_OscConfig+0x364>
      {
        if((HAL_GetTick() - tickstart ) > LSI_TIMEOUT_VALUE)
 80026c2:	f7fe f813 	bl	80006ec <HAL_GetTick>
 80026c6:	1b40      	subs	r0, r0, r5
 80026c8:	2802      	cmp	r0, #2
 80026ca:	d9f5      	bls.n	80026b8 <HAL_RCC_OscConfig+0x34c>
        {
          return HAL_TIMEOUT;
 80026cc:	2003      	movs	r0, #3
 80026ce:	e15d      	b.n	800298c <HAL_RCC_OscConfig+0x620>
      }
    }
  }

  /*------------------------------ HSI48 Configuration -------------------------*/
  if(((RCC_OscInitStruct->OscillatorType) & RCC_OSCILLATORTYPE_HSI48) == RCC_OSCILLATORTYPE_HSI48)
 80026d0:	6823      	ldr	r3, [r4, #0]
 80026d2:	f013 0f20 	tst.w	r3, #32
 80026d6:	d029      	beq.n	800272c <HAL_RCC_OscConfig+0x3c0>
  {
    /* Check the parameters */
    assert_param(IS_RCC_HSI48(RCC_OscInitStruct->HSI48State));

    /* Check the HSI48 State */
    if((RCC_OscInitStruct->HSI48State)!= RCC_HSI48_OFF)
 80026d8:	69a3      	ldr	r3, [r4, #24]
 80026da:	b19b      	cbz	r3, 8002704 <HAL_RCC_OscConfig+0x398>
    {
      /* Enable the Internal Low Speed oscillator (HSI48). */
      __HAL_RCC_HSI48_ENABLE();
 80026dc:	4a61      	ldr	r2, [pc, #388]	; (8002864 <HAL_RCC_OscConfig+0x4f8>)
 80026de:	6813      	ldr	r3, [r2, #0]
 80026e0:	f443 5380 	orr.w	r3, r3, #4096	; 0x1000
 80026e4:	6013      	str	r3, [r2, #0]

      /* Get time-out */
      tickstart = HAL_GetTick();
 80026e6:	f7fe f801 	bl	80006ec <HAL_GetTick>
 80026ea:	4605      	mov	r5, r0

      /* Wait till HSI48 is ready */
      while(__HAL_RCC_GET_FLAG(RCC_FLAG_HSI48RDY) == 0U)
 80026ec:	4b5d      	ldr	r3, [pc, #372]	; (8002864 <HAL_RCC_OscConfig+0x4f8>)
 80026ee:	681b      	ldr	r3, [r3, #0]
 80026f0:	f413 5f00 	tst.w	r3, #8192	; 0x2000
 80026f4:	d11a      	bne.n	800272c <HAL_RCC_OscConfig+0x3c0>
      {
        if((HAL_GetTick() - tickstart ) > HSI48_TIMEOUT_VALUE)
 80026f6:	f7fd fff9 	bl	80006ec <HAL_GetTick>
 80026fa:	1b40      	subs	r0, r0, r5
 80026fc:	2802      	cmp	r0, #2
 80026fe:	d9f5      	bls.n	80026ec <HAL_RCC_OscConfig+0x380>
        {
          return HAL_TIMEOUT;
 8002700:	2003      	movs	r0, #3
 8002702:	e143      	b.n	800298c <HAL_RCC_OscConfig+0x620>
      }
    }
    else
    {
      /* Disable the Internal Low Speed oscillator (HSI48). */
      __HAL_RCC_HSI48_DISABLE();
 8002704:	4a57      	ldr	r2, [pc, #348]	; (8002864 <HAL_RCC_OscConfig+0x4f8>)
 8002706:	6813      	ldr	r3, [r2, #0]
 8002708:	f423 5380 	bic.w	r3, r3, #4096	; 0x1000
 800270c:	6013      	str	r3, [r2, #0]

      /* Get time-out */
      tickstart = HAL_GetTick();
 800270e:	f7fd ffed 	bl	80006ec <HAL_GetTick>
 8002712:	4605      	mov	r5, r0

      /* Wait till HSI48 is ready */
      while(__HAL_RCC_GET_FLAG(RCC_FLAG_HSI48RDY) != 0U)
 8002714:	4b53      	ldr	r3, [pc, #332]	; (8002864 <HAL_RCC_OscConfig+0x4f8>)
 8002716:	681b      	ldr	r3, [r3, #0]
 8002718:	f413 5f00 	tst.w	r3, #8192	; 0x2000
 800271c:	d006      	beq.n	800272c <HAL_RCC_OscConfig+0x3c0>
      {
        if((HAL_GetTick() - tickstart ) > HSI48_TIMEOUT_VALUE)
 800271e:	f7fd ffe5 	bl	80006ec <HAL_GetTick>
 8002722:	1b40      	subs	r0, r0, r5
 8002724:	2802      	cmp	r0, #2
 8002726:	d9f5      	bls.n	8002714 <HAL_RCC_OscConfig+0x3a8>
        {
          return HAL_TIMEOUT;
 8002728:	2003      	movs	r0, #3
 800272a:	e12f      	b.n	800298c <HAL_RCC_OscConfig+0x620>
        }
      }
    }
  }
  /*------------------------------ LSE Configuration -------------------------*/
  if(((RCC_OscInitStruct->OscillatorType) & RCC_OSCILLATORTYPE_LSE) == RCC_OSCILLATORTYPE_LSE)
 800272c:	6823      	ldr	r3, [r4, #0]
 800272e:	f013 0f04 	tst.w	r3, #4
 8002732:	d121      	bne.n	8002778 <HAL_RCC_OscConfig+0x40c>
    }
  }
  /*-------------------------------- PLL Configuration -----------------------*/
  /* Check the parameters */
  assert_param(IS_RCC_PLL(RCC_OscInitStruct->PLL.PLLState));
  if ((RCC_OscInitStruct->PLL.PLLState) != RCC_PLL_NONE)
 8002734:	6a63      	ldr	r3, [r4, #36]	; 0x24
 8002736:	2b00      	cmp	r3, #0
 8002738:	f000 8127 	beq.w	800298a <HAL_RCC_OscConfig+0x61e>
  {
    /* Check if the PLL is used as system clock or not */
    if(__HAL_RCC_GET_SYSCLK_SOURCE() != RCC_CFGR_SWS_PLL1)
 800273c:	4a49      	ldr	r2, [pc, #292]	; (8002864 <HAL_RCC_OscConfig+0x4f8>)
 800273e:	6912      	ldr	r2, [r2, #16]
 8002740:	f002 0238 	and.w	r2, r2, #56	; 0x38
 8002744:	2a18      	cmp	r2, #24
 8002746:	f000 80ef 	beq.w	8002928 <HAL_RCC_OscConfig+0x5bc>
    {
      if((RCC_OscInitStruct->PLL.PLLState) == RCC_PLL_ON)
 800274a:	2b02      	cmp	r3, #2
 800274c:	d075      	beq.n	800283a <HAL_RCC_OscConfig+0x4ce>
        }
      }
      else
      {
        /* Disable the main PLL. */
        __HAL_RCC_PLL_DISABLE();
 800274e:	4a45      	ldr	r2, [pc, #276]	; (8002864 <HAL_RCC_OscConfig+0x4f8>)
 8002750:	6813      	ldr	r3, [r2, #0]
 8002752:	f023 7380 	bic.w	r3, r3, #16777216	; 0x1000000
 8002756:	6013      	str	r3, [r2, #0]

        /* Get Start Tick*/
        tickstart = HAL_GetTick();
 8002758:	f7fd ffc8 	bl	80006ec <HAL_GetTick>
 800275c:	4604      	mov	r4, r0

        /* Wait till PLL is disabled */
        while(__HAL_RCC_GET_FLAG(RCC_FLAG_PLLRDY) != 0U)
 800275e:	4b41      	ldr	r3, [pc, #260]	; (8002864 <HAL_RCC_OscConfig+0x4f8>)
 8002760:	681b      	ldr	r3, [r3, #0]
 8002762:	f013 7f00 	tst.w	r3, #33554432	; 0x2000000
 8002766:	f000 80dd 	beq.w	8002924 <HAL_RCC_OscConfig+0x5b8>
        {
          if((HAL_GetTick() - tickstart ) > PLL_TIMEOUT_VALUE)
 800276a:	f7fd ffbf 	bl	80006ec <HAL_GetTick>
 800276e:	1b00      	subs	r0, r0, r4
 8002770:	2802      	cmp	r0, #2
 8002772:	d9f4      	bls.n	800275e <HAL_RCC_OscConfig+0x3f2>
          {
            return HAL_TIMEOUT;
 8002774:	2003      	movs	r0, #3
 8002776:	e109      	b.n	800298c <HAL_RCC_OscConfig+0x620>
    PWR->CR1 |= PWR_CR1_DBP;
 8002778:	4a3b      	ldr	r2, [pc, #236]	; (8002868 <HAL_RCC_OscConfig+0x4fc>)
 800277a:	6813      	ldr	r3, [r2, #0]
 800277c:	f443 7380 	orr.w	r3, r3, #256	; 0x100
 8002780:	6013      	str	r3, [r2, #0]
    tickstart = HAL_GetTick();
 8002782:	f7fd ffb3 	bl	80006ec <HAL_GetTick>
 8002786:	4605      	mov	r5, r0
    while((PWR->CR1 & PWR_CR1_DBP) == 0U)
 8002788:	4b37      	ldr	r3, [pc, #220]	; (8002868 <HAL_RCC_OscConfig+0x4fc>)
 800278a:	681b      	ldr	r3, [r3, #0]
 800278c:	f413 7f80 	tst.w	r3, #256	; 0x100
 8002790:	d106      	bne.n	80027a0 <HAL_RCC_OscConfig+0x434>
      if((HAL_GetTick() - tickstart ) > RCC_DBP_TIMEOUT_VALUE)
 8002792:	f7fd ffab 	bl	80006ec <HAL_GetTick>
 8002796:	1b40      	subs	r0, r0, r5
 8002798:	2864      	cmp	r0, #100	; 0x64
 800279a:	d9f5      	bls.n	8002788 <HAL_RCC_OscConfig+0x41c>
        return HAL_TIMEOUT;
 800279c:	2003      	movs	r0, #3
 800279e:	e0f5      	b.n	800298c <HAL_RCC_OscConfig+0x620>
    __HAL_RCC_LSE_CONFIG(RCC_OscInitStruct->LSEState);
 80027a0:	68a3      	ldr	r3, [r4, #8]
 80027a2:	2b01      	cmp	r3, #1
 80027a4:	d00a      	beq.n	80027bc <HAL_RCC_OscConfig+0x450>
 80027a6:	bb0b      	cbnz	r3, 80027ec <HAL_RCC_OscConfig+0x480>
 80027a8:	4b2e      	ldr	r3, [pc, #184]	; (8002864 <HAL_RCC_OscConfig+0x4f8>)
 80027aa:	6f1a      	ldr	r2, [r3, #112]	; 0x70
 80027ac:	f022 0201 	bic.w	r2, r2, #1
 80027b0:	671a      	str	r2, [r3, #112]	; 0x70
 80027b2:	6f1a      	ldr	r2, [r3, #112]	; 0x70
 80027b4:	f022 0204 	bic.w	r2, r2, #4
 80027b8:	671a      	str	r2, [r3, #112]	; 0x70
 80027ba:	e004      	b.n	80027c6 <HAL_RCC_OscConfig+0x45a>
 80027bc:	4a29      	ldr	r2, [pc, #164]	; (8002864 <HAL_RCC_OscConfig+0x4f8>)
 80027be:	6f13      	ldr	r3, [r2, #112]	; 0x70
 80027c0:	f043 0301 	orr.w	r3, r3, #1
 80027c4:	6713      	str	r3, [r2, #112]	; 0x70
    if((RCC_OscInitStruct->LSEState) != RCC_LSE_OFF)
 80027c6:	68a3      	ldr	r3, [r4, #8]
 80027c8:	b333      	cbz	r3, 8002818 <HAL_RCC_OscConfig+0x4ac>
      tickstart = HAL_GetTick();
 80027ca:	f7fd ff8f 	bl	80006ec <HAL_GetTick>
 80027ce:	4605      	mov	r5, r0
      while(__HAL_RCC_GET_FLAG(RCC_FLAG_LSERDY) == 0U)
 80027d0:	4b24      	ldr	r3, [pc, #144]	; (8002864 <HAL_RCC_OscConfig+0x4f8>)
 80027d2:	6f1b      	ldr	r3, [r3, #112]	; 0x70
 80027d4:	f013 0f02 	tst.w	r3, #2
 80027d8:	d1ac      	bne.n	8002734 <HAL_RCC_OscConfig+0x3c8>
        if((HAL_GetTick() - tickstart ) > RCC_LSE_TIMEOUT_VALUE)
 80027da:	f7fd ff87 	bl	80006ec <HAL_GetTick>
 80027de:	1b40      	subs	r0, r0, r5
 80027e0:	f241 3388 	movw	r3, #5000	; 0x1388
 80027e4:	4298      	cmp	r0, r3
 80027e6:	d9f3      	bls.n	80027d0 <HAL_RCC_OscConfig+0x464>
          return HAL_TIMEOUT;
 80027e8:	2003      	movs	r0, #3
 80027ea:	e0cf      	b.n	800298c <HAL_RCC_OscConfig+0x620>
    __HAL_RCC_LSE_CONFIG(RCC_OscInitStruct->LSEState);
 80027ec:	2b05      	cmp	r3, #5
 80027ee:	d009      	beq.n	8002804 <HAL_RCC_OscConfig+0x498>
 80027f0:	4b1c      	ldr	r3, [pc, #112]	; (8002864 <HAL_RCC_OscConfig+0x4f8>)
 80027f2:	6f1a      	ldr	r2, [r3, #112]	; 0x70
 80027f4:	f022 0201 	bic.w	r2, r2, #1
 80027f8:	671a      	str	r2, [r3, #112]	; 0x70
 80027fa:	6f1a      	ldr	r2, [r3, #112]	; 0x70
 80027fc:	f022 0204 	bic.w	r2, r2, #4
 8002800:	671a      	str	r2, [r3, #112]	; 0x70
 8002802:	e7e0      	b.n	80027c6 <HAL_RCC_OscConfig+0x45a>
 8002804:	4b17      	ldr	r3, [pc, #92]	; (8002864 <HAL_RCC_OscConfig+0x4f8>)
 8002806:	6f1a      	ldr	r2, [r3, #112]	; 0x70
 8002808:	f042 0204 	orr.w	r2, r2, #4
 800280c:	671a      	str	r2, [r3, #112]	; 0x70
 800280e:	6f1a      	ldr	r2, [r3, #112]	; 0x70
 8002810:	f042 0201 	orr.w	r2, r2, #1
 8002814:	671a      	str	r2, [r3, #112]	; 0x70
 8002816:	e7d6      	b.n	80027c6 <HAL_RCC_OscConfig+0x45a>
      tickstart = HAL_GetTick();
 8002818:	f7fd ff68 	bl	80006ec <HAL_GetTick>
 800281c:	4605      	mov	r5, r0
      while(__HAL_RCC_GET_FLAG(RCC_FLAG_LSERDY) != 0U)
 800281e:	4b11      	ldr	r3, [pc, #68]	; (8002864 <HAL_RCC_OscConfig+0x4f8>)
 8002820:	6f1b      	ldr	r3, [r3, #112]	; 0x70
 8002822:	f013 0f02 	tst.w	r3, #2
 8002826:	d085      	beq.n	8002734 <HAL_RCC_OscConfig+0x3c8>
        if((HAL_GetTick() - tickstart ) > RCC_LSE_TIMEOUT_VALUE)
 8002828:	f7fd ff60 	bl	80006ec <HAL_GetTick>
 800282c:	1b40      	subs	r0, r0, r5
 800282e:	f241 3388 	movw	r3, #5000	; 0x1388
 8002832:	4298      	cmp	r0, r3
 8002834:	d9f3      	bls.n	800281e <HAL_RCC_OscConfig+0x4b2>
          return HAL_TIMEOUT;
 8002836:	2003      	movs	r0, #3
 8002838:	e0a8      	b.n	800298c <HAL_RCC_OscConfig+0x620>
        __HAL_RCC_PLL_DISABLE();
 800283a:	4a0a      	ldr	r2, [pc, #40]	; (8002864 <HAL_RCC_OscConfig+0x4f8>)
 800283c:	6813      	ldr	r3, [r2, #0]
 800283e:	f023 7380 	bic.w	r3, r3, #16777216	; 0x1000000
 8002842:	6013      	str	r3, [r2, #0]
        tickstart = HAL_GetTick();
 8002844:	f7fd ff52 	bl	80006ec <HAL_GetTick>
 8002848:	4605      	mov	r5, r0
        while(__HAL_RCC_GET_FLAG(RCC_FLAG_PLLRDY) != 0U)
 800284a:	4b06      	ldr	r3, [pc, #24]	; (8002864 <HAL_RCC_OscConfig+0x4f8>)
 800284c:	681b      	ldr	r3, [r3, #0]
 800284e:	f013 7f00 	tst.w	r3, #33554432	; 0x2000000
 8002852:	d00b      	beq.n	800286c <HAL_RCC_OscConfig+0x500>
          if((HAL_GetTick() - tickstart ) > PLL_TIMEOUT_VALUE)
 8002854:	f7fd ff4a 	bl	80006ec <HAL_GetTick>
 8002858:	1b40      	subs	r0, r0, r5
 800285a:	2802      	cmp	r0, #2
 800285c:	d9f5      	bls.n	800284a <HAL_RCC_OscConfig+0x4de>
            return HAL_TIMEOUT;
 800285e:	2003      	movs	r0, #3
 8002860:	e094      	b.n	800298c <HAL_RCC_OscConfig+0x620>
 8002862:	bf00      	nop
 8002864:	58024400 	.word	0x58024400
 8002868:	58024800 	.word	0x58024800
        __HAL_RCC_PLL_CONFIG(RCC_OscInitStruct->PLL.PLLSource,
 800286c:	4b4f      	ldr	r3, [pc, #316]	; (80029ac <HAL_RCC_OscConfig+0x640>)
 800286e:	6a99      	ldr	r1, [r3, #40]	; 0x28
 8002870:	4a4f      	ldr	r2, [pc, #316]	; (80029b0 <HAL_RCC_OscConfig+0x644>)
 8002872:	400a      	ands	r2, r1
 8002874:	6aa1      	ldr	r1, [r4, #40]	; 0x28
 8002876:	6ae0      	ldr	r0, [r4, #44]	; 0x2c
 8002878:	ea41 1100 	orr.w	r1, r1, r0, lsl #4
 800287c:	430a      	orrs	r2, r1
 800287e:	629a      	str	r2, [r3, #40]	; 0x28
 8002880:	6b22      	ldr	r2, [r4, #48]	; 0x30
 8002882:	3a01      	subs	r2, #1
 8002884:	f3c2 0208 	ubfx	r2, r2, #0, #9
 8002888:	6b61      	ldr	r1, [r4, #52]	; 0x34
 800288a:	3901      	subs	r1, #1
 800288c:	0249      	lsls	r1, r1, #9
 800288e:	b289      	uxth	r1, r1
 8002890:	430a      	orrs	r2, r1
 8002892:	6ba1      	ldr	r1, [r4, #56]	; 0x38
 8002894:	3901      	subs	r1, #1
 8002896:	0409      	lsls	r1, r1, #16
 8002898:	f401 01fe 	and.w	r1, r1, #8323072	; 0x7f0000
 800289c:	430a      	orrs	r2, r1
 800289e:	6be1      	ldr	r1, [r4, #60]	; 0x3c
 80028a0:	3901      	subs	r1, #1
 80028a2:	0609      	lsls	r1, r1, #24
 80028a4:	f001 41fe 	and.w	r1, r1, #2130706432	; 0x7f000000
 80028a8:	430a      	orrs	r2, r1
 80028aa:	631a      	str	r2, [r3, #48]	; 0x30
         __HAL_RCC_PLLFRACN_DISABLE();
 80028ac:	6ada      	ldr	r2, [r3, #44]	; 0x2c
 80028ae:	f022 0201 	bic.w	r2, r2, #1
 80028b2:	62da      	str	r2, [r3, #44]	; 0x2c
         __HAL_RCC_PLLFRACN_CONFIG(RCC_OscInitStruct->PLL.PLLFRACN);
 80028b4:	6b59      	ldr	r1, [r3, #52]	; 0x34
 80028b6:	4a3f      	ldr	r2, [pc, #252]	; (80029b4 <HAL_RCC_OscConfig+0x648>)
 80028b8:	400a      	ands	r2, r1
 80028ba:	6ca1      	ldr	r1, [r4, #72]	; 0x48
 80028bc:	ea42 02c1 	orr.w	r2, r2, r1, lsl #3
 80028c0:	635a      	str	r2, [r3, #52]	; 0x34
        __HAL_RCC_PLL_VCIRANGE(RCC_OscInitStruct->PLL.PLLRGE) ;
 80028c2:	6ada      	ldr	r2, [r3, #44]	; 0x2c
 80028c4:	f022 020c 	bic.w	r2, r2, #12
 80028c8:	6c21      	ldr	r1, [r4, #64]	; 0x40
 80028ca:	430a      	orrs	r2, r1
 80028cc:	62da      	str	r2, [r3, #44]	; 0x2c
        __HAL_RCC_PLL_VCORANGE(RCC_OscInitStruct->PLL.PLLVCOSEL) ;
 80028ce:	6ada      	ldr	r2, [r3, #44]	; 0x2c
 80028d0:	f022 0202 	bic.w	r2, r2, #2
 80028d4:	6c61      	ldr	r1, [r4, #68]	; 0x44
 80028d6:	430a      	orrs	r2, r1
 80028d8:	62da      	str	r2, [r3, #44]	; 0x2c
         __HAL_RCC_PLLCLKOUT_ENABLE(RCC_PLL1_DIVP);
 80028da:	6ada      	ldr	r2, [r3, #44]	; 0x2c
 80028dc:	f442 3280 	orr.w	r2, r2, #65536	; 0x10000
 80028e0:	62da      	str	r2, [r3, #44]	; 0x2c
         __HAL_RCC_PLLCLKOUT_ENABLE(RCC_PLL1_DIVQ);
 80028e2:	6ada      	ldr	r2, [r3, #44]	; 0x2c
 80028e4:	f442 3200 	orr.w	r2, r2, #131072	; 0x20000
 80028e8:	62da      	str	r2, [r3, #44]	; 0x2c
         __HAL_RCC_PLLCLKOUT_ENABLE(RCC_PLL1_DIVR);
 80028ea:	6ada      	ldr	r2, [r3, #44]	; 0x2c
 80028ec:	f442 2280 	orr.w	r2, r2, #262144	; 0x40000
 80028f0:	62da      	str	r2, [r3, #44]	; 0x2c
         __HAL_RCC_PLLFRACN_ENABLE();
 80028f2:	6ada      	ldr	r2, [r3, #44]	; 0x2c
 80028f4:	f042 0201 	orr.w	r2, r2, #1
 80028f8:	62da      	str	r2, [r3, #44]	; 0x2c
        __HAL_RCC_PLL_ENABLE();
 80028fa:	681a      	ldr	r2, [r3, #0]
 80028fc:	f042 7280 	orr.w	r2, r2, #16777216	; 0x1000000
 8002900:	601a      	str	r2, [r3, #0]
        tickstart = HAL_GetTick();
 8002902:	f7fd fef3 	bl	80006ec <HAL_GetTick>
 8002906:	4604      	mov	r4, r0
        while(__HAL_RCC_GET_FLAG(RCC_FLAG_PLLRDY) == 0U)
 8002908:	4b28      	ldr	r3, [pc, #160]	; (80029ac <HAL_RCC_OscConfig+0x640>)
 800290a:	681b      	ldr	r3, [r3, #0]
 800290c:	f013 7f00 	tst.w	r3, #33554432	; 0x2000000
 8002910:	d106      	bne.n	8002920 <HAL_RCC_OscConfig+0x5b4>
          if((HAL_GetTick() - tickstart ) > PLL_TIMEOUT_VALUE)
 8002912:	f7fd feeb 	bl	80006ec <HAL_GetTick>
 8002916:	1b00      	subs	r0, r0, r4
 8002918:	2802      	cmp	r0, #2
 800291a:	d9f5      	bls.n	8002908 <HAL_RCC_OscConfig+0x59c>
            return HAL_TIMEOUT;
 800291c:	2003      	movs	r0, #3
 800291e:	e035      	b.n	800298c <HAL_RCC_OscConfig+0x620>
      {
        return HAL_ERROR;
      }
    }
  }
  return HAL_OK;
 8002920:	2000      	movs	r0, #0
 8002922:	e033      	b.n	800298c <HAL_RCC_OscConfig+0x620>
 8002924:	2000      	movs	r0, #0
 8002926:	e031      	b.n	800298c <HAL_RCC_OscConfig+0x620>
      temp1_pllckcfg = RCC->PLLCKSELR;
 8002928:	4a20      	ldr	r2, [pc, #128]	; (80029ac <HAL_RCC_OscConfig+0x640>)
 800292a:	6a91      	ldr	r1, [r2, #40]	; 0x28
      temp2_pllckcfg = RCC->PLL1DIVR;
 800292c:	6b10      	ldr	r0, [r2, #48]	; 0x30
      if(((RCC_OscInitStruct->PLL.PLLState) == RCC_PLL_OFF) ||
 800292e:	2b01      	cmp	r3, #1
 8002930:	d02d      	beq.n	800298e <HAL_RCC_OscConfig+0x622>
	 (READ_BIT(temp1_pllckcfg, RCC_PLLCKSELR_PLLSRC) != RCC_OscInitStruct->PLL.PLLSource) ||
 8002932:	f001 0303 	and.w	r3, r1, #3
 8002936:	6aa2      	ldr	r2, [r4, #40]	; 0x28
      if(((RCC_OscInitStruct->PLL.PLLState) == RCC_PLL_OFF) ||
 8002938:	4293      	cmp	r3, r2
 800293a:	d12a      	bne.n	8002992 <HAL_RCC_OscConfig+0x626>
         ((READ_BIT(temp1_pllckcfg, RCC_PLLCKSELR_DIVM1) >> RCC_PLLCKSELR_DIVM1_Pos) != RCC_OscInitStruct->PLL.PLLM) ||
 800293c:	f3c1 1105 	ubfx	r1, r1, #4, #6
 8002940:	6ae3      	ldr	r3, [r4, #44]	; 0x2c
	 (READ_BIT(temp1_pllckcfg, RCC_PLLCKSELR_PLLSRC) != RCC_OscInitStruct->PLL.PLLSource) ||
 8002942:	4299      	cmp	r1, r3
 8002944:	d127      	bne.n	8002996 <HAL_RCC_OscConfig+0x62a>
         (READ_BIT(temp2_pllckcfg, RCC_PLL1DIVR_N1) != (RCC_OscInitStruct->PLL.PLLN - 1U)) ||
 8002946:	f3c0 0208 	ubfx	r2, r0, #0, #9
 800294a:	6b23      	ldr	r3, [r4, #48]	; 0x30
 800294c:	3b01      	subs	r3, #1
         ((READ_BIT(temp1_pllckcfg, RCC_PLLCKSELR_DIVM1) >> RCC_PLLCKSELR_DIVM1_Pos) != RCC_OscInitStruct->PLL.PLLM) ||
 800294e:	429a      	cmp	r2, r3
 8002950:	d123      	bne.n	800299a <HAL_RCC_OscConfig+0x62e>
         ((READ_BIT(temp2_pllckcfg, RCC_PLL1DIVR_P1) >> RCC_PLL1DIVR_P1_Pos) != (RCC_OscInitStruct->PLL.PLLP - 1U)) ||
 8002952:	f3c0 2246 	ubfx	r2, r0, #9, #7
 8002956:	6b63      	ldr	r3, [r4, #52]	; 0x34
 8002958:	3b01      	subs	r3, #1
         (READ_BIT(temp2_pllckcfg, RCC_PLL1DIVR_N1) != (RCC_OscInitStruct->PLL.PLLN - 1U)) ||
 800295a:	429a      	cmp	r2, r3
 800295c:	d11f      	bne.n	800299e <HAL_RCC_OscConfig+0x632>
         ((READ_BIT(temp2_pllckcfg, RCC_PLL1DIVR_Q1) >> RCC_PLL1DIVR_Q1_Pos) != (RCC_OscInitStruct->PLL.PLLQ - 1U)) ||
 800295e:	f3c0 4206 	ubfx	r2, r0, #16, #7
 8002962:	6ba3      	ldr	r3, [r4, #56]	; 0x38
 8002964:	3b01      	subs	r3, #1
         ((READ_BIT(temp2_pllckcfg, RCC_PLL1DIVR_P1) >> RCC_PLL1DIVR_P1_Pos) != (RCC_OscInitStruct->PLL.PLLP - 1U)) ||
 8002966:	429a      	cmp	r2, r3
 8002968:	d11b      	bne.n	80029a2 <HAL_RCC_OscConfig+0x636>
         ((READ_BIT(temp2_pllckcfg, RCC_PLL1DIVR_R1) >> RCC_PLL1DIVR_R1_Pos) != (RCC_OscInitStruct->PLL.PLLR - 1U)))
 800296a:	f3c0 6006 	ubfx	r0, r0, #24, #7
 800296e:	6be3      	ldr	r3, [r4, #60]	; 0x3c
 8002970:	3b01      	subs	r3, #1
         ((READ_BIT(temp2_pllckcfg, RCC_PLL1DIVR_Q1) >> RCC_PLL1DIVR_Q1_Pos) != (RCC_OscInitStruct->PLL.PLLQ - 1U)) ||
 8002972:	4298      	cmp	r0, r3
 8002974:	d117      	bne.n	80029a6 <HAL_RCC_OscConfig+0x63a>
  return HAL_OK;
 8002976:	2000      	movs	r0, #0
 8002978:	e008      	b.n	800298c <HAL_RCC_OscConfig+0x620>
    return HAL_ERROR;
 800297a:	2001      	movs	r0, #1
}
 800297c:	4770      	bx	lr
        return HAL_ERROR;
 800297e:	2001      	movs	r0, #1
 8002980:	e004      	b.n	800298c <HAL_RCC_OscConfig+0x620>
        return HAL_ERROR;
 8002982:	2001      	movs	r0, #1
 8002984:	e002      	b.n	800298c <HAL_RCC_OscConfig+0x620>
        return HAL_ERROR;
 8002986:	2001      	movs	r0, #1
 8002988:	e000      	b.n	800298c <HAL_RCC_OscConfig+0x620>
  return HAL_OK;
 800298a:	2000      	movs	r0, #0
}
 800298c:	bd38      	pop	{r3, r4, r5, pc}
        return HAL_ERROR;
 800298e:	2001      	movs	r0, #1
 8002990:	e7fc      	b.n	800298c <HAL_RCC_OscConfig+0x620>
 8002992:	2001      	movs	r0, #1
 8002994:	e7fa      	b.n	800298c <HAL_RCC_OscConfig+0x620>
 8002996:	2001      	movs	r0, #1
 8002998:	e7f8      	b.n	800298c <HAL_RCC_OscConfig+0x620>
 800299a:	2001      	movs	r0, #1
 800299c:	e7f6      	b.n	800298c <HAL_RCC_OscConfig+0x620>
 800299e:	2001      	movs	r0, #1
 80029a0:	e7f4      	b.n	800298c <HAL_RCC_OscConfig+0x620>
 80029a2:	2001      	movs	r0, #1
 80029a4:	e7f2      	b.n	800298c <HAL_RCC_OscConfig+0x620>
 80029a6:	2001      	movs	r0, #1
 80029a8:	e7f0      	b.n	800298c <HAL_RCC_OscConfig+0x620>
 80029aa:	bf00      	nop
 80029ac:	58024400 	.word	0x58024400
 80029b0:	fffffc0c 	.word	0xfffffc0c
 80029b4:	ffff0007 	.word	0xffff0007

080029b8 <HAL_RCC_GetSysClockFreq>:
  float_t fracn1, pllvco;
  uint32_t sysclockfreq;

  /* Get SYSCLK source -------------------------------------------------------*/

  switch (RCC->CFGR & RCC_CFGR_SWS)
 80029b8:	4b74      	ldr	r3, [pc, #464]	; (8002b8c <HAL_RCC_GetSysClockFreq+0x1d4>)
 80029ba:	691b      	ldr	r3, [r3, #16]
 80029bc:	f003 0338 	and.w	r3, r3, #56	; 0x38
 80029c0:	2b10      	cmp	r3, #16
 80029c2:	f000 80df 	beq.w	8002b84 <HAL_RCC_GetSysClockFreq+0x1cc>
 80029c6:	2b18      	cmp	r3, #24
 80029c8:	d010      	beq.n	80029ec <HAL_RCC_GetSysClockFreq+0x34>
 80029ca:	b10b      	cbz	r3, 80029d0 <HAL_RCC_GetSysClockFreq+0x18>
 80029cc:	4870      	ldr	r0, [pc, #448]	; (8002b90 <HAL_RCC_GetSysClockFreq+0x1d8>)
 80029ce:	4770      	bx	lr
  {
  case RCC_CFGR_SWS_HSI:  /* HSI used as system clock source */

   if (__HAL_RCC_GET_FLAG(RCC_FLAG_HSIDIV) != 0U)
 80029d0:	4b6e      	ldr	r3, [pc, #440]	; (8002b8c <HAL_RCC_GetSysClockFreq+0x1d4>)
 80029d2:	681b      	ldr	r3, [r3, #0]
 80029d4:	f013 0f20 	tst.w	r3, #32
 80029d8:	f000 80d6 	beq.w	8002b88 <HAL_RCC_GetSysClockFreq+0x1d0>
      {
        sysclockfreq = (uint32_t) (HSI_VALUE >> (__HAL_RCC_GET_HSI_DIVIDER()>> 3));
 80029dc:	4b6b      	ldr	r3, [pc, #428]	; (8002b8c <HAL_RCC_GetSysClockFreq+0x1d4>)
 80029de:	6818      	ldr	r0, [r3, #0]
 80029e0:	f3c0 00c1 	ubfx	r0, r0, #3, #2
 80029e4:	4b6b      	ldr	r3, [pc, #428]	; (8002b94 <HAL_RCC_GetSysClockFreq+0x1dc>)
 80029e6:	fa23 f000 	lsr.w	r0, r3, r0
 80029ea:	4770      	bx	lr
{
 80029ec:	b410      	push	{r4}
  case RCC_CFGR_SWS_PLL1:  /* PLL1 used as system clock  source */

    /* PLL_VCO = (HSE_VALUE or HSI_VALUE or CSI_VALUE/ PLLM) * PLLN
    SYSCLK = PLL_VCO / PLLR
    */
    pllsource = (RCC->PLLCKSELR & RCC_PLLCKSELR_PLLSRC);
 80029ee:	4a67      	ldr	r2, [pc, #412]	; (8002b8c <HAL_RCC_GetSysClockFreq+0x1d4>)
 80029f0:	6a91      	ldr	r1, [r2, #40]	; 0x28
 80029f2:	f001 0103 	and.w	r1, r1, #3
    pllm = ((RCC->PLLCKSELR & RCC_PLLCKSELR_DIVM1)>> 4)  ;
 80029f6:	6a94      	ldr	r4, [r2, #40]	; 0x28
 80029f8:	f3c4 1005 	ubfx	r0, r4, #4, #6
    pllfracen = ((RCC-> PLLCFGR & RCC_PLLCFGR_PLL1FRACEN)>>RCC_PLLCFGR_PLL1FRACEN_Pos);
 80029fc:	6ad3      	ldr	r3, [r2, #44]	; 0x2c
 80029fe:	f003 0301 	and.w	r3, r3, #1
    fracn1 = (float_t)(uint32_t)(pllfracen* ((RCC->PLL1FRACR & RCC_PLL1FRACR_FRACN1)>> 3));
 8002a02:	6b52      	ldr	r2, [r2, #52]	; 0x34
 8002a04:	f3c2 02cc 	ubfx	r2, r2, #3, #13
 8002a08:	fb03 f302 	mul.w	r3, r3, r2
 8002a0c:	ee07 3a90 	vmov	s15, r3
 8002a10:	eef8 7a67 	vcvt.f32.u32	s15, s15

    if (pllm != 0U)
 8002a14:	f414 7f7c 	tst.w	r4, #1008	; 0x3f0
 8002a18:	f000 8094 	beq.w	8002b44 <HAL_RCC_GetSysClockFreq+0x18c>
    {
      switch (pllsource)
 8002a1c:	2901      	cmp	r1, #1
 8002a1e:	d066      	beq.n	8002aee <HAL_RCC_GetSysClockFreq+0x136>
 8002a20:	2902      	cmp	r1, #2
 8002a22:	f000 8092 	beq.w	8002b4a <HAL_RCC_GetSysClockFreq+0x192>
 8002a26:	b1e1      	cbz	r1, 8002a62 <HAL_RCC_GetSysClockFreq+0xaa>
      case RCC_PLLSOURCE_HSE:  /* HSE used as PLL clock source */
        pllvco = ((float_t)HSE_VALUE / (float_t)pllm) * ((float_t)(uint32_t)(RCC->PLL1DIVR & RCC_PLL1DIVR_N1) + (fracn1/(float_t)0x2000) +(float_t)1 );
        break;

      default:
        pllvco = ((float_t)CSI_VALUE / (float_t)pllm) * ((float_t)(uint32_t)(RCC->PLL1DIVR & RCC_PLL1DIVR_N1) + (fracn1/(float_t)0x2000) +(float_t)1 );
 8002a28:	ee07 0a10 	vmov	s14, r0
 8002a2c:	eef8 6a47 	vcvt.f32.u32	s13, s14
 8002a30:	ed9f 6a59 	vldr	s12, [pc, #356]	; 8002b98 <HAL_RCC_GetSysClockFreq+0x1e0>
 8002a34:	ee86 7a26 	vdiv.f32	s14, s12, s13
 8002a38:	4b54      	ldr	r3, [pc, #336]	; (8002b8c <HAL_RCC_GetSysClockFreq+0x1d4>)
 8002a3a:	6b1b      	ldr	r3, [r3, #48]	; 0x30
 8002a3c:	f3c3 0308 	ubfx	r3, r3, #0, #9
 8002a40:	ee06 3a90 	vmov	s13, r3
 8002a44:	eef8 6a66 	vcvt.f32.u32	s13, s13
 8002a48:	ed9f 6a54 	vldr	s12, [pc, #336]	; 8002b9c <HAL_RCC_GetSysClockFreq+0x1e4>
 8002a4c:	ee67 7a86 	vmul.f32	s15, s15, s12
 8002a50:	ee76 7aa7 	vadd.f32	s15, s13, s15
 8002a54:	eef7 6a00 	vmov.f32	s13, #112	; 0x3f800000  1.0
 8002a58:	ee77 7aa6 	vadd.f32	s15, s15, s13
 8002a5c:	ee27 7a27 	vmul.f32	s14, s14, s15
        break;
 8002a60:	e061      	b.n	8002b26 <HAL_RCC_GetSysClockFreq+0x16e>
       if (__HAL_RCC_GET_FLAG(RCC_FLAG_HSIDIV) != 0U)
 8002a62:	4b4a      	ldr	r3, [pc, #296]	; (8002b8c <HAL_RCC_GetSysClockFreq+0x1d4>)
 8002a64:	681b      	ldr	r3, [r3, #0]
 8002a66:	f013 0f20 	tst.w	r3, #32
 8002a6a:	d023      	beq.n	8002ab4 <HAL_RCC_GetSysClockFreq+0xfc>
          hsivalue= (HSI_VALUE >> (__HAL_RCC_GET_HSI_DIVIDER()>> 3));
 8002a6c:	4947      	ldr	r1, [pc, #284]	; (8002b8c <HAL_RCC_GetSysClockFreq+0x1d4>)
 8002a6e:	680a      	ldr	r2, [r1, #0]
 8002a70:	f3c2 02c1 	ubfx	r2, r2, #3, #2
 8002a74:	4b47      	ldr	r3, [pc, #284]	; (8002b94 <HAL_RCC_GetSysClockFreq+0x1dc>)
 8002a76:	40d3      	lsrs	r3, r2
          pllvco = ( (float_t)hsivalue / (float_t)pllm) * ((float_t)(uint32_t)(RCC->PLL1DIVR & RCC_PLL1DIVR_N1) + (fracn1/(float_t)0x2000) +(float_t)1 );
 8002a78:	ee07 3a10 	vmov	s14, r3
 8002a7c:	eef8 6a47 	vcvt.f32.u32	s13, s14
 8002a80:	ee07 0a10 	vmov	s14, r0
 8002a84:	eeb8 6a47 	vcvt.f32.u32	s12, s14
 8002a88:	ee86 7a86 	vdiv.f32	s14, s13, s12
 8002a8c:	6b0b      	ldr	r3, [r1, #48]	; 0x30
 8002a8e:	f3c3 0308 	ubfx	r3, r3, #0, #9
 8002a92:	ee06 3a90 	vmov	s13, r3
 8002a96:	eef8 6a66 	vcvt.f32.u32	s13, s13
 8002a9a:	ed9f 6a40 	vldr	s12, [pc, #256]	; 8002b9c <HAL_RCC_GetSysClockFreq+0x1e4>
 8002a9e:	ee67 7a86 	vmul.f32	s15, s15, s12
 8002aa2:	ee76 7aa7 	vadd.f32	s15, s13, s15
 8002aa6:	eef7 6a00 	vmov.f32	s13, #112	; 0x3f800000  1.0
 8002aaa:	ee77 7aa6 	vadd.f32	s15, s15, s13
 8002aae:	ee27 7a27 	vmul.f32	s14, s14, s15
 8002ab2:	e038      	b.n	8002b26 <HAL_RCC_GetSysClockFreq+0x16e>
          pllvco = ((float_t)HSI_VALUE / (float_t)pllm) * ((float_t)(uint32_t)(RCC->PLL1DIVR & RCC_PLL1DIVR_N1) + (fracn1/(float_t)0x2000) +(float_t)1 );
 8002ab4:	ee07 0a10 	vmov	s14, r0
 8002ab8:	eef8 6a47 	vcvt.f32.u32	s13, s14
 8002abc:	ed9f 6a38 	vldr	s12, [pc, #224]	; 8002ba0 <HAL_RCC_GetSysClockFreq+0x1e8>
 8002ac0:	ee86 7a26 	vdiv.f32	s14, s12, s13
 8002ac4:	4b31      	ldr	r3, [pc, #196]	; (8002b8c <HAL_RCC_GetSysClockFreq+0x1d4>)
 8002ac6:	6b1b      	ldr	r3, [r3, #48]	; 0x30
 8002ac8:	f3c3 0308 	ubfx	r3, r3, #0, #9
 8002acc:	ee06 3a90 	vmov	s13, r3
 8002ad0:	eef8 6a66 	vcvt.f32.u32	s13, s13
 8002ad4:	ed9f 6a31 	vldr	s12, [pc, #196]	; 8002b9c <HAL_RCC_GetSysClockFreq+0x1e4>
 8002ad8:	ee67 7a86 	vmul.f32	s15, s15, s12
 8002adc:	ee76 7aa7 	vadd.f32	s15, s13, s15
 8002ae0:	eef7 6a00 	vmov.f32	s13, #112	; 0x3f800000  1.0
 8002ae4:	ee77 7aa6 	vadd.f32	s15, s15, s13
 8002ae8:	ee27 7a27 	vmul.f32	s14, s14, s15
 8002aec:	e01b      	b.n	8002b26 <HAL_RCC_GetSysClockFreq+0x16e>
        pllvco = ((float_t)CSI_VALUE / (float_t)pllm) * ((float_t)(uint32_t)(RCC->PLL1DIVR & RCC_PLL1DIVR_N1) + (fracn1/(float_t)0x2000) +(float_t)1 );
 8002aee:	ee07 0a10 	vmov	s14, r0
 8002af2:	eef8 6a47 	vcvt.f32.u32	s13, s14
 8002af6:	ed9f 6a28 	vldr	s12, [pc, #160]	; 8002b98 <HAL_RCC_GetSysClockFreq+0x1e0>
 8002afa:	ee86 7a26 	vdiv.f32	s14, s12, s13
 8002afe:	4b23      	ldr	r3, [pc, #140]	; (8002b8c <HAL_RCC_GetSysClockFreq+0x1d4>)
 8002b00:	6b1b      	ldr	r3, [r3, #48]	; 0x30
 8002b02:	f3c3 0308 	ubfx	r3, r3, #0, #9
 8002b06:	ee06 3a90 	vmov	s13, r3
 8002b0a:	eef8 6a66 	vcvt.f32.u32	s13, s13
 8002b0e:	ed9f 6a23 	vldr	s12, [pc, #140]	; 8002b9c <HAL_RCC_GetSysClockFreq+0x1e4>
 8002b12:	ee67 7a86 	vmul.f32	s15, s15, s12
 8002b16:	ee76 7aa7 	vadd.f32	s15, s13, s15
 8002b1a:	eef7 6a00 	vmov.f32	s13, #112	; 0x3f800000  1.0
 8002b1e:	ee77 7aa6 	vadd.f32	s15, s15, s13
 8002b22:	ee27 7a27 	vmul.f32	s14, s14, s15
      }
      pllp = (((RCC->PLL1DIVR & RCC_PLL1DIVR_P1) >>9) + 1U ) ;
 8002b26:	4b19      	ldr	r3, [pc, #100]	; (8002b8c <HAL_RCC_GetSysClockFreq+0x1d4>)
 8002b28:	6b1b      	ldr	r3, [r3, #48]	; 0x30
 8002b2a:	f3c3 2346 	ubfx	r3, r3, #9, #7
 8002b2e:	3301      	adds	r3, #1
      sysclockfreq =  (uint32_t)(float_t)(pllvco/(float_t)pllp);
 8002b30:	ee07 3a90 	vmov	s15, r3
 8002b34:	eef8 7a67 	vcvt.f32.u32	s15, s15
 8002b38:	eec7 6a27 	vdiv.f32	s13, s14, s15
 8002b3c:	eefc 7ae6 	vcvt.u32.f32	s15, s13
 8002b40:	ee17 0a90 	vmov	r0, s15
    sysclockfreq = CSI_VALUE;
    break;
  }

  return sysclockfreq;
}
 8002b44:	f85d 4b04 	ldr.w	r4, [sp], #4
 8002b48:	4770      	bx	lr
        pllvco = ((float_t)HSE_VALUE / (float_t)pllm) * ((float_t)(uint32_t)(RCC->PLL1DIVR & RCC_PLL1DIVR_N1) + (fracn1/(float_t)0x2000) +(float_t)1 );
 8002b4a:	ee07 0a10 	vmov	s14, r0
 8002b4e:	eef8 6a47 	vcvt.f32.u32	s13, s14
 8002b52:	ed9f 6a14 	vldr	s12, [pc, #80]	; 8002ba4 <HAL_RCC_GetSysClockFreq+0x1ec>
 8002b56:	ee86 7a26 	vdiv.f32	s14, s12, s13
 8002b5a:	4b0c      	ldr	r3, [pc, #48]	; (8002b8c <HAL_RCC_GetSysClockFreq+0x1d4>)
 8002b5c:	6b1b      	ldr	r3, [r3, #48]	; 0x30
 8002b5e:	f3c3 0308 	ubfx	r3, r3, #0, #9
 8002b62:	ee06 3a90 	vmov	s13, r3
 8002b66:	eef8 6a66 	vcvt.f32.u32	s13, s13
 8002b6a:	ed9f 6a0c 	vldr	s12, [pc, #48]	; 8002b9c <HAL_RCC_GetSysClockFreq+0x1e4>
 8002b6e:	ee67 7a86 	vmul.f32	s15, s15, s12
 8002b72:	ee76 7aa7 	vadd.f32	s15, s13, s15
 8002b76:	eef7 6a00 	vmov.f32	s13, #112	; 0x3f800000  1.0
 8002b7a:	ee77 7aa6 	vadd.f32	s15, s15, s13
 8002b7e:	ee27 7a27 	vmul.f32	s14, s14, s15
        break;
 8002b82:	e7d0      	b.n	8002b26 <HAL_RCC_GetSysClockFreq+0x16e>
    sysclockfreq = HSE_VALUE;
 8002b84:	4808      	ldr	r0, [pc, #32]	; (8002ba8 <HAL_RCC_GetSysClockFreq+0x1f0>)
 8002b86:	4770      	bx	lr
        sysclockfreq = (uint32_t) HSI_VALUE;
 8002b88:	4802      	ldr	r0, [pc, #8]	; (8002b94 <HAL_RCC_GetSysClockFreq+0x1dc>)
}
 8002b8a:	4770      	bx	lr
 8002b8c:	58024400 	.word	0x58024400
 8002b90:	003d0900 	.word	0x003d0900
 8002b94:	03d09000 	.word	0x03d09000
 8002b98:	4a742400 	.word	0x4a742400
 8002b9c:	39000000 	.word	0x39000000
 8002ba0:	4c742400 	.word	0x4c742400
 8002ba4:	4af42400 	.word	0x4af42400
 8002ba8:	007a1200 	.word	0x007a1200

08002bac <HAL_RCC_ClockConfig>:
  if(RCC_ClkInitStruct == NULL)
 8002bac:	2800      	cmp	r0, #0
 8002bae:	f000 8132 	beq.w	8002e16 <HAL_RCC_ClockConfig+0x26a>
{
 8002bb2:	b570      	push	{r4, r5, r6, lr}
 8002bb4:	460d      	mov	r5, r1
 8002bb6:	4604      	mov	r4, r0
  if(FLatency > __HAL_FLASH_GET_LATENCY())
 8002bb8:	4b9b      	ldr	r3, [pc, #620]	; (8002e28 <HAL_RCC_ClockConfig+0x27c>)
 8002bba:	681b      	ldr	r3, [r3, #0]
 8002bbc:	f003 030f 	and.w	r3, r3, #15
 8002bc0:	428b      	cmp	r3, r1
 8002bc2:	d20b      	bcs.n	8002bdc <HAL_RCC_ClockConfig+0x30>
    __HAL_FLASH_SET_LATENCY(FLatency);
 8002bc4:	4a98      	ldr	r2, [pc, #608]	; (8002e28 <HAL_RCC_ClockConfig+0x27c>)
 8002bc6:	6813      	ldr	r3, [r2, #0]
 8002bc8:	f023 030f 	bic.w	r3, r3, #15
 8002bcc:	430b      	orrs	r3, r1
 8002bce:	6013      	str	r3, [r2, #0]
    if(__HAL_FLASH_GET_LATENCY() != FLatency)
 8002bd0:	6813      	ldr	r3, [r2, #0]
 8002bd2:	f003 030f 	and.w	r3, r3, #15
 8002bd6:	428b      	cmp	r3, r1
 8002bd8:	f040 811f 	bne.w	8002e1a <HAL_RCC_ClockConfig+0x26e>
  if(((RCC_ClkInitStruct->ClockType) & RCC_CLOCKTYPE_D1PCLK1) == RCC_CLOCKTYPE_D1PCLK1)
 8002bdc:	6823      	ldr	r3, [r4, #0]
 8002bde:	f013 0f04 	tst.w	r3, #4
 8002be2:	d00c      	beq.n	8002bfe <HAL_RCC_ClockConfig+0x52>
    if((RCC_ClkInitStruct->APB3CLKDivider) > (RCC->D1CFGR & RCC_D1CFGR_D1PPRE))
 8002be4:	6922      	ldr	r2, [r4, #16]
 8002be6:	4b91      	ldr	r3, [pc, #580]	; (8002e2c <HAL_RCC_ClockConfig+0x280>)
 8002be8:	699b      	ldr	r3, [r3, #24]
 8002bea:	f003 0370 	and.w	r3, r3, #112	; 0x70
 8002bee:	429a      	cmp	r2, r3
 8002bf0:	d905      	bls.n	8002bfe <HAL_RCC_ClockConfig+0x52>
      MODIFY_REG(RCC->D1CFGR, RCC_D1CFGR_D1PPRE, RCC_ClkInitStruct->APB3CLKDivider);
 8002bf2:	498e      	ldr	r1, [pc, #568]	; (8002e2c <HAL_RCC_ClockConfig+0x280>)
 8002bf4:	698b      	ldr	r3, [r1, #24]
 8002bf6:	f023 0370 	bic.w	r3, r3, #112	; 0x70
 8002bfa:	431a      	orrs	r2, r3
 8002bfc:	618a      	str	r2, [r1, #24]
  if(((RCC_ClkInitStruct->ClockType) & RCC_CLOCKTYPE_PCLK1) == RCC_CLOCKTYPE_PCLK1)
 8002bfe:	6823      	ldr	r3, [r4, #0]
 8002c00:	f013 0f08 	tst.w	r3, #8
 8002c04:	d00c      	beq.n	8002c20 <HAL_RCC_ClockConfig+0x74>
    if((RCC_ClkInitStruct->APB1CLKDivider) > (RCC->D2CFGR & RCC_D2CFGR_D2PPRE1))
 8002c06:	6962      	ldr	r2, [r4, #20]
 8002c08:	4b88      	ldr	r3, [pc, #544]	; (8002e2c <HAL_RCC_ClockConfig+0x280>)
 8002c0a:	69db      	ldr	r3, [r3, #28]
 8002c0c:	f003 0370 	and.w	r3, r3, #112	; 0x70
 8002c10:	429a      	cmp	r2, r3
 8002c12:	d905      	bls.n	8002c20 <HAL_RCC_ClockConfig+0x74>
      MODIFY_REG(RCC->D2CFGR, RCC_D2CFGR_D2PPRE1, (RCC_ClkInitStruct->APB1CLKDivider));
 8002c14:	4985      	ldr	r1, [pc, #532]	; (8002e2c <HAL_RCC_ClockConfig+0x280>)
 8002c16:	69cb      	ldr	r3, [r1, #28]
 8002c18:	f023 0370 	bic.w	r3, r3, #112	; 0x70
 8002c1c:	431a      	orrs	r2, r3
 8002c1e:	61ca      	str	r2, [r1, #28]
  if(((RCC_ClkInitStruct->ClockType) & RCC_CLOCKTYPE_PCLK2) == RCC_CLOCKTYPE_PCLK2)
 8002c20:	6823      	ldr	r3, [r4, #0]
 8002c22:	f013 0f10 	tst.w	r3, #16
 8002c26:	d00c      	beq.n	8002c42 <HAL_RCC_ClockConfig+0x96>
    if((RCC_ClkInitStruct->APB2CLKDivider) > (RCC->D2CFGR & RCC_D2CFGR_D2PPRE2))
 8002c28:	69a2      	ldr	r2, [r4, #24]
 8002c2a:	4b80      	ldr	r3, [pc, #512]	; (8002e2c <HAL_RCC_ClockConfig+0x280>)
 8002c2c:	69db      	ldr	r3, [r3, #28]
 8002c2e:	f403 63e0 	and.w	r3, r3, #1792	; 0x700
 8002c32:	429a      	cmp	r2, r3
 8002c34:	d905      	bls.n	8002c42 <HAL_RCC_ClockConfig+0x96>
      MODIFY_REG(RCC->D2CFGR, RCC_D2CFGR_D2PPRE2, (RCC_ClkInitStruct->APB2CLKDivider));
 8002c36:	497d      	ldr	r1, [pc, #500]	; (8002e2c <HAL_RCC_ClockConfig+0x280>)
 8002c38:	69cb      	ldr	r3, [r1, #28]
 8002c3a:	f423 63e0 	bic.w	r3, r3, #1792	; 0x700
 8002c3e:	431a      	orrs	r2, r3
 8002c40:	61ca      	str	r2, [r1, #28]
  if(((RCC_ClkInitStruct->ClockType) & RCC_CLOCKTYPE_D3PCLK1) == RCC_CLOCKTYPE_D3PCLK1)
 8002c42:	6823      	ldr	r3, [r4, #0]
 8002c44:	f013 0f20 	tst.w	r3, #32
 8002c48:	d00c      	beq.n	8002c64 <HAL_RCC_ClockConfig+0xb8>
    if((RCC_ClkInitStruct->APB4CLKDivider) > (RCC->D3CFGR & RCC_D3CFGR_D3PPRE))
 8002c4a:	69e2      	ldr	r2, [r4, #28]
 8002c4c:	4b77      	ldr	r3, [pc, #476]	; (8002e2c <HAL_RCC_ClockConfig+0x280>)
 8002c4e:	6a1b      	ldr	r3, [r3, #32]
 8002c50:	f003 0370 	and.w	r3, r3, #112	; 0x70
 8002c54:	429a      	cmp	r2, r3
 8002c56:	d905      	bls.n	8002c64 <HAL_RCC_ClockConfig+0xb8>
      MODIFY_REG(RCC->D3CFGR, RCC_D3CFGR_D3PPRE, (RCC_ClkInitStruct->APB4CLKDivider) );
 8002c58:	4974      	ldr	r1, [pc, #464]	; (8002e2c <HAL_RCC_ClockConfig+0x280>)
 8002c5a:	6a0b      	ldr	r3, [r1, #32]
 8002c5c:	f023 0370 	bic.w	r3, r3, #112	; 0x70
 8002c60:	431a      	orrs	r2, r3
 8002c62:	620a      	str	r2, [r1, #32]
  if(((RCC_ClkInitStruct->ClockType) & RCC_CLOCKTYPE_HCLK) == RCC_CLOCKTYPE_HCLK)
 8002c64:	6823      	ldr	r3, [r4, #0]
 8002c66:	f013 0f02 	tst.w	r3, #2
 8002c6a:	d00c      	beq.n	8002c86 <HAL_RCC_ClockConfig+0xda>
    if((RCC_ClkInitStruct->AHBCLKDivider) > (RCC->D1CFGR & RCC_D1CFGR_HPRE))
 8002c6c:	68e2      	ldr	r2, [r4, #12]
 8002c6e:	4b6f      	ldr	r3, [pc, #444]	; (8002e2c <HAL_RCC_ClockConfig+0x280>)
 8002c70:	699b      	ldr	r3, [r3, #24]
 8002c72:	f003 030f 	and.w	r3, r3, #15
 8002c76:	429a      	cmp	r2, r3
 8002c78:	d905      	bls.n	8002c86 <HAL_RCC_ClockConfig+0xda>
      MODIFY_REG(RCC->D1CFGR, RCC_D1CFGR_HPRE, RCC_ClkInitStruct->AHBCLKDivider);
 8002c7a:	496c      	ldr	r1, [pc, #432]	; (8002e2c <HAL_RCC_ClockConfig+0x280>)
 8002c7c:	698b      	ldr	r3, [r1, #24]
 8002c7e:	f023 030f 	bic.w	r3, r3, #15
 8002c82:	431a      	orrs	r2, r3
 8002c84:	618a      	str	r2, [r1, #24]
    if(((RCC_ClkInitStruct->ClockType) & RCC_CLOCKTYPE_SYSCLK) == RCC_CLOCKTYPE_SYSCLK)
 8002c86:	6823      	ldr	r3, [r4, #0]
 8002c88:	f013 0f01 	tst.w	r3, #1
 8002c8c:	d041      	beq.n	8002d12 <HAL_RCC_ClockConfig+0x166>
      MODIFY_REG(RCC->D1CFGR, RCC_D1CFGR_D1CPRE, RCC_ClkInitStruct->SYSCLKDivider);
 8002c8e:	4a67      	ldr	r2, [pc, #412]	; (8002e2c <HAL_RCC_ClockConfig+0x280>)
 8002c90:	6993      	ldr	r3, [r2, #24]
 8002c92:	f423 6370 	bic.w	r3, r3, #3840	; 0xf00
 8002c96:	68a1      	ldr	r1, [r4, #8]
 8002c98:	430b      	orrs	r3, r1
 8002c9a:	6193      	str	r3, [r2, #24]
      if(RCC_ClkInitStruct->SYSCLKSource == RCC_SYSCLKSOURCE_HSE)
 8002c9c:	6863      	ldr	r3, [r4, #4]
 8002c9e:	2b02      	cmp	r3, #2
 8002ca0:	d00a      	beq.n	8002cb8 <HAL_RCC_ClockConfig+0x10c>
      else if(RCC_ClkInitStruct->SYSCLKSource == RCC_SYSCLKSOURCE_PLLCLK)
 8002ca2:	2b03      	cmp	r3, #3
 8002ca4:	d027      	beq.n	8002cf6 <HAL_RCC_ClockConfig+0x14a>
      else if(RCC_ClkInitStruct->SYSCLKSource == RCC_SYSCLKSOURCE_CSI)
 8002ca6:	2b01      	cmp	r3, #1
 8002ca8:	d02c      	beq.n	8002d04 <HAL_RCC_ClockConfig+0x158>
        if(__HAL_RCC_GET_FLAG(RCC_FLAG_HSIRDY) == 0U)
 8002caa:	4a60      	ldr	r2, [pc, #384]	; (8002e2c <HAL_RCC_ClockConfig+0x280>)
 8002cac:	6812      	ldr	r2, [r2, #0]
 8002cae:	f012 0f04 	tst.w	r2, #4
 8002cb2:	d106      	bne.n	8002cc2 <HAL_RCC_ClockConfig+0x116>
          return HAL_ERROR;
 8002cb4:	2001      	movs	r0, #1
 8002cb6:	e0ad      	b.n	8002e14 <HAL_RCC_ClockConfig+0x268>
        if(__HAL_RCC_GET_FLAG(RCC_FLAG_HSERDY) == 0U)
 8002cb8:	6812      	ldr	r2, [r2, #0]
 8002cba:	f412 3f00 	tst.w	r2, #131072	; 0x20000
 8002cbe:	f000 80ae 	beq.w	8002e1e <HAL_RCC_ClockConfig+0x272>
      MODIFY_REG(RCC->CFGR, RCC_CFGR_SW, RCC_ClkInitStruct->SYSCLKSource);
 8002cc2:	495a      	ldr	r1, [pc, #360]	; (8002e2c <HAL_RCC_ClockConfig+0x280>)
 8002cc4:	690a      	ldr	r2, [r1, #16]
 8002cc6:	f022 0207 	bic.w	r2, r2, #7
 8002cca:	4313      	orrs	r3, r2
 8002ccc:	610b      	str	r3, [r1, #16]
      tickstart = HAL_GetTick();
 8002cce:	f7fd fd0d 	bl	80006ec <HAL_GetTick>
 8002cd2:	4606      	mov	r6, r0
        while (__HAL_RCC_GET_SYSCLK_SOURCE() !=  (RCC_ClkInitStruct->SYSCLKSource << RCC_CFGR_SWS_Pos))
 8002cd4:	4b55      	ldr	r3, [pc, #340]	; (8002e2c <HAL_RCC_ClockConfig+0x280>)
 8002cd6:	691b      	ldr	r3, [r3, #16]
 8002cd8:	f003 0338 	and.w	r3, r3, #56	; 0x38
 8002cdc:	6862      	ldr	r2, [r4, #4]
 8002cde:	ebb3 0fc2 	cmp.w	r3, r2, lsl #3
 8002ce2:	d016      	beq.n	8002d12 <HAL_RCC_ClockConfig+0x166>
          if((HAL_GetTick() - tickstart ) > CLOCKSWITCH_TIMEOUT_VALUE)
 8002ce4:	f7fd fd02 	bl	80006ec <HAL_GetTick>
 8002ce8:	1b80      	subs	r0, r0, r6
 8002cea:	f241 3388 	movw	r3, #5000	; 0x1388
 8002cee:	4298      	cmp	r0, r3
 8002cf0:	d9f0      	bls.n	8002cd4 <HAL_RCC_ClockConfig+0x128>
            return HAL_TIMEOUT;
 8002cf2:	2003      	movs	r0, #3
 8002cf4:	e08e      	b.n	8002e14 <HAL_RCC_ClockConfig+0x268>
        if(__HAL_RCC_GET_FLAG(RCC_FLAG_PLLRDY) == 0U)
 8002cf6:	4a4d      	ldr	r2, [pc, #308]	; (8002e2c <HAL_RCC_ClockConfig+0x280>)
 8002cf8:	6812      	ldr	r2, [r2, #0]
 8002cfa:	f012 7f00 	tst.w	r2, #33554432	; 0x2000000
 8002cfe:	d1e0      	bne.n	8002cc2 <HAL_RCC_ClockConfig+0x116>
          return HAL_ERROR;
 8002d00:	2001      	movs	r0, #1
 8002d02:	e087      	b.n	8002e14 <HAL_RCC_ClockConfig+0x268>
        if(__HAL_RCC_GET_FLAG(RCC_FLAG_CSIRDY) == 0U)
 8002d04:	4a49      	ldr	r2, [pc, #292]	; (8002e2c <HAL_RCC_ClockConfig+0x280>)
 8002d06:	6812      	ldr	r2, [r2, #0]
 8002d08:	f412 7f80 	tst.w	r2, #256	; 0x100
 8002d0c:	d1d9      	bne.n	8002cc2 <HAL_RCC_ClockConfig+0x116>
          return HAL_ERROR;
 8002d0e:	2001      	movs	r0, #1
 8002d10:	e080      	b.n	8002e14 <HAL_RCC_ClockConfig+0x268>
  if(((RCC_ClkInitStruct->ClockType) & RCC_CLOCKTYPE_HCLK) == RCC_CLOCKTYPE_HCLK)
 8002d12:	6823      	ldr	r3, [r4, #0]
 8002d14:	f013 0f02 	tst.w	r3, #2
 8002d18:	d00c      	beq.n	8002d34 <HAL_RCC_ClockConfig+0x188>
    if((RCC_ClkInitStruct->AHBCLKDivider) < (RCC->D1CFGR & RCC_D1CFGR_HPRE))
 8002d1a:	68e2      	ldr	r2, [r4, #12]
 8002d1c:	4b43      	ldr	r3, [pc, #268]	; (8002e2c <HAL_RCC_ClockConfig+0x280>)
 8002d1e:	699b      	ldr	r3, [r3, #24]
 8002d20:	f003 030f 	and.w	r3, r3, #15
 8002d24:	429a      	cmp	r2, r3
 8002d26:	d205      	bcs.n	8002d34 <HAL_RCC_ClockConfig+0x188>
      MODIFY_REG(RCC->D1CFGR, RCC_D1CFGR_HPRE, RCC_ClkInitStruct->AHBCLKDivider);
 8002d28:	4940      	ldr	r1, [pc, #256]	; (8002e2c <HAL_RCC_ClockConfig+0x280>)
 8002d2a:	698b      	ldr	r3, [r1, #24]
 8002d2c:	f023 030f 	bic.w	r3, r3, #15
 8002d30:	431a      	orrs	r2, r3
 8002d32:	618a      	str	r2, [r1, #24]
  if(FLatency < __HAL_FLASH_GET_LATENCY())
 8002d34:	4b3c      	ldr	r3, [pc, #240]	; (8002e28 <HAL_RCC_ClockConfig+0x27c>)
 8002d36:	681b      	ldr	r3, [r3, #0]
 8002d38:	f003 030f 	and.w	r3, r3, #15
 8002d3c:	42ab      	cmp	r3, r5
 8002d3e:	d90a      	bls.n	8002d56 <HAL_RCC_ClockConfig+0x1aa>
    __HAL_FLASH_SET_LATENCY(FLatency);
 8002d40:	4a39      	ldr	r2, [pc, #228]	; (8002e28 <HAL_RCC_ClockConfig+0x27c>)
 8002d42:	6813      	ldr	r3, [r2, #0]
 8002d44:	f023 030f 	bic.w	r3, r3, #15
 8002d48:	432b      	orrs	r3, r5
 8002d4a:	6013      	str	r3, [r2, #0]
    if(__HAL_FLASH_GET_LATENCY() != FLatency)
 8002d4c:	6813      	ldr	r3, [r2, #0]
 8002d4e:	f003 030f 	and.w	r3, r3, #15
 8002d52:	42ab      	cmp	r3, r5
 8002d54:	d165      	bne.n	8002e22 <HAL_RCC_ClockConfig+0x276>
 if(((RCC_ClkInitStruct->ClockType) & RCC_CLOCKTYPE_D1PCLK1) == RCC_CLOCKTYPE_D1PCLK1)
 8002d56:	6823      	ldr	r3, [r4, #0]
 8002d58:	f013 0f04 	tst.w	r3, #4
 8002d5c:	d00c      	beq.n	8002d78 <HAL_RCC_ClockConfig+0x1cc>
   if((RCC_ClkInitStruct->APB3CLKDivider) < (RCC->D1CFGR & RCC_D1CFGR_D1PPRE))
 8002d5e:	6922      	ldr	r2, [r4, #16]
 8002d60:	4b32      	ldr	r3, [pc, #200]	; (8002e2c <HAL_RCC_ClockConfig+0x280>)
 8002d62:	699b      	ldr	r3, [r3, #24]
 8002d64:	f003 0370 	and.w	r3, r3, #112	; 0x70
 8002d68:	429a      	cmp	r2, r3
 8002d6a:	d205      	bcs.n	8002d78 <HAL_RCC_ClockConfig+0x1cc>
     MODIFY_REG(RCC->D1CFGR, RCC_D1CFGR_D1PPRE, RCC_ClkInitStruct->APB3CLKDivider);
 8002d6c:	492f      	ldr	r1, [pc, #188]	; (8002e2c <HAL_RCC_ClockConfig+0x280>)
 8002d6e:	698b      	ldr	r3, [r1, #24]
 8002d70:	f023 0370 	bic.w	r3, r3, #112	; 0x70
 8002d74:	431a      	orrs	r2, r3
 8002d76:	618a      	str	r2, [r1, #24]
 if(((RCC_ClkInitStruct->ClockType) & RCC_CLOCKTYPE_PCLK1) == RCC_CLOCKTYPE_PCLK1)
 8002d78:	6823      	ldr	r3, [r4, #0]
 8002d7a:	f013 0f08 	tst.w	r3, #8
 8002d7e:	d00c      	beq.n	8002d9a <HAL_RCC_ClockConfig+0x1ee>
   if((RCC_ClkInitStruct->APB1CLKDivider) < (RCC->D2CFGR & RCC_D2CFGR_D2PPRE1))
 8002d80:	6962      	ldr	r2, [r4, #20]
 8002d82:	4b2a      	ldr	r3, [pc, #168]	; (8002e2c <HAL_RCC_ClockConfig+0x280>)
 8002d84:	69db      	ldr	r3, [r3, #28]
 8002d86:	f003 0370 	and.w	r3, r3, #112	; 0x70
 8002d8a:	429a      	cmp	r2, r3
 8002d8c:	d205      	bcs.n	8002d9a <HAL_RCC_ClockConfig+0x1ee>
     MODIFY_REG(RCC->D2CFGR, RCC_D2CFGR_D2PPRE1, (RCC_ClkInitStruct->APB1CLKDivider));
 8002d8e:	4927      	ldr	r1, [pc, #156]	; (8002e2c <HAL_RCC_ClockConfig+0x280>)
 8002d90:	69cb      	ldr	r3, [r1, #28]
 8002d92:	f023 0370 	bic.w	r3, r3, #112	; 0x70
 8002d96:	431a      	orrs	r2, r3
 8002d98:	61ca      	str	r2, [r1, #28]
 if(((RCC_ClkInitStruct->ClockType) & RCC_CLOCKTYPE_PCLK2) == RCC_CLOCKTYPE_PCLK2)
 8002d9a:	6823      	ldr	r3, [r4, #0]
 8002d9c:	f013 0f10 	tst.w	r3, #16
 8002da0:	d00c      	beq.n	8002dbc <HAL_RCC_ClockConfig+0x210>
   if((RCC_ClkInitStruct->APB2CLKDivider) < (RCC->D2CFGR & RCC_D2CFGR_D2PPRE2))
 8002da2:	69a2      	ldr	r2, [r4, #24]
 8002da4:	4b21      	ldr	r3, [pc, #132]	; (8002e2c <HAL_RCC_ClockConfig+0x280>)
 8002da6:	69db      	ldr	r3, [r3, #28]
 8002da8:	f403 63e0 	and.w	r3, r3, #1792	; 0x700
 8002dac:	429a      	cmp	r2, r3
 8002dae:	d205      	bcs.n	8002dbc <HAL_RCC_ClockConfig+0x210>
     MODIFY_REG(RCC->D2CFGR, RCC_D2CFGR_D2PPRE2, (RCC_ClkInitStruct->APB2CLKDivider));
 8002db0:	491e      	ldr	r1, [pc, #120]	; (8002e2c <HAL_RCC_ClockConfig+0x280>)
 8002db2:	69cb      	ldr	r3, [r1, #28]
 8002db4:	f423 63e0 	bic.w	r3, r3, #1792	; 0x700
 8002db8:	431a      	orrs	r2, r3
 8002dba:	61ca      	str	r2, [r1, #28]
 if(((RCC_ClkInitStruct->ClockType) & RCC_CLOCKTYPE_D3PCLK1) == RCC_CLOCKTYPE_D3PCLK1)
 8002dbc:	6823      	ldr	r3, [r4, #0]
 8002dbe:	f013 0f20 	tst.w	r3, #32
 8002dc2:	d00c      	beq.n	8002dde <HAL_RCC_ClockConfig+0x232>
   if((RCC_ClkInitStruct->APB4CLKDivider) < (RCC->D3CFGR & RCC_D3CFGR_D3PPRE))
 8002dc4:	69e2      	ldr	r2, [r4, #28]
 8002dc6:	4b19      	ldr	r3, [pc, #100]	; (8002e2c <HAL_RCC_ClockConfig+0x280>)
 8002dc8:	6a1b      	ldr	r3, [r3, #32]
 8002dca:	f003 0370 	and.w	r3, r3, #112	; 0x70
 8002dce:	429a      	cmp	r2, r3
 8002dd0:	d205      	bcs.n	8002dde <HAL_RCC_ClockConfig+0x232>
     MODIFY_REG(RCC->D3CFGR, RCC_D3CFGR_D3PPRE, (RCC_ClkInitStruct->APB4CLKDivider) );
 8002dd2:	4916      	ldr	r1, [pc, #88]	; (8002e2c <HAL_RCC_ClockConfig+0x280>)
 8002dd4:	6a0b      	ldr	r3, [r1, #32]
 8002dd6:	f023 0370 	bic.w	r3, r3, #112	; 0x70
 8002dda:	431a      	orrs	r2, r3
 8002ddc:	620a      	str	r2, [r1, #32]
  common_system_clock = HAL_RCC_GetSysClockFreq() >> ((D1CorePrescTable[(RCC->D1CFGR & RCC_D1CFGR_D1CPRE)>> RCC_D1CFGR_D1CPRE_Pos]) & 0x1FU);
 8002dde:	f7ff fdeb 	bl	80029b8 <HAL_RCC_GetSysClockFreq>
 8002de2:	4912      	ldr	r1, [pc, #72]	; (8002e2c <HAL_RCC_ClockConfig+0x280>)
 8002de4:	698b      	ldr	r3, [r1, #24]
 8002de6:	f3c3 2303 	ubfx	r3, r3, #8, #4
 8002dea:	4a11      	ldr	r2, [pc, #68]	; (8002e30 <HAL_RCC_ClockConfig+0x284>)
 8002dec:	5cd3      	ldrb	r3, [r2, r3]
 8002dee:	f003 031f 	and.w	r3, r3, #31
 8002df2:	40d8      	lsrs	r0, r3
  SystemD2Clock = (common_system_clock >> ((D1CorePrescTable[(RCC->D1CFGR & RCC_D1CFGR_HPRE)>> RCC_D1CFGR_HPRE_Pos]) & 0x1FU));
 8002df4:	698b      	ldr	r3, [r1, #24]
 8002df6:	f003 030f 	and.w	r3, r3, #15
 8002dfa:	5cd3      	ldrb	r3, [r2, r3]
 8002dfc:	f003 031f 	and.w	r3, r3, #31
 8002e00:	fa20 f303 	lsr.w	r3, r0, r3
 8002e04:	4a0b      	ldr	r2, [pc, #44]	; (8002e34 <HAL_RCC_ClockConfig+0x288>)
 8002e06:	6013      	str	r3, [r2, #0]
  SystemCoreClock = common_system_clock;
 8002e08:	4b0b      	ldr	r3, [pc, #44]	; (8002e38 <HAL_RCC_ClockConfig+0x28c>)
 8002e0a:	6018      	str	r0, [r3, #0]
  halstatus = HAL_InitTick (uwTickPrio);
 8002e0c:	4b0b      	ldr	r3, [pc, #44]	; (8002e3c <HAL_RCC_ClockConfig+0x290>)
 8002e0e:	6818      	ldr	r0, [r3, #0]
 8002e10:	f004 fea4 	bl	8007b5c <HAL_InitTick>
}
 8002e14:	bd70      	pop	{r4, r5, r6, pc}
    return HAL_ERROR;
 8002e16:	2001      	movs	r0, #1
}
 8002e18:	4770      	bx	lr
      return HAL_ERROR;
 8002e1a:	2001      	movs	r0, #1
 8002e1c:	e7fa      	b.n	8002e14 <HAL_RCC_ClockConfig+0x268>
          return HAL_ERROR;
 8002e1e:	2001      	movs	r0, #1
 8002e20:	e7f8      	b.n	8002e14 <HAL_RCC_ClockConfig+0x268>
      return HAL_ERROR;
 8002e22:	2001      	movs	r0, #1
 8002e24:	e7f6      	b.n	8002e14 <HAL_RCC_ClockConfig+0x268>
 8002e26:	bf00      	nop
 8002e28:	52002000 	.word	0x52002000
 8002e2c:	58024400 	.word	0x58024400
 8002e30:	080092d4 	.word	0x080092d4
 8002e34:	2000011c 	.word	0x2000011c
 8002e38:	20000118 	.word	0x20000118
 8002e3c:	20000004 	.word	0x20000004

08002e40 <HAL_RCC_GetHCLKFreq>:
  * @note   The SystemD2Clock CMSIS variable is used to store System domain2 Clock Frequency
  *         and updated within this function
  * @retval HCLK frequency
  */
uint32_t HAL_RCC_GetHCLKFreq(void)
{
 8002e40:	b508      	push	{r3, lr}
uint32_t common_system_clock;

#if defined(RCC_D1CFGR_D1CPRE)
  common_system_clock = HAL_RCC_GetSysClockFreq() >> (D1CorePrescTable[(RCC->D1CFGR & RCC_D1CFGR_D1CPRE)>> RCC_D1CFGR_D1CPRE_Pos] & 0x1FU);
 8002e42:	f7ff fdb9 	bl	80029b8 <HAL_RCC_GetSysClockFreq>
 8002e46:	4a0b      	ldr	r2, [pc, #44]	; (8002e74 <HAL_RCC_GetHCLKFreq+0x34>)
 8002e48:	6993      	ldr	r3, [r2, #24]
 8002e4a:	f3c3 2303 	ubfx	r3, r3, #8, #4
 8002e4e:	490a      	ldr	r1, [pc, #40]	; (8002e78 <HAL_RCC_GetHCLKFreq+0x38>)
 8002e50:	5ccb      	ldrb	r3, [r1, r3]
 8002e52:	f003 031f 	and.w	r3, r3, #31
 8002e56:	fa20 f303 	lsr.w	r3, r0, r3
#else
  common_system_clock = HAL_RCC_GetSysClockFreq() >> (D1CorePrescTable[(RCC->CDCFGR1 & RCC_CDCFGR1_CDCPRE)>> RCC_CDCFGR1_CDCPRE_Pos] & 0x1FU);
#endif

#if defined(RCC_D1CFGR_HPRE)
  SystemD2Clock = (common_system_clock >> ((D1CorePrescTable[(RCC->D1CFGR & RCC_D1CFGR_HPRE)>> RCC_D1CFGR_HPRE_Pos]) & 0x1FU));
 8002e5a:	6992      	ldr	r2, [r2, #24]
 8002e5c:	f002 020f 	and.w	r2, r2, #15
 8002e60:	5c88      	ldrb	r0, [r1, r2]
 8002e62:	f000 001f 	and.w	r0, r0, #31
 8002e66:	fa23 f000 	lsr.w	r0, r3, r0
 8002e6a:	4a04      	ldr	r2, [pc, #16]	; (8002e7c <HAL_RCC_GetHCLKFreq+0x3c>)
 8002e6c:	6010      	str	r0, [r2, #0]
#endif

#if defined(DUAL_CORE) && defined(CORE_CM4)
  SystemCoreClock = SystemD2Clock;
#else
  SystemCoreClock = common_system_clock;
 8002e6e:	4a04      	ldr	r2, [pc, #16]	; (8002e80 <HAL_RCC_GetHCLKFreq+0x40>)
 8002e70:	6013      	str	r3, [r2, #0]
#endif /* DUAL_CORE && CORE_CM4 */

  return SystemD2Clock;
}
 8002e72:	bd08      	pop	{r3, pc}
 8002e74:	58024400 	.word	0x58024400
 8002e78:	080092d4 	.word	0x080092d4
 8002e7c:	2000011c 	.word	0x2000011c
 8002e80:	20000118 	.word	0x20000118

08002e84 <HAL_RCC_GetPCLK1Freq>:
  * @note   Each time PCLK1 changes, this function must be called to update the
  *         right PCLK1 value. Otherwise, any configuration based on this function will be incorrect.
  * @retval PCLK1 frequency
  */
uint32_t HAL_RCC_GetPCLK1Freq(void)
{
 8002e84:	b508      	push	{r3, lr}
#if defined (RCC_D2CFGR_D2PPRE1)
  /* Get HCLK source and Compute PCLK1 frequency ---------------------------*/
  return (HAL_RCC_GetHCLKFreq() >> ((D1CorePrescTable[(RCC->D2CFGR & RCC_D2CFGR_D2PPRE1)>> RCC_D2CFGR_D2PPRE1_Pos]) & 0x1FU));
 8002e86:	f7ff ffdb 	bl	8002e40 <HAL_RCC_GetHCLKFreq>
 8002e8a:	4b05      	ldr	r3, [pc, #20]	; (8002ea0 <HAL_RCC_GetPCLK1Freq+0x1c>)
 8002e8c:	69db      	ldr	r3, [r3, #28]
 8002e8e:	f3c3 1302 	ubfx	r3, r3, #4, #3
 8002e92:	4a04      	ldr	r2, [pc, #16]	; (8002ea4 <HAL_RCC_GetPCLK1Freq+0x20>)
 8002e94:	5cd3      	ldrb	r3, [r2, r3]
 8002e96:	f003 031f 	and.w	r3, r3, #31
#else
 /* Get HCLK source and Compute PCLK1 frequency ---------------------------*/
  return (HAL_RCC_GetHCLKFreq() >> ((D1CorePrescTable[(RCC->CDCFGR2 & RCC_CDCFGR2_CDPPRE1)>> RCC_CDCFGR2_CDPPRE1_Pos]) & 0x1FU));
#endif
}
 8002e9a:	40d8      	lsrs	r0, r3
 8002e9c:	bd08      	pop	{r3, pc}
 8002e9e:	bf00      	nop
 8002ea0:	58024400 	.word	0x58024400
 8002ea4:	080092d4 	.word	0x080092d4

08002ea8 <HAL_RCC_GetPCLK2Freq>:
  * @note   Each time PCLK2 changes, this function must be called to update the
  *         right PCLK2 value. Otherwise, any configuration based on this function will be incorrect.
  * @retval PCLK1 frequency
  */
uint32_t HAL_RCC_GetPCLK2Freq(void)
{
 8002ea8:	b508      	push	{r3, lr}
  /* Get HCLK source and Compute PCLK1 frequency ---------------------------*/
#if defined(RCC_D2CFGR_D2PPRE2)
  return (HAL_RCC_GetHCLKFreq() >> ((D1CorePrescTable[(RCC->D2CFGR & RCC_D2CFGR_D2PPRE2)>> RCC_D2CFGR_D2PPRE2_Pos]) & 0x1FU));
 8002eaa:	f7ff ffc9 	bl	8002e40 <HAL_RCC_GetHCLKFreq>
 8002eae:	4b05      	ldr	r3, [pc, #20]	; (8002ec4 <HAL_RCC_GetPCLK2Freq+0x1c>)
 8002eb0:	69db      	ldr	r3, [r3, #28]
 8002eb2:	f3c3 2302 	ubfx	r3, r3, #8, #3
 8002eb6:	4a04      	ldr	r2, [pc, #16]	; (8002ec8 <HAL_RCC_GetPCLK2Freq+0x20>)
 8002eb8:	5cd3      	ldrb	r3, [r2, r3]
 8002eba:	f003 031f 	and.w	r3, r3, #31
#else
  return (HAL_RCC_GetHCLKFreq() >> ((D1CorePrescTable[(RCC->CDCFGR2 & RCC_CDCFGR2_CDPPRE2)>> RCC_CDCFGR2_CDPPRE2_Pos]) & 0x1FU));
#endif
}
 8002ebe:	40d8      	lsrs	r0, r3
 8002ec0:	bd08      	pop	{r3, pc}
 8002ec2:	bf00      	nop
 8002ec4:	58024400 	.word	0x58024400
 8002ec8:	080092d4 	.word	0x080092d4

08002ecc <HAL_RCC_GetClockConfig>:
  * @retval None
  */
void HAL_RCC_GetClockConfig(RCC_ClkInitTypeDef  *RCC_ClkInitStruct, uint32_t *pFLatency)
{
  /* Set all possible values for the Clock type parameter --------------------*/
  RCC_ClkInitStruct->ClockType = RCC_CLOCKTYPE_SYSCLK | RCC_CLOCKTYPE_HCLK | RCC_CLOCKTYPE_D1PCLK1 | RCC_CLOCKTYPE_PCLK1 |
 8002ecc:	233f      	movs	r3, #63	; 0x3f
 8002ece:	6003      	str	r3, [r0, #0]
                                 RCC_CLOCKTYPE_PCLK2 |  RCC_CLOCKTYPE_D3PCLK1  ;

  /* Get the SYSCLK configuration --------------------------------------------*/
  RCC_ClkInitStruct->SYSCLKSource = (uint32_t)(RCC->CFGR & RCC_CFGR_SW);
 8002ed0:	4b11      	ldr	r3, [pc, #68]	; (8002f18 <HAL_RCC_GetClockConfig+0x4c>)
 8002ed2:	691a      	ldr	r2, [r3, #16]
 8002ed4:	f002 0207 	and.w	r2, r2, #7
 8002ed8:	6042      	str	r2, [r0, #4]

#if defined(RCC_D1CFGR_D1CPRE)
  /* Get the SYSCLK configuration ----------------------------------------------*/
  RCC_ClkInitStruct->SYSCLKDivider = (uint32_t)(RCC->D1CFGR & RCC_D1CFGR_D1CPRE);
 8002eda:	699a      	ldr	r2, [r3, #24]
 8002edc:	f402 6270 	and.w	r2, r2, #3840	; 0xf00
 8002ee0:	6082      	str	r2, [r0, #8]

  /* Get the D1HCLK configuration ----------------------------------------------*/
  RCC_ClkInitStruct->AHBCLKDivider = (uint32_t)(RCC->D1CFGR & RCC_D1CFGR_HPRE);
 8002ee2:	699a      	ldr	r2, [r3, #24]
 8002ee4:	f002 020f 	and.w	r2, r2, #15
 8002ee8:	60c2      	str	r2, [r0, #12]

  /* Get the APB3 configuration ----------------------------------------------*/
  RCC_ClkInitStruct->APB3CLKDivider = (uint32_t)(RCC->D1CFGR & RCC_D1CFGR_D1PPRE);
 8002eea:	699a      	ldr	r2, [r3, #24]
 8002eec:	f002 0270 	and.w	r2, r2, #112	; 0x70
 8002ef0:	6102      	str	r2, [r0, #16]

  /* Get the APB1 configuration ----------------------------------------------*/
  RCC_ClkInitStruct->APB1CLKDivider = (uint32_t)(RCC->D2CFGR & RCC_D2CFGR_D2PPRE1);
 8002ef2:	69da      	ldr	r2, [r3, #28]
 8002ef4:	f002 0270 	and.w	r2, r2, #112	; 0x70
 8002ef8:	6142      	str	r2, [r0, #20]

  /* Get the APB2 configuration ----------------------------------------------*/
  RCC_ClkInitStruct->APB2CLKDivider = (uint32_t)(RCC->D2CFGR & RCC_D2CFGR_D2PPRE2);
 8002efa:	69da      	ldr	r2, [r3, #28]
 8002efc:	f402 62e0 	and.w	r2, r2, #1792	; 0x700
 8002f00:	6182      	str	r2, [r0, #24]

  /* Get the APB4 configuration ----------------------------------------------*/
  RCC_ClkInitStruct->APB4CLKDivider = (uint32_t)(RCC->D3CFGR & RCC_D3CFGR_D3PPRE);
 8002f02:	6a1b      	ldr	r3, [r3, #32]
 8002f04:	f003 0370 	and.w	r3, r3, #112	; 0x70
 8002f08:	61c3      	str	r3, [r0, #28]
  /* Get the APB4 configuration ----------------------------------------------*/
  RCC_ClkInitStruct->APB4CLKDivider = (uint32_t)(RCC->SRDCFGR & RCC_SRDCFGR_SRDPPRE);
#endif

  /* Get the Flash Wait State (Latency) configuration ------------------------*/
  *pFLatency = (uint32_t)(FLASH->ACR & FLASH_ACR_LATENCY);
 8002f0a:	4b04      	ldr	r3, [pc, #16]	; (8002f1c <HAL_RCC_GetClockConfig+0x50>)
 8002f0c:	681b      	ldr	r3, [r3, #0]
 8002f0e:	f003 030f 	and.w	r3, r3, #15
 8002f12:	600b      	str	r3, [r1, #0]
}
 8002f14:	4770      	bx	lr
 8002f16:	bf00      	nop
 8002f18:	58024400 	.word	0x58024400
 8002f1c:	52002000 	.word	0x52002000

08002f20 <RCCEx_PLL2_Config>:
  assert_param(IS_RCC_PLL2RGE_VALUE(pll2->PLL2RGE));
  assert_param(IS_RCC_PLL2VCO_VALUE(pll2->PLL2VCOSEL));
  assert_param(IS_RCC_PLLFRACN_VALUE(pll2->PLL2FRACN));

  /* Check that PLL2 OSC clock source is already set */
  if(__HAL_RCC_GET_PLL_OSCSOURCE() == RCC_PLLSOURCE_NONE)
 8002f20:	4b40      	ldr	r3, [pc, #256]	; (8003024 <RCCEx_PLL2_Config+0x104>)
 8002f22:	6a9b      	ldr	r3, [r3, #40]	; 0x28
 8002f24:	f003 0303 	and.w	r3, r3, #3
 8002f28:	2b03      	cmp	r3, #3
 8002f2a:	d079      	beq.n	8003020 <RCCEx_PLL2_Config+0x100>
{
 8002f2c:	b570      	push	{r4, r5, r6, lr}
 8002f2e:	4605      	mov	r5, r0
 8002f30:	460e      	mov	r6, r1


  else
  {
    /* Disable  PLL2. */
    __HAL_RCC_PLL2_DISABLE();
 8002f32:	4a3c      	ldr	r2, [pc, #240]	; (8003024 <RCCEx_PLL2_Config+0x104>)
 8002f34:	6813      	ldr	r3, [r2, #0]
 8002f36:	f023 6380 	bic.w	r3, r3, #67108864	; 0x4000000
 8002f3a:	6013      	str	r3, [r2, #0]

    /* Get Start Tick*/
    tickstart = HAL_GetTick();
 8002f3c:	f7fd fbd6 	bl	80006ec <HAL_GetTick>
 8002f40:	4604      	mov	r4, r0

    /* Wait till PLL is disabled */
    while(__HAL_RCC_GET_FLAG(RCC_FLAG_PLL2RDY) != 0U)
 8002f42:	4b38      	ldr	r3, [pc, #224]	; (8003024 <RCCEx_PLL2_Config+0x104>)
 8002f44:	681b      	ldr	r3, [r3, #0]
 8002f46:	f013 6f00 	tst.w	r3, #134217728	; 0x8000000
 8002f4a:	d006      	beq.n	8002f5a <RCCEx_PLL2_Config+0x3a>
    {
      if( (HAL_GetTick() - tickstart ) > PLL2_TIMEOUT_VALUE)
 8002f4c:	f7fd fbce 	bl	80006ec <HAL_GetTick>
 8002f50:	1b03      	subs	r3, r0, r4
 8002f52:	2b02      	cmp	r3, #2
 8002f54:	d9f5      	bls.n	8002f42 <RCCEx_PLL2_Config+0x22>
      {
        return HAL_TIMEOUT;
 8002f56:	2003      	movs	r0, #3

  }


  return status;
}
 8002f58:	bd70      	pop	{r4, r5, r6, pc}
    __HAL_RCC_PLL2_CONFIG(pll2->PLL2M,
 8002f5a:	4b32      	ldr	r3, [pc, #200]	; (8003024 <RCCEx_PLL2_Config+0x104>)
 8002f5c:	6a9a      	ldr	r2, [r3, #40]	; 0x28
 8002f5e:	f422 327c 	bic.w	r2, r2, #258048	; 0x3f000
 8002f62:	6829      	ldr	r1, [r5, #0]
 8002f64:	ea42 3201 	orr.w	r2, r2, r1, lsl #12
 8002f68:	629a      	str	r2, [r3, #40]	; 0x28
 8002f6a:	686a      	ldr	r2, [r5, #4]
 8002f6c:	3a01      	subs	r2, #1
 8002f6e:	f3c2 0208 	ubfx	r2, r2, #0, #9
 8002f72:	68a9      	ldr	r1, [r5, #8]
 8002f74:	3901      	subs	r1, #1
 8002f76:	0249      	lsls	r1, r1, #9
 8002f78:	b289      	uxth	r1, r1
 8002f7a:	430a      	orrs	r2, r1
 8002f7c:	68e9      	ldr	r1, [r5, #12]
 8002f7e:	3901      	subs	r1, #1
 8002f80:	0409      	lsls	r1, r1, #16
 8002f82:	f401 01fe 	and.w	r1, r1, #8323072	; 0x7f0000
 8002f86:	430a      	orrs	r2, r1
 8002f88:	6929      	ldr	r1, [r5, #16]
 8002f8a:	3901      	subs	r1, #1
 8002f8c:	0609      	lsls	r1, r1, #24
 8002f8e:	f001 41fe 	and.w	r1, r1, #2130706432	; 0x7f000000
 8002f92:	430a      	orrs	r2, r1
 8002f94:	639a      	str	r2, [r3, #56]	; 0x38
    __HAL_RCC_PLL2_VCIRANGE(pll2->PLL2RGE) ;
 8002f96:	6ada      	ldr	r2, [r3, #44]	; 0x2c
 8002f98:	f022 02c0 	bic.w	r2, r2, #192	; 0xc0
 8002f9c:	6969      	ldr	r1, [r5, #20]
 8002f9e:	430a      	orrs	r2, r1
 8002fa0:	62da      	str	r2, [r3, #44]	; 0x2c
    __HAL_RCC_PLL2_VCORANGE(pll2->PLL2VCOSEL) ;
 8002fa2:	6ada      	ldr	r2, [r3, #44]	; 0x2c
 8002fa4:	f022 0220 	bic.w	r2, r2, #32
 8002fa8:	69a9      	ldr	r1, [r5, #24]
 8002faa:	430a      	orrs	r2, r1
 8002fac:	62da      	str	r2, [r3, #44]	; 0x2c
    __HAL_RCC_PLL2FRACN_DISABLE();
 8002fae:	6ada      	ldr	r2, [r3, #44]	; 0x2c
 8002fb0:	f022 0210 	bic.w	r2, r2, #16
 8002fb4:	62da      	str	r2, [r3, #44]	; 0x2c
    __HAL_RCC_PLL2FRACN_CONFIG(pll2->PLL2FRACN);
 8002fb6:	6bd9      	ldr	r1, [r3, #60]	; 0x3c
 8002fb8:	4a1b      	ldr	r2, [pc, #108]	; (8003028 <RCCEx_PLL2_Config+0x108>)
 8002fba:	400a      	ands	r2, r1
 8002fbc:	69e9      	ldr	r1, [r5, #28]
 8002fbe:	ea42 02c1 	orr.w	r2, r2, r1, lsl #3
 8002fc2:	63da      	str	r2, [r3, #60]	; 0x3c
    __HAL_RCC_PLL2FRACN_ENABLE();
 8002fc4:	6ada      	ldr	r2, [r3, #44]	; 0x2c
 8002fc6:	f042 0210 	orr.w	r2, r2, #16
 8002fca:	62da      	str	r2, [r3, #44]	; 0x2c
    if(Divider == DIVIDER_P_UPDATE)
 8002fcc:	b9c6      	cbnz	r6, 8003000 <RCCEx_PLL2_Config+0xe0>
      __HAL_RCC_PLL2CLKOUT_ENABLE(RCC_PLL2_DIVP);
 8002fce:	461a      	mov	r2, r3
 8002fd0:	6adb      	ldr	r3, [r3, #44]	; 0x2c
 8002fd2:	f443 2300 	orr.w	r3, r3, #524288	; 0x80000
 8002fd6:	62d3      	str	r3, [r2, #44]	; 0x2c
    __HAL_RCC_PLL2_ENABLE();
 8002fd8:	4a12      	ldr	r2, [pc, #72]	; (8003024 <RCCEx_PLL2_Config+0x104>)
 8002fda:	6813      	ldr	r3, [r2, #0]
 8002fdc:	f043 6380 	orr.w	r3, r3, #67108864	; 0x4000000
 8002fe0:	6013      	str	r3, [r2, #0]
    tickstart = HAL_GetTick();
 8002fe2:	f7fd fb83 	bl	80006ec <HAL_GetTick>
 8002fe6:	4604      	mov	r4, r0
    while(__HAL_RCC_GET_FLAG(RCC_FLAG_PLL2RDY) == 0U)
 8002fe8:	4b0e      	ldr	r3, [pc, #56]	; (8003024 <RCCEx_PLL2_Config+0x104>)
 8002fea:	681b      	ldr	r3, [r3, #0]
 8002fec:	f013 6f00 	tst.w	r3, #134217728	; 0x8000000
 8002ff0:	d114      	bne.n	800301c <RCCEx_PLL2_Config+0xfc>
      if( (HAL_GetTick() - tickstart ) > PLL2_TIMEOUT_VALUE)
 8002ff2:	f7fd fb7b 	bl	80006ec <HAL_GetTick>
 8002ff6:	1b00      	subs	r0, r0, r4
 8002ff8:	2802      	cmp	r0, #2
 8002ffa:	d9f5      	bls.n	8002fe8 <RCCEx_PLL2_Config+0xc8>
        return HAL_TIMEOUT;
 8002ffc:	2003      	movs	r0, #3
 8002ffe:	e7ab      	b.n	8002f58 <RCCEx_PLL2_Config+0x38>
    else if(Divider == DIVIDER_Q_UPDATE)
 8003000:	2e01      	cmp	r6, #1
 8003002:	d005      	beq.n	8003010 <RCCEx_PLL2_Config+0xf0>
      __HAL_RCC_PLL2CLKOUT_ENABLE(RCC_PLL2_DIVR);
 8003004:	4a07      	ldr	r2, [pc, #28]	; (8003024 <RCCEx_PLL2_Config+0x104>)
 8003006:	6ad3      	ldr	r3, [r2, #44]	; 0x2c
 8003008:	f443 1300 	orr.w	r3, r3, #2097152	; 0x200000
 800300c:	62d3      	str	r3, [r2, #44]	; 0x2c
 800300e:	e7e3      	b.n	8002fd8 <RCCEx_PLL2_Config+0xb8>
      __HAL_RCC_PLL2CLKOUT_ENABLE(RCC_PLL2_DIVQ);
 8003010:	4a04      	ldr	r2, [pc, #16]	; (8003024 <RCCEx_PLL2_Config+0x104>)
 8003012:	6ad3      	ldr	r3, [r2, #44]	; 0x2c
 8003014:	f443 1380 	orr.w	r3, r3, #1048576	; 0x100000
 8003018:	62d3      	str	r3, [r2, #44]	; 0x2c
 800301a:	e7dd      	b.n	8002fd8 <RCCEx_PLL2_Config+0xb8>
  return status;
 800301c:	2000      	movs	r0, #0
 800301e:	e79b      	b.n	8002f58 <RCCEx_PLL2_Config+0x38>
    return HAL_ERROR;
 8003020:	2001      	movs	r0, #1
}
 8003022:	4770      	bx	lr
 8003024:	58024400 	.word	0x58024400
 8003028:	ffff0007 	.word	0xffff0007

0800302c <RCCEx_PLL3_Config>:
  assert_param(IS_RCC_PLL3RGE_VALUE(pll3->PLL3RGE));
  assert_param(IS_RCC_PLL3VCO_VALUE(pll3->PLL3VCOSEL));
  assert_param(IS_RCC_PLLFRACN_VALUE(pll3->PLL3FRACN));

  /* Check that PLL3 OSC clock source is already set */
  if(__HAL_RCC_GET_PLL_OSCSOURCE() == RCC_PLLSOURCE_NONE)
 800302c:	4b40      	ldr	r3, [pc, #256]	; (8003130 <RCCEx_PLL3_Config+0x104>)
 800302e:	6a9b      	ldr	r3, [r3, #40]	; 0x28
 8003030:	f003 0303 	and.w	r3, r3, #3
 8003034:	2b03      	cmp	r3, #3
 8003036:	d079      	beq.n	800312c <RCCEx_PLL3_Config+0x100>
{
 8003038:	b570      	push	{r4, r5, r6, lr}
 800303a:	4605      	mov	r5, r0
 800303c:	460e      	mov	r6, r1


  else
  {
    /* Disable  PLL3. */
    __HAL_RCC_PLL3_DISABLE();
 800303e:	4a3c      	ldr	r2, [pc, #240]	; (8003130 <RCCEx_PLL3_Config+0x104>)
 8003040:	6813      	ldr	r3, [r2, #0]
 8003042:	f023 5380 	bic.w	r3, r3, #268435456	; 0x10000000
 8003046:	6013      	str	r3, [r2, #0]

    /* Get Start Tick*/
    tickstart = HAL_GetTick();
 8003048:	f7fd fb50 	bl	80006ec <HAL_GetTick>
 800304c:	4604      	mov	r4, r0
    /* Wait till PLL3 is ready */
    while(__HAL_RCC_GET_FLAG(RCC_FLAG_PLL3RDY) != 0U)
 800304e:	4b38      	ldr	r3, [pc, #224]	; (8003130 <RCCEx_PLL3_Config+0x104>)
 8003050:	681b      	ldr	r3, [r3, #0]
 8003052:	f013 5f00 	tst.w	r3, #536870912	; 0x20000000
 8003056:	d006      	beq.n	8003066 <RCCEx_PLL3_Config+0x3a>
    {
      if( (HAL_GetTick() - tickstart ) > PLL3_TIMEOUT_VALUE)
 8003058:	f7fd fb48 	bl	80006ec <HAL_GetTick>
 800305c:	1b03      	subs	r3, r0, r4
 800305e:	2b02      	cmp	r3, #2
 8003060:	d9f5      	bls.n	800304e <RCCEx_PLL3_Config+0x22>
      {
        return HAL_TIMEOUT;
 8003062:	2003      	movs	r0, #3

  }


  return status;
}
 8003064:	bd70      	pop	{r4, r5, r6, pc}
    __HAL_RCC_PLL3_CONFIG(pll3->PLL3M,
 8003066:	4b32      	ldr	r3, [pc, #200]	; (8003130 <RCCEx_PLL3_Config+0x104>)
 8003068:	6a9a      	ldr	r2, [r3, #40]	; 0x28
 800306a:	f022 727c 	bic.w	r2, r2, #66060288	; 0x3f00000
 800306e:	6829      	ldr	r1, [r5, #0]
 8003070:	ea42 5201 	orr.w	r2, r2, r1, lsl #20
 8003074:	629a      	str	r2, [r3, #40]	; 0x28
 8003076:	686a      	ldr	r2, [r5, #4]
 8003078:	3a01      	subs	r2, #1
 800307a:	f3c2 0208 	ubfx	r2, r2, #0, #9
 800307e:	68a9      	ldr	r1, [r5, #8]
 8003080:	3901      	subs	r1, #1
 8003082:	0249      	lsls	r1, r1, #9
 8003084:	b289      	uxth	r1, r1
 8003086:	430a      	orrs	r2, r1
 8003088:	68e9      	ldr	r1, [r5, #12]
 800308a:	3901      	subs	r1, #1
 800308c:	0409      	lsls	r1, r1, #16
 800308e:	f401 01fe 	and.w	r1, r1, #8323072	; 0x7f0000
 8003092:	430a      	orrs	r2, r1
 8003094:	6929      	ldr	r1, [r5, #16]
 8003096:	3901      	subs	r1, #1
 8003098:	0609      	lsls	r1, r1, #24
 800309a:	f001 41fe 	and.w	r1, r1, #2130706432	; 0x7f000000
 800309e:	430a      	orrs	r2, r1
 80030a0:	641a      	str	r2, [r3, #64]	; 0x40
    __HAL_RCC_PLL3_VCIRANGE(pll3->PLL3RGE) ;
 80030a2:	6ada      	ldr	r2, [r3, #44]	; 0x2c
 80030a4:	f422 6240 	bic.w	r2, r2, #3072	; 0xc00
 80030a8:	6969      	ldr	r1, [r5, #20]
 80030aa:	430a      	orrs	r2, r1
 80030ac:	62da      	str	r2, [r3, #44]	; 0x2c
    __HAL_RCC_PLL3_VCORANGE(pll3->PLL3VCOSEL) ;
 80030ae:	6ada      	ldr	r2, [r3, #44]	; 0x2c
 80030b0:	f422 7200 	bic.w	r2, r2, #512	; 0x200
 80030b4:	69a9      	ldr	r1, [r5, #24]
 80030b6:	430a      	orrs	r2, r1
 80030b8:	62da      	str	r2, [r3, #44]	; 0x2c
    __HAL_RCC_PLL3FRACN_DISABLE();
 80030ba:	6ada      	ldr	r2, [r3, #44]	; 0x2c
 80030bc:	f422 7280 	bic.w	r2, r2, #256	; 0x100
 80030c0:	62da      	str	r2, [r3, #44]	; 0x2c
    __HAL_RCC_PLL3FRACN_CONFIG(pll3->PLL3FRACN);
 80030c2:	6c59      	ldr	r1, [r3, #68]	; 0x44
 80030c4:	4a1b      	ldr	r2, [pc, #108]	; (8003134 <RCCEx_PLL3_Config+0x108>)
 80030c6:	400a      	ands	r2, r1
 80030c8:	69e9      	ldr	r1, [r5, #28]
 80030ca:	ea42 02c1 	orr.w	r2, r2, r1, lsl #3
 80030ce:	645a      	str	r2, [r3, #68]	; 0x44
    __HAL_RCC_PLL3FRACN_ENABLE();
 80030d0:	6ada      	ldr	r2, [r3, #44]	; 0x2c
 80030d2:	f442 7280 	orr.w	r2, r2, #256	; 0x100
 80030d6:	62da      	str	r2, [r3, #44]	; 0x2c
    if(Divider == DIVIDER_P_UPDATE)
 80030d8:	b9c6      	cbnz	r6, 800310c <RCCEx_PLL3_Config+0xe0>
      __HAL_RCC_PLL3CLKOUT_ENABLE(RCC_PLL3_DIVP);
 80030da:	461a      	mov	r2, r3
 80030dc:	6adb      	ldr	r3, [r3, #44]	; 0x2c
 80030de:	f443 0380 	orr.w	r3, r3, #4194304	; 0x400000
 80030e2:	62d3      	str	r3, [r2, #44]	; 0x2c
    __HAL_RCC_PLL3_ENABLE();
 80030e4:	4a12      	ldr	r2, [pc, #72]	; (8003130 <RCCEx_PLL3_Config+0x104>)
 80030e6:	6813      	ldr	r3, [r2, #0]
 80030e8:	f043 5380 	orr.w	r3, r3, #268435456	; 0x10000000
 80030ec:	6013      	str	r3, [r2, #0]
    tickstart = HAL_GetTick();
 80030ee:	f7fd fafd 	bl	80006ec <HAL_GetTick>
 80030f2:	4604      	mov	r4, r0
    while(__HAL_RCC_GET_FLAG(RCC_FLAG_PLL3RDY) == 0U)
 80030f4:	4b0e      	ldr	r3, [pc, #56]	; (8003130 <RCCEx_PLL3_Config+0x104>)
 80030f6:	681b      	ldr	r3, [r3, #0]
 80030f8:	f013 5f00 	tst.w	r3, #536870912	; 0x20000000
 80030fc:	d114      	bne.n	8003128 <RCCEx_PLL3_Config+0xfc>
      if( (HAL_GetTick() - tickstart ) > PLL3_TIMEOUT_VALUE)
 80030fe:	f7fd faf5 	bl	80006ec <HAL_GetTick>
 8003102:	1b00      	subs	r0, r0, r4
 8003104:	2802      	cmp	r0, #2
 8003106:	d9f5      	bls.n	80030f4 <RCCEx_PLL3_Config+0xc8>
        return HAL_TIMEOUT;
 8003108:	2003      	movs	r0, #3
 800310a:	e7ab      	b.n	8003064 <RCCEx_PLL3_Config+0x38>
    else if(Divider == DIVIDER_Q_UPDATE)
 800310c:	2e01      	cmp	r6, #1
 800310e:	d005      	beq.n	800311c <RCCEx_PLL3_Config+0xf0>
      __HAL_RCC_PLL3CLKOUT_ENABLE(RCC_PLL3_DIVR);
 8003110:	4a07      	ldr	r2, [pc, #28]	; (8003130 <RCCEx_PLL3_Config+0x104>)
 8003112:	6ad3      	ldr	r3, [r2, #44]	; 0x2c
 8003114:	f043 7380 	orr.w	r3, r3, #16777216	; 0x1000000
 8003118:	62d3      	str	r3, [r2, #44]	; 0x2c
 800311a:	e7e3      	b.n	80030e4 <RCCEx_PLL3_Config+0xb8>
      __HAL_RCC_PLL3CLKOUT_ENABLE(RCC_PLL3_DIVQ);
 800311c:	4a04      	ldr	r2, [pc, #16]	; (8003130 <RCCEx_PLL3_Config+0x104>)
 800311e:	6ad3      	ldr	r3, [r2, #44]	; 0x2c
 8003120:	f443 0300 	orr.w	r3, r3, #8388608	; 0x800000
 8003124:	62d3      	str	r3, [r2, #44]	; 0x2c
 8003126:	e7dd      	b.n	80030e4 <RCCEx_PLL3_Config+0xb8>
  return status;
 8003128:	2000      	movs	r0, #0
 800312a:	e79b      	b.n	8003064 <RCCEx_PLL3_Config+0x38>
    return HAL_ERROR;
 800312c:	2001      	movs	r0, #1
}
 800312e:	4770      	bx	lr
 8003130:	58024400 	.word	0x58024400
 8003134:	ffff0007 	.word	0xffff0007

08003138 <HAL_RCCEx_PeriphCLKConfig>:
{
 8003138:	b5f8      	push	{r3, r4, r5, r6, r7, lr}
 800313a:	4604      	mov	r4, r0
  if(((PeriphClkInit->PeriphClockSelection) & RCC_PERIPHCLK_SPDIFRX) == RCC_PERIPHCLK_SPDIFRX)
 800313c:	6803      	ldr	r3, [r0, #0]
 800313e:	f013 6f00 	tst.w	r3, #134217728	; 0x8000000
 8003142:	d030      	beq.n	80031a6 <HAL_RCCEx_PeriphCLKConfig+0x6e>
    switch(PeriphClkInit->SpdifrxClockSelection)
 8003144:	6e43      	ldr	r3, [r0, #100]	; 0x64
 8003146:	f5b3 1f00 	cmp.w	r3, #2097152	; 0x200000
 800314a:	d026      	beq.n	800319a <HAL_RCCEx_PeriphCLKConfig+0x62>
 800314c:	d80e      	bhi.n	800316c <HAL_RCCEx_PeriphCLKConfig+0x34>
 800314e:	b1eb      	cbz	r3, 800318c <HAL_RCCEx_PeriphCLKConfig+0x54>
 8003150:	f5b3 1f80 	cmp.w	r3, #1048576	; 0x100000
 8003154:	d107      	bne.n	8003166 <HAL_RCCEx_PeriphCLKConfig+0x2e>
      ret = RCCEx_PLL2_Config(&(PeriphClkInit->PLL2),DIVIDER_R_UPDATE);
 8003156:	2102      	movs	r1, #2
 8003158:	3004      	adds	r0, #4
 800315a:	f7ff fee1 	bl	8002f20 <RCCEx_PLL2_Config>
 800315e:	4605      	mov	r5, r0
    if(ret == HAL_OK)
 8003160:	b145      	cbz	r5, 8003174 <HAL_RCCEx_PeriphCLKConfig+0x3c>
 8003162:	462e      	mov	r6, r5
 8003164:	e021      	b.n	80031aa <HAL_RCCEx_PeriphCLKConfig+0x72>
    switch(PeriphClkInit->SpdifrxClockSelection)
 8003166:	2601      	movs	r6, #1
 8003168:	4635      	mov	r5, r6
 800316a:	e01e      	b.n	80031aa <HAL_RCCEx_PeriphCLKConfig+0x72>
 800316c:	f5b3 1f40 	cmp.w	r3, #3145728	; 0x300000
 8003170:	d109      	bne.n	8003186 <HAL_RCCEx_PeriphCLKConfig+0x4e>
 8003172:	2500      	movs	r5, #0
      __HAL_RCC_SPDIFRX_CONFIG(PeriphClkInit->SpdifrxClockSelection);
 8003174:	4a96      	ldr	r2, [pc, #600]	; (80033d0 <HAL_RCCEx_PeriphCLKConfig+0x298>)
 8003176:	6d13      	ldr	r3, [r2, #80]	; 0x50
 8003178:	f423 1340 	bic.w	r3, r3, #3145728	; 0x300000
 800317c:	6e61      	ldr	r1, [r4, #100]	; 0x64
 800317e:	430b      	orrs	r3, r1
 8003180:	6513      	str	r3, [r2, #80]	; 0x50
  HAL_StatusTypeDef status = HAL_OK;   /* Final status */
 8003182:	2600      	movs	r6, #0
 8003184:	e011      	b.n	80031aa <HAL_RCCEx_PeriphCLKConfig+0x72>
    switch(PeriphClkInit->SpdifrxClockSelection)
 8003186:	2601      	movs	r6, #1
 8003188:	4635      	mov	r5, r6
 800318a:	e00e      	b.n	80031aa <HAL_RCCEx_PeriphCLKConfig+0x72>
      __HAL_RCC_PLLCLKOUT_ENABLE(RCC_PLL1_DIVQ);
 800318c:	4a90      	ldr	r2, [pc, #576]	; (80033d0 <HAL_RCCEx_PeriphCLKConfig+0x298>)
 800318e:	6ad3      	ldr	r3, [r2, #44]	; 0x2c
 8003190:	f443 3300 	orr.w	r3, r3, #131072	; 0x20000
 8003194:	62d3      	str	r3, [r2, #44]	; 0x2c
  HAL_StatusTypeDef ret = HAL_OK;      /* Intermediate status */
 8003196:	2500      	movs	r5, #0
 8003198:	e7ec      	b.n	8003174 <HAL_RCCEx_PeriphCLKConfig+0x3c>
      ret = RCCEx_PLL3_Config(&(PeriphClkInit->PLL3),DIVIDER_R_UPDATE);
 800319a:	2102      	movs	r1, #2
 800319c:	3024      	adds	r0, #36	; 0x24
 800319e:	f7ff ff45 	bl	800302c <RCCEx_PLL3_Config>
 80031a2:	4605      	mov	r5, r0
      break;
 80031a4:	e7dc      	b.n	8003160 <HAL_RCCEx_PeriphCLKConfig+0x28>
  HAL_StatusTypeDef status = HAL_OK;   /* Final status */
 80031a6:	2600      	movs	r6, #0
  HAL_StatusTypeDef ret = HAL_OK;      /* Intermediate status */
 80031a8:	4635      	mov	r5, r6
  if(((PeriphClkInit->PeriphClockSelection) & RCC_PERIPHCLK_SAI1) == RCC_PERIPHCLK_SAI1)
 80031aa:	6823      	ldr	r3, [r4, #0]
 80031ac:	f413 7f80 	tst.w	r3, #256	; 0x100
 80031b0:	d014      	beq.n	80031dc <HAL_RCCEx_PeriphCLKConfig+0xa4>
    switch(PeriphClkInit->Sai1ClockSelection)
 80031b2:	6d63      	ldr	r3, [r4, #84]	; 0x54
 80031b4:	2b04      	cmp	r3, #4
 80031b6:	d830      	bhi.n	800321a <HAL_RCCEx_PeriphCLKConfig+0xe2>
 80031b8:	e8df f003 	tbb	[pc, r3]
 80031bc:	08282203 	.word	0x08282203
 80031c0:	08          	.byte	0x08
 80031c1:	00          	.byte	0x00
      __HAL_RCC_PLLCLKOUT_ENABLE(RCC_PLL1_DIVQ);
 80031c2:	4a83      	ldr	r2, [pc, #524]	; (80033d0 <HAL_RCCEx_PeriphCLKConfig+0x298>)
 80031c4:	6ad3      	ldr	r3, [r2, #44]	; 0x2c
 80031c6:	f443 3300 	orr.w	r3, r3, #131072	; 0x20000
 80031ca:	62d3      	str	r3, [r2, #44]	; 0x2c
    if(ret == HAL_OK)
 80031cc:	bb45      	cbnz	r5, 8003220 <HAL_RCCEx_PeriphCLKConfig+0xe8>
      __HAL_RCC_SAI1_CONFIG(PeriphClkInit->Sai1ClockSelection);
 80031ce:	4a80      	ldr	r2, [pc, #512]	; (80033d0 <HAL_RCCEx_PeriphCLKConfig+0x298>)
 80031d0:	6d13      	ldr	r3, [r2, #80]	; 0x50
 80031d2:	f023 0307 	bic.w	r3, r3, #7
 80031d6:	6d61      	ldr	r1, [r4, #84]	; 0x54
 80031d8:	430b      	orrs	r3, r1
 80031da:	6513      	str	r3, [r2, #80]	; 0x50
  if(((PeriphClkInit->PeriphClockSelection) & RCC_PERIPHCLK_SAI23) == RCC_PERIPHCLK_SAI23)
 80031dc:	6823      	ldr	r3, [r4, #0]
 80031de:	f413 7f00 	tst.w	r3, #512	; 0x200
 80031e2:	d02f      	beq.n	8003244 <HAL_RCCEx_PeriphCLKConfig+0x10c>
    switch(PeriphClkInit->Sai23ClockSelection)
 80031e4:	6da3      	ldr	r3, [r4, #88]	; 0x58
 80031e6:	2b80      	cmp	r3, #128	; 0x80
 80031e8:	d04a      	beq.n	8003280 <HAL_RCCEx_PeriphCLKConfig+0x148>
 80031ea:	d81e      	bhi.n	800322a <HAL_RCCEx_PeriphCLKConfig+0xf2>
 80031ec:	2b00      	cmp	r3, #0
 80031ee:	d041      	beq.n	8003274 <HAL_RCCEx_PeriphCLKConfig+0x13c>
 80031f0:	2b40      	cmp	r3, #64	; 0x40
 80031f2:	d117      	bne.n	8003224 <HAL_RCCEx_PeriphCLKConfig+0xec>
      ret = RCCEx_PLL2_Config(&(PeriphClkInit->PLL2),DIVIDER_P_UPDATE);
 80031f4:	2100      	movs	r1, #0
 80031f6:	1d20      	adds	r0, r4, #4
 80031f8:	f7ff fe92 	bl	8002f20 <RCCEx_PLL2_Config>
 80031fc:	4605      	mov	r5, r0
      break;
 80031fe:	e019      	b.n	8003234 <HAL_RCCEx_PeriphCLKConfig+0xfc>
      ret = RCCEx_PLL2_Config(&(PeriphClkInit->PLL2),DIVIDER_P_UPDATE);
 8003200:	2100      	movs	r1, #0
 8003202:	1d20      	adds	r0, r4, #4
 8003204:	f7ff fe8c 	bl	8002f20 <RCCEx_PLL2_Config>
 8003208:	4605      	mov	r5, r0
      break;
 800320a:	e7df      	b.n	80031cc <HAL_RCCEx_PeriphCLKConfig+0x94>
      ret = RCCEx_PLL3_Config(&(PeriphClkInit->PLL3),DIVIDER_P_UPDATE);
 800320c:	2100      	movs	r1, #0
 800320e:	f104 0024 	add.w	r0, r4, #36	; 0x24
 8003212:	f7ff ff0b 	bl	800302c <RCCEx_PLL3_Config>
 8003216:	4605      	mov	r5, r0
      break;
 8003218:	e7d8      	b.n	80031cc <HAL_RCCEx_PeriphCLKConfig+0x94>
    switch(PeriphClkInit->Sai1ClockSelection)
 800321a:	2601      	movs	r6, #1
 800321c:	4635      	mov	r5, r6
 800321e:	e7dd      	b.n	80031dc <HAL_RCCEx_PeriphCLKConfig+0xa4>
 8003220:	462e      	mov	r6, r5
 8003222:	e7db      	b.n	80031dc <HAL_RCCEx_PeriphCLKConfig+0xa4>
    switch(PeriphClkInit->Sai23ClockSelection)
 8003224:	2601      	movs	r6, #1
 8003226:	4635      	mov	r5, r6
 8003228:	e00c      	b.n	8003244 <HAL_RCCEx_PeriphCLKConfig+0x10c>
 800322a:	2bc0      	cmp	r3, #192	; 0xc0
 800322c:	d002      	beq.n	8003234 <HAL_RCCEx_PeriphCLKConfig+0xfc>
 800322e:	f5b3 7f80 	cmp.w	r3, #256	; 0x100
 8003232:	d11c      	bne.n	800326e <HAL_RCCEx_PeriphCLKConfig+0x136>
    if(ret == HAL_OK)
 8003234:	bb5d      	cbnz	r5, 800328e <HAL_RCCEx_PeriphCLKConfig+0x156>
      __HAL_RCC_SAI23_CONFIG(PeriphClkInit->Sai23ClockSelection);
 8003236:	4a66      	ldr	r2, [pc, #408]	; (80033d0 <HAL_RCCEx_PeriphCLKConfig+0x298>)
 8003238:	6d13      	ldr	r3, [r2, #80]	; 0x50
 800323a:	f423 73e0 	bic.w	r3, r3, #448	; 0x1c0
 800323e:	6da1      	ldr	r1, [r4, #88]	; 0x58
 8003240:	430b      	orrs	r3, r1
 8003242:	6513      	str	r3, [r2, #80]	; 0x50
  if(((PeriphClkInit->PeriphClockSelection) & RCC_PERIPHCLK_SAI4A) == RCC_PERIPHCLK_SAI4A)
 8003244:	6823      	ldr	r3, [r4, #0]
 8003246:	f413 6f80 	tst.w	r3, #1024	; 0x400
 800324a:	d034      	beq.n	80032b6 <HAL_RCCEx_PeriphCLKConfig+0x17e>
    switch(PeriphClkInit->Sai4AClockSelection)
 800324c:	f8d4 30a4 	ldr.w	r3, [r4, #164]	; 0xa4
 8003250:	f5b3 0f80 	cmp.w	r3, #4194304	; 0x400000
 8003254:	d04d      	beq.n	80032f2 <HAL_RCCEx_PeriphCLKConfig+0x1ba>
 8003256:	d81f      	bhi.n	8003298 <HAL_RCCEx_PeriphCLKConfig+0x160>
 8003258:	2b00      	cmp	r3, #0
 800325a:	d044      	beq.n	80032e6 <HAL_RCCEx_PeriphCLKConfig+0x1ae>
 800325c:	f5b3 1f00 	cmp.w	r3, #2097152	; 0x200000
 8003260:	d117      	bne.n	8003292 <HAL_RCCEx_PeriphCLKConfig+0x15a>
      ret = RCCEx_PLL2_Config(&(PeriphClkInit->PLL2),DIVIDER_P_UPDATE);
 8003262:	2100      	movs	r1, #0
 8003264:	1d20      	adds	r0, r4, #4
 8003266:	f7ff fe5b 	bl	8002f20 <RCCEx_PLL2_Config>
 800326a:	4605      	mov	r5, r0
      break;
 800326c:	e01a      	b.n	80032a4 <HAL_RCCEx_PeriphCLKConfig+0x16c>
    switch(PeriphClkInit->Sai23ClockSelection)
 800326e:	2601      	movs	r6, #1
 8003270:	4635      	mov	r5, r6
 8003272:	e7e7      	b.n	8003244 <HAL_RCCEx_PeriphCLKConfig+0x10c>
      __HAL_RCC_PLLCLKOUT_ENABLE(RCC_PLL1_DIVQ);
 8003274:	4a56      	ldr	r2, [pc, #344]	; (80033d0 <HAL_RCCEx_PeriphCLKConfig+0x298>)
 8003276:	6ad3      	ldr	r3, [r2, #44]	; 0x2c
 8003278:	f443 3300 	orr.w	r3, r3, #131072	; 0x20000
 800327c:	62d3      	str	r3, [r2, #44]	; 0x2c
      break;
 800327e:	e7d9      	b.n	8003234 <HAL_RCCEx_PeriphCLKConfig+0xfc>
      ret = RCCEx_PLL3_Config(&(PeriphClkInit->PLL3),DIVIDER_P_UPDATE);
 8003280:	2100      	movs	r1, #0
 8003282:	f104 0024 	add.w	r0, r4, #36	; 0x24
 8003286:	f7ff fed1 	bl	800302c <RCCEx_PLL3_Config>
 800328a:	4605      	mov	r5, r0
      break;
 800328c:	e7d2      	b.n	8003234 <HAL_RCCEx_PeriphCLKConfig+0xfc>
 800328e:	462e      	mov	r6, r5
 8003290:	e7d8      	b.n	8003244 <HAL_RCCEx_PeriphCLKConfig+0x10c>
    switch(PeriphClkInit->Sai4AClockSelection)
 8003292:	2601      	movs	r6, #1
 8003294:	4635      	mov	r5, r6
 8003296:	e00e      	b.n	80032b6 <HAL_RCCEx_PeriphCLKConfig+0x17e>
 8003298:	f5b3 0fc0 	cmp.w	r3, #6291456	; 0x600000
 800329c:	d002      	beq.n	80032a4 <HAL_RCCEx_PeriphCLKConfig+0x16c>
 800329e:	f5b3 0f00 	cmp.w	r3, #8388608	; 0x800000
 80032a2:	d11d      	bne.n	80032e0 <HAL_RCCEx_PeriphCLKConfig+0x1a8>
    if(ret == HAL_OK)
 80032a4:	bb65      	cbnz	r5, 8003300 <HAL_RCCEx_PeriphCLKConfig+0x1c8>
      __HAL_RCC_SAI4A_CONFIG(PeriphClkInit->Sai4AClockSelection);
 80032a6:	4a4a      	ldr	r2, [pc, #296]	; (80033d0 <HAL_RCCEx_PeriphCLKConfig+0x298>)
 80032a8:	6d93      	ldr	r3, [r2, #88]	; 0x58
 80032aa:	f423 0360 	bic.w	r3, r3, #14680064	; 0xe00000
 80032ae:	f8d4 10a4 	ldr.w	r1, [r4, #164]	; 0xa4
 80032b2:	430b      	orrs	r3, r1
 80032b4:	6593      	str	r3, [r2, #88]	; 0x58
  if(((PeriphClkInit->PeriphClockSelection) & RCC_PERIPHCLK_SAI4B) == RCC_PERIPHCLK_SAI4B)
 80032b6:	6823      	ldr	r3, [r4, #0]
 80032b8:	f413 6f00 	tst.w	r3, #2048	; 0x800
 80032bc:	d035      	beq.n	800332a <HAL_RCCEx_PeriphCLKConfig+0x1f2>
    switch(PeriphClkInit->Sai4BClockSelection)
 80032be:	f8d4 30a8 	ldr.w	r3, [r4, #168]	; 0xa8
 80032c2:	f1b3 7f00 	cmp.w	r3, #33554432	; 0x2000000
 80032c6:	d053      	beq.n	8003370 <HAL_RCCEx_PeriphCLKConfig+0x238>
 80032c8:	d81f      	bhi.n	800330a <HAL_RCCEx_PeriphCLKConfig+0x1d2>
 80032ca:	2b00      	cmp	r3, #0
 80032cc:	d04a      	beq.n	8003364 <HAL_RCCEx_PeriphCLKConfig+0x22c>
 80032ce:	f1b3 7f80 	cmp.w	r3, #16777216	; 0x1000000
 80032d2:	d117      	bne.n	8003304 <HAL_RCCEx_PeriphCLKConfig+0x1cc>
      ret = RCCEx_PLL2_Config(&(PeriphClkInit->PLL2),DIVIDER_P_UPDATE);
 80032d4:	2100      	movs	r1, #0
 80032d6:	1d20      	adds	r0, r4, #4
 80032d8:	f7ff fe22 	bl	8002f20 <RCCEx_PLL2_Config>
 80032dc:	4605      	mov	r5, r0
      break;
 80032de:	e01a      	b.n	8003316 <HAL_RCCEx_PeriphCLKConfig+0x1de>
    switch(PeriphClkInit->Sai4AClockSelection)
 80032e0:	2601      	movs	r6, #1
 80032e2:	4635      	mov	r5, r6
 80032e4:	e7e7      	b.n	80032b6 <HAL_RCCEx_PeriphCLKConfig+0x17e>
      __HAL_RCC_PLLCLKOUT_ENABLE(RCC_PLL1_DIVQ);
 80032e6:	4a3a      	ldr	r2, [pc, #232]	; (80033d0 <HAL_RCCEx_PeriphCLKConfig+0x298>)
 80032e8:	6ad3      	ldr	r3, [r2, #44]	; 0x2c
 80032ea:	f443 3300 	orr.w	r3, r3, #131072	; 0x20000
 80032ee:	62d3      	str	r3, [r2, #44]	; 0x2c
      break;
 80032f0:	e7d8      	b.n	80032a4 <HAL_RCCEx_PeriphCLKConfig+0x16c>
      ret = RCCEx_PLL3_Config(&(PeriphClkInit->PLL3),DIVIDER_P_UPDATE);
 80032f2:	2100      	movs	r1, #0
 80032f4:	f104 0024 	add.w	r0, r4, #36	; 0x24
 80032f8:	f7ff fe98 	bl	800302c <RCCEx_PLL3_Config>
 80032fc:	4605      	mov	r5, r0
      break;
 80032fe:	e7d1      	b.n	80032a4 <HAL_RCCEx_PeriphCLKConfig+0x16c>
 8003300:	462e      	mov	r6, r5
 8003302:	e7d8      	b.n	80032b6 <HAL_RCCEx_PeriphCLKConfig+0x17e>
    switch(PeriphClkInit->Sai4BClockSelection)
 8003304:	2601      	movs	r6, #1
 8003306:	4635      	mov	r5, r6
 8003308:	e00f      	b.n	800332a <HAL_RCCEx_PeriphCLKConfig+0x1f2>
 800330a:	f1b3 7f40 	cmp.w	r3, #50331648	; 0x3000000
 800330e:	d002      	beq.n	8003316 <HAL_RCCEx_PeriphCLKConfig+0x1de>
 8003310:	f1b3 6f80 	cmp.w	r3, #67108864	; 0x4000000
 8003314:	d123      	bne.n	800335e <HAL_RCCEx_PeriphCLKConfig+0x226>
    if(ret == HAL_OK)
 8003316:	2d00      	cmp	r5, #0
 8003318:	d131      	bne.n	800337e <HAL_RCCEx_PeriphCLKConfig+0x246>
      __HAL_RCC_SAI4B_CONFIG(PeriphClkInit->Sai4BClockSelection);
 800331a:	4a2d      	ldr	r2, [pc, #180]	; (80033d0 <HAL_RCCEx_PeriphCLKConfig+0x298>)
 800331c:	6d93      	ldr	r3, [r2, #88]	; 0x58
 800331e:	f023 63e0 	bic.w	r3, r3, #117440512	; 0x7000000
 8003322:	f8d4 10a8 	ldr.w	r1, [r4, #168]	; 0xa8
 8003326:	430b      	orrs	r3, r1
 8003328:	6593      	str	r3, [r2, #88]	; 0x58
  if(((PeriphClkInit->PeriphClockSelection) & RCC_PERIPHCLK_QSPI) == RCC_PERIPHCLK_QSPI)
 800332a:	6823      	ldr	r3, [r4, #0]
 800332c:	f013 7f00 	tst.w	r3, #33554432	; 0x2000000
 8003330:	d02e      	beq.n	8003390 <HAL_RCCEx_PeriphCLKConfig+0x258>
    switch(PeriphClkInit->QspiClockSelection)
 8003332:	6ca3      	ldr	r3, [r4, #72]	; 0x48
 8003334:	2b20      	cmp	r3, #32
 8003336:	d03f      	beq.n	80033b8 <HAL_RCCEx_PeriphCLKConfig+0x280>
 8003338:	d826      	bhi.n	8003388 <HAL_RCCEx_PeriphCLKConfig+0x250>
 800333a:	b133      	cbz	r3, 800334a <HAL_RCCEx_PeriphCLKConfig+0x212>
 800333c:	2b10      	cmp	r3, #16
 800333e:	d120      	bne.n	8003382 <HAL_RCCEx_PeriphCLKConfig+0x24a>
      __HAL_RCC_PLLCLKOUT_ENABLE(RCC_PLL1_DIVQ);
 8003340:	4a23      	ldr	r2, [pc, #140]	; (80033d0 <HAL_RCCEx_PeriphCLKConfig+0x298>)
 8003342:	6ad3      	ldr	r3, [r2, #44]	; 0x2c
 8003344:	f443 3300 	orr.w	r3, r3, #131072	; 0x20000
 8003348:	62d3      	str	r3, [r2, #44]	; 0x2c
    if(ret == HAL_OK)
 800334a:	2d00      	cmp	r5, #0
 800334c:	d13a      	bne.n	80033c4 <HAL_RCCEx_PeriphCLKConfig+0x28c>
      __HAL_RCC_QSPI_CONFIG(PeriphClkInit->QspiClockSelection);
 800334e:	4a20      	ldr	r2, [pc, #128]	; (80033d0 <HAL_RCCEx_PeriphCLKConfig+0x298>)
 8003350:	6cd3      	ldr	r3, [r2, #76]	; 0x4c
 8003352:	f023 0330 	bic.w	r3, r3, #48	; 0x30
 8003356:	6ca1      	ldr	r1, [r4, #72]	; 0x48
 8003358:	430b      	orrs	r3, r1
 800335a:	64d3      	str	r3, [r2, #76]	; 0x4c
 800335c:	e018      	b.n	8003390 <HAL_RCCEx_PeriphCLKConfig+0x258>
    switch(PeriphClkInit->Sai4BClockSelection)
 800335e:	2601      	movs	r6, #1
 8003360:	4635      	mov	r5, r6
 8003362:	e7e2      	b.n	800332a <HAL_RCCEx_PeriphCLKConfig+0x1f2>
      __HAL_RCC_PLLCLKOUT_ENABLE(RCC_PLL1_DIVQ);
 8003364:	4a1a      	ldr	r2, [pc, #104]	; (80033d0 <HAL_RCCEx_PeriphCLKConfig+0x298>)
 8003366:	6ad3      	ldr	r3, [r2, #44]	; 0x2c
 8003368:	f443 3300 	orr.w	r3, r3, #131072	; 0x20000
 800336c:	62d3      	str	r3, [r2, #44]	; 0x2c
      break;
 800336e:	e7d2      	b.n	8003316 <HAL_RCCEx_PeriphCLKConfig+0x1de>
      ret = RCCEx_PLL3_Config(&(PeriphClkInit->PLL3), DIVIDER_P_UPDATE);
 8003370:	2100      	movs	r1, #0
 8003372:	f104 0024 	add.w	r0, r4, #36	; 0x24
 8003376:	f7ff fe59 	bl	800302c <RCCEx_PLL3_Config>
 800337a:	4605      	mov	r5, r0
      break;
 800337c:	e7cb      	b.n	8003316 <HAL_RCCEx_PeriphCLKConfig+0x1de>
 800337e:	462e      	mov	r6, r5
 8003380:	e7d3      	b.n	800332a <HAL_RCCEx_PeriphCLKConfig+0x1f2>
    switch(PeriphClkInit->QspiClockSelection)
 8003382:	2601      	movs	r6, #1
 8003384:	4635      	mov	r5, r6
 8003386:	e003      	b.n	8003390 <HAL_RCCEx_PeriphCLKConfig+0x258>
 8003388:	2b30      	cmp	r3, #48	; 0x30
 800338a:	d0de      	beq.n	800334a <HAL_RCCEx_PeriphCLKConfig+0x212>
 800338c:	2601      	movs	r6, #1
 800338e:	4635      	mov	r5, r6
  if(((PeriphClkInit->PeriphClockSelection) & RCC_PERIPHCLK_SPI123) == RCC_PERIPHCLK_SPI123)
 8003390:	6823      	ldr	r3, [r4, #0]
 8003392:	f413 5f80 	tst.w	r3, #4096	; 0x1000
 8003396:	d02c      	beq.n	80033f2 <HAL_RCCEx_PeriphCLKConfig+0x2ba>
    switch(PeriphClkInit->Spi123ClockSelection)
 8003398:	6de3      	ldr	r3, [r4, #92]	; 0x5c
 800339a:	f5b3 5f00 	cmp.w	r3, #8192	; 0x2000
 800339e:	d04d      	beq.n	800343c <HAL_RCCEx_PeriphCLKConfig+0x304>
 80033a0:	d818      	bhi.n	80033d4 <HAL_RCCEx_PeriphCLKConfig+0x29c>
 80033a2:	2b00      	cmp	r3, #0
 80033a4:	d044      	beq.n	8003430 <HAL_RCCEx_PeriphCLKConfig+0x2f8>
 80033a6:	f5b3 5f80 	cmp.w	r3, #4096	; 0x1000
 80033aa:	d10d      	bne.n	80033c8 <HAL_RCCEx_PeriphCLKConfig+0x290>
      ret = RCCEx_PLL2_Config(&(PeriphClkInit->PLL2),DIVIDER_P_UPDATE);
 80033ac:	2100      	movs	r1, #0
 80033ae:	1d20      	adds	r0, r4, #4
 80033b0:	f7ff fdb6 	bl	8002f20 <RCCEx_PLL2_Config>
 80033b4:	4605      	mov	r5, r0
      break;
 80033b6:	e013      	b.n	80033e0 <HAL_RCCEx_PeriphCLKConfig+0x2a8>
      ret = RCCEx_PLL2_Config(&(PeriphClkInit->PLL2),DIVIDER_R_UPDATE);
 80033b8:	2102      	movs	r1, #2
 80033ba:	1d20      	adds	r0, r4, #4
 80033bc:	f7ff fdb0 	bl	8002f20 <RCCEx_PLL2_Config>
 80033c0:	4605      	mov	r5, r0
      break;
 80033c2:	e7c2      	b.n	800334a <HAL_RCCEx_PeriphCLKConfig+0x212>
 80033c4:	462e      	mov	r6, r5
 80033c6:	e7e3      	b.n	8003390 <HAL_RCCEx_PeriphCLKConfig+0x258>
    switch(PeriphClkInit->Spi123ClockSelection)
 80033c8:	2601      	movs	r6, #1
 80033ca:	4635      	mov	r5, r6
 80033cc:	e011      	b.n	80033f2 <HAL_RCCEx_PeriphCLKConfig+0x2ba>
 80033ce:	bf00      	nop
 80033d0:	58024400 	.word	0x58024400
 80033d4:	f5b3 5f40 	cmp.w	r3, #12288	; 0x3000
 80033d8:	d002      	beq.n	80033e0 <HAL_RCCEx_PeriphCLKConfig+0x2a8>
 80033da:	f5b3 4f80 	cmp.w	r3, #16384	; 0x4000
 80033de:	d124      	bne.n	800342a <HAL_RCCEx_PeriphCLKConfig+0x2f2>
    if(ret == HAL_OK)
 80033e0:	2d00      	cmp	r5, #0
 80033e2:	d132      	bne.n	800344a <HAL_RCCEx_PeriphCLKConfig+0x312>
      __HAL_RCC_SPI123_CONFIG(PeriphClkInit->Spi123ClockSelection);
 80033e4:	4a98      	ldr	r2, [pc, #608]	; (8003648 <HAL_RCCEx_PeriphCLKConfig+0x510>)
 80033e6:	6d13      	ldr	r3, [r2, #80]	; 0x50
 80033e8:	f423 43e0 	bic.w	r3, r3, #28672	; 0x7000
 80033ec:	6de1      	ldr	r1, [r4, #92]	; 0x5c
 80033ee:	430b      	orrs	r3, r1
 80033f0:	6513      	str	r3, [r2, #80]	; 0x50
  if(((PeriphClkInit->PeriphClockSelection) & RCC_PERIPHCLK_SPI45) == RCC_PERIPHCLK_SPI45)
 80033f2:	6823      	ldr	r3, [r4, #0]
 80033f4:	f413 5f00 	tst.w	r3, #8192	; 0x2000
 80033f8:	d037      	beq.n	800346a <HAL_RCCEx_PeriphCLKConfig+0x332>
    switch(PeriphClkInit->Spi45ClockSelection)
 80033fa:	6e23      	ldr	r3, [r4, #96]	; 0x60
 80033fc:	f5b3 3f00 	cmp.w	r3, #131072	; 0x20000
 8003400:	d051      	beq.n	80034a6 <HAL_RCCEx_PeriphCLKConfig+0x36e>
 8003402:	d827      	bhi.n	8003454 <HAL_RCCEx_PeriphCLKConfig+0x31c>
 8003404:	b13b      	cbz	r3, 8003416 <HAL_RCCEx_PeriphCLKConfig+0x2de>
 8003406:	f5b3 3f80 	cmp.w	r3, #65536	; 0x10000
 800340a:	d120      	bne.n	800344e <HAL_RCCEx_PeriphCLKConfig+0x316>
      ret = RCCEx_PLL2_Config(&(PeriphClkInit->PLL2),DIVIDER_Q_UPDATE);
 800340c:	2101      	movs	r1, #1
 800340e:	1d20      	adds	r0, r4, #4
 8003410:	f7ff fd86 	bl	8002f20 <RCCEx_PLL2_Config>
 8003414:	4605      	mov	r5, r0
    if(ret == HAL_OK)
 8003416:	2d00      	cmp	r5, #0
 8003418:	d14c      	bne.n	80034b4 <HAL_RCCEx_PeriphCLKConfig+0x37c>
      __HAL_RCC_SPI45_CONFIG(PeriphClkInit->Spi45ClockSelection);
 800341a:	4a8b      	ldr	r2, [pc, #556]	; (8003648 <HAL_RCCEx_PeriphCLKConfig+0x510>)
 800341c:	6d13      	ldr	r3, [r2, #80]	; 0x50
 800341e:	f423 23e0 	bic.w	r3, r3, #458752	; 0x70000
 8003422:	6e21      	ldr	r1, [r4, #96]	; 0x60
 8003424:	430b      	orrs	r3, r1
 8003426:	6513      	str	r3, [r2, #80]	; 0x50
 8003428:	e01f      	b.n	800346a <HAL_RCCEx_PeriphCLKConfig+0x332>
    switch(PeriphClkInit->Spi123ClockSelection)
 800342a:	2601      	movs	r6, #1
 800342c:	4635      	mov	r5, r6
 800342e:	e7e0      	b.n	80033f2 <HAL_RCCEx_PeriphCLKConfig+0x2ba>
      __HAL_RCC_PLLCLKOUT_ENABLE(RCC_PLL1_DIVQ);
 8003430:	4a85      	ldr	r2, [pc, #532]	; (8003648 <HAL_RCCEx_PeriphCLKConfig+0x510>)
 8003432:	6ad3      	ldr	r3, [r2, #44]	; 0x2c
 8003434:	f443 3300 	orr.w	r3, r3, #131072	; 0x20000
 8003438:	62d3      	str	r3, [r2, #44]	; 0x2c
      break;
 800343a:	e7d1      	b.n	80033e0 <HAL_RCCEx_PeriphCLKConfig+0x2a8>
      ret = RCCEx_PLL3_Config(&(PeriphClkInit->PLL3),DIVIDER_P_UPDATE);
 800343c:	2100      	movs	r1, #0
 800343e:	f104 0024 	add.w	r0, r4, #36	; 0x24
 8003442:	f7ff fdf3 	bl	800302c <RCCEx_PLL3_Config>
 8003446:	4605      	mov	r5, r0
      break;
 8003448:	e7ca      	b.n	80033e0 <HAL_RCCEx_PeriphCLKConfig+0x2a8>
 800344a:	462e      	mov	r6, r5
 800344c:	e7d1      	b.n	80033f2 <HAL_RCCEx_PeriphCLKConfig+0x2ba>
    switch(PeriphClkInit->Spi45ClockSelection)
 800344e:	2601      	movs	r6, #1
 8003450:	4635      	mov	r5, r6
 8003452:	e00a      	b.n	800346a <HAL_RCCEx_PeriphCLKConfig+0x332>
 8003454:	f5b3 2f80 	cmp.w	r3, #262144	; 0x40000
 8003458:	d0dd      	beq.n	8003416 <HAL_RCCEx_PeriphCLKConfig+0x2de>
 800345a:	f5b3 2fa0 	cmp.w	r3, #327680	; 0x50000
 800345e:	d0da      	beq.n	8003416 <HAL_RCCEx_PeriphCLKConfig+0x2de>
 8003460:	f5b3 3f40 	cmp.w	r3, #196608	; 0x30000
 8003464:	d0d7      	beq.n	8003416 <HAL_RCCEx_PeriphCLKConfig+0x2de>
 8003466:	2601      	movs	r6, #1
 8003468:	4635      	mov	r5, r6
  if(((PeriphClkInit->PeriphClockSelection) & RCC_PERIPHCLK_SPI6) == RCC_PERIPHCLK_SPI6)
 800346a:	6823      	ldr	r3, [r4, #0]
 800346c:	f413 4f80 	tst.w	r3, #16384	; 0x4000
 8003470:	d030      	beq.n	80034d4 <HAL_RCCEx_PeriphCLKConfig+0x39c>
    switch(PeriphClkInit->Spi6ClockSelection)
 8003472:	f8d4 30ac 	ldr.w	r3, [r4, #172]	; 0xac
 8003476:	f1b3 5f00 	cmp.w	r3, #536870912	; 0x20000000
 800347a:	d044      	beq.n	8003506 <HAL_RCCEx_PeriphCLKConfig+0x3ce>
 800347c:	d81f      	bhi.n	80034be <HAL_RCCEx_PeriphCLKConfig+0x386>
 800347e:	b13b      	cbz	r3, 8003490 <HAL_RCCEx_PeriphCLKConfig+0x358>
 8003480:	f1b3 5f80 	cmp.w	r3, #268435456	; 0x10000000
 8003484:	d118      	bne.n	80034b8 <HAL_RCCEx_PeriphCLKConfig+0x380>
      ret = RCCEx_PLL2_Config(&(PeriphClkInit->PLL2),DIVIDER_Q_UPDATE);
 8003486:	2101      	movs	r1, #1
 8003488:	1d20      	adds	r0, r4, #4
 800348a:	f7ff fd49 	bl	8002f20 <RCCEx_PLL2_Config>
 800348e:	4605      	mov	r5, r0
    if(ret == HAL_OK)
 8003490:	2d00      	cmp	r5, #0
 8003492:	d13f      	bne.n	8003514 <HAL_RCCEx_PeriphCLKConfig+0x3dc>
      __HAL_RCC_SPI6_CONFIG(PeriphClkInit->Spi6ClockSelection);
 8003494:	4a6c      	ldr	r2, [pc, #432]	; (8003648 <HAL_RCCEx_PeriphCLKConfig+0x510>)
 8003496:	6d93      	ldr	r3, [r2, #88]	; 0x58
 8003498:	f023 43e0 	bic.w	r3, r3, #1879048192	; 0x70000000
 800349c:	f8d4 10ac 	ldr.w	r1, [r4, #172]	; 0xac
 80034a0:	430b      	orrs	r3, r1
 80034a2:	6593      	str	r3, [r2, #88]	; 0x58
 80034a4:	e016      	b.n	80034d4 <HAL_RCCEx_PeriphCLKConfig+0x39c>
      ret = RCCEx_PLL3_Config(&(PeriphClkInit->PLL3),DIVIDER_Q_UPDATE);
 80034a6:	2101      	movs	r1, #1
 80034a8:	f104 0024 	add.w	r0, r4, #36	; 0x24
 80034ac:	f7ff fdbe 	bl	800302c <RCCEx_PLL3_Config>
 80034b0:	4605      	mov	r5, r0
      break;
 80034b2:	e7b0      	b.n	8003416 <HAL_RCCEx_PeriphCLKConfig+0x2de>
 80034b4:	462e      	mov	r6, r5
 80034b6:	e7d8      	b.n	800346a <HAL_RCCEx_PeriphCLKConfig+0x332>
    switch(PeriphClkInit->Spi6ClockSelection)
 80034b8:	2601      	movs	r6, #1
 80034ba:	4635      	mov	r5, r6
 80034bc:	e00a      	b.n	80034d4 <HAL_RCCEx_PeriphCLKConfig+0x39c>
 80034be:	f1b3 4f80 	cmp.w	r3, #1073741824	; 0x40000000
 80034c2:	d0e5      	beq.n	8003490 <HAL_RCCEx_PeriphCLKConfig+0x358>
 80034c4:	f1b3 4fa0 	cmp.w	r3, #1342177280	; 0x50000000
 80034c8:	d0e2      	beq.n	8003490 <HAL_RCCEx_PeriphCLKConfig+0x358>
 80034ca:	f1b3 5f40 	cmp.w	r3, #805306368	; 0x30000000
 80034ce:	d0df      	beq.n	8003490 <HAL_RCCEx_PeriphCLKConfig+0x358>
 80034d0:	2601      	movs	r6, #1
 80034d2:	4635      	mov	r5, r6
  if(((PeriphClkInit->PeriphClockSelection) & RCC_PERIPHCLK_FDCAN) == RCC_PERIPHCLK_FDCAN)
 80034d4:	6823      	ldr	r3, [r4, #0]
 80034d6:	f413 4f00 	tst.w	r3, #32768	; 0x8000
 80034da:	d009      	beq.n	80034f0 <HAL_RCCEx_PeriphCLKConfig+0x3b8>
    switch(PeriphClkInit->FdcanClockSelection)
 80034dc:	6ee3      	ldr	r3, [r4, #108]	; 0x6c
 80034de:	f1b3 5f80 	cmp.w	r3, #268435456	; 0x10000000
 80034e2:	d019      	beq.n	8003518 <HAL_RCCEx_PeriphCLKConfig+0x3e0>
 80034e4:	f1b3 5f00 	cmp.w	r3, #536870912	; 0x20000000
 80034e8:	d024      	beq.n	8003534 <HAL_RCCEx_PeriphCLKConfig+0x3fc>
 80034ea:	b1d3      	cbz	r3, 8003522 <HAL_RCCEx_PeriphCLKConfig+0x3ea>
 80034ec:	2601      	movs	r6, #1
 80034ee:	4635      	mov	r5, r6
  if(((PeriphClkInit->PeriphClockSelection) & RCC_PERIPHCLK_FMC) == RCC_PERIPHCLK_FMC)
 80034f0:	6823      	ldr	r3, [r4, #0]
 80034f2:	f013 7f80 	tst.w	r3, #16777216	; 0x1000000
 80034f6:	d03d      	beq.n	8003574 <HAL_RCCEx_PeriphCLKConfig+0x43c>
    switch(PeriphClkInit->FmcClockSelection)
 80034f8:	6c63      	ldr	r3, [r4, #68]	; 0x44
 80034fa:	2b03      	cmp	r3, #3
 80034fc:	d836      	bhi.n	800356c <HAL_RCCEx_PeriphCLKConfig+0x434>
 80034fe:	e8df f003 	tbb	[pc, r3]
 8003502:	2126      	.short	0x2126
 8003504:	262f      	.short	0x262f
      ret = RCCEx_PLL3_Config(&(PeriphClkInit->PLL3),DIVIDER_Q_UPDATE);
 8003506:	2101      	movs	r1, #1
 8003508:	f104 0024 	add.w	r0, r4, #36	; 0x24
 800350c:	f7ff fd8e 	bl	800302c <RCCEx_PLL3_Config>
 8003510:	4605      	mov	r5, r0
      break;
 8003512:	e7bd      	b.n	8003490 <HAL_RCCEx_PeriphCLKConfig+0x358>
 8003514:	462e      	mov	r6, r5
 8003516:	e7dd      	b.n	80034d4 <HAL_RCCEx_PeriphCLKConfig+0x39c>
      __HAL_RCC_PLLCLKOUT_ENABLE(RCC_PLL1_DIVQ);
 8003518:	4a4b      	ldr	r2, [pc, #300]	; (8003648 <HAL_RCCEx_PeriphCLKConfig+0x510>)
 800351a:	6ad3      	ldr	r3, [r2, #44]	; 0x2c
 800351c:	f443 3300 	orr.w	r3, r3, #131072	; 0x20000
 8003520:	62d3      	str	r3, [r2, #44]	; 0x2c
    if(ret == HAL_OK)
 8003522:	b96d      	cbnz	r5, 8003540 <HAL_RCCEx_PeriphCLKConfig+0x408>
      __HAL_RCC_FDCAN_CONFIG(PeriphClkInit->FdcanClockSelection);
 8003524:	4a48      	ldr	r2, [pc, #288]	; (8003648 <HAL_RCCEx_PeriphCLKConfig+0x510>)
 8003526:	6d13      	ldr	r3, [r2, #80]	; 0x50
 8003528:	f023 5340 	bic.w	r3, r3, #805306368	; 0x30000000
 800352c:	6ee1      	ldr	r1, [r4, #108]	; 0x6c
 800352e:	430b      	orrs	r3, r1
 8003530:	6513      	str	r3, [r2, #80]	; 0x50
 8003532:	e7dd      	b.n	80034f0 <HAL_RCCEx_PeriphCLKConfig+0x3b8>
      ret = RCCEx_PLL2_Config(&(PeriphClkInit->PLL2),DIVIDER_Q_UPDATE);
 8003534:	2101      	movs	r1, #1
 8003536:	1d20      	adds	r0, r4, #4
 8003538:	f7ff fcf2 	bl	8002f20 <RCCEx_PLL2_Config>
 800353c:	4605      	mov	r5, r0
      break;
 800353e:	e7f0      	b.n	8003522 <HAL_RCCEx_PeriphCLKConfig+0x3ea>
 8003540:	462e      	mov	r6, r5
 8003542:	e7d5      	b.n	80034f0 <HAL_RCCEx_PeriphCLKConfig+0x3b8>
      __HAL_RCC_PLLCLKOUT_ENABLE(RCC_PLL1_DIVQ);
 8003544:	4a40      	ldr	r2, [pc, #256]	; (8003648 <HAL_RCCEx_PeriphCLKConfig+0x510>)
 8003546:	6ad3      	ldr	r3, [r2, #44]	; 0x2c
 8003548:	f443 3300 	orr.w	r3, r3, #131072	; 0x20000
 800354c:	62d3      	str	r3, [r2, #44]	; 0x2c
    if(ret == HAL_OK)
 800354e:	b985      	cbnz	r5, 8003572 <HAL_RCCEx_PeriphCLKConfig+0x43a>
      __HAL_RCC_FMC_CONFIG(PeriphClkInit->FmcClockSelection);
 8003550:	4a3d      	ldr	r2, [pc, #244]	; (8003648 <HAL_RCCEx_PeriphCLKConfig+0x510>)
 8003552:	6cd3      	ldr	r3, [r2, #76]	; 0x4c
 8003554:	f023 0303 	bic.w	r3, r3, #3
 8003558:	6c61      	ldr	r1, [r4, #68]	; 0x44
 800355a:	430b      	orrs	r3, r1
 800355c:	64d3      	str	r3, [r2, #76]	; 0x4c
 800355e:	e009      	b.n	8003574 <HAL_RCCEx_PeriphCLKConfig+0x43c>
      ret = RCCEx_PLL2_Config(&(PeriphClkInit->PLL2),DIVIDER_R_UPDATE);
 8003560:	2102      	movs	r1, #2
 8003562:	1d20      	adds	r0, r4, #4
 8003564:	f7ff fcdc 	bl	8002f20 <RCCEx_PLL2_Config>
 8003568:	4605      	mov	r5, r0
      break;
 800356a:	e7f0      	b.n	800354e <HAL_RCCEx_PeriphCLKConfig+0x416>
    switch(PeriphClkInit->FmcClockSelection)
 800356c:	2601      	movs	r6, #1
 800356e:	4635      	mov	r5, r6
 8003570:	e000      	b.n	8003574 <HAL_RCCEx_PeriphCLKConfig+0x43c>
 8003572:	462e      	mov	r6, r5
  if(((PeriphClkInit->PeriphClockSelection) & RCC_PERIPHCLK_RTC) == RCC_PERIPHCLK_RTC)
 8003574:	6823      	ldr	r3, [r4, #0]
 8003576:	f413 0f80 	tst.w	r3, #4194304	; 0x400000
 800357a:	d11f      	bne.n	80035bc <HAL_RCCEx_PeriphCLKConfig+0x484>
  if(((PeriphClkInit->PeriphClockSelection) & RCC_PERIPHCLK_USART16) == RCC_PERIPHCLK_USART16)
 800357c:	6823      	ldr	r3, [r4, #0]
 800357e:	f013 0f01 	tst.w	r3, #1
 8003582:	f000 809b 	beq.w	80036bc <HAL_RCCEx_PeriphCLKConfig+0x584>
    switch(PeriphClkInit->Usart16ClockSelection)
 8003586:	6fa3      	ldr	r3, [r4, #120]	; 0x78
 8003588:	2b28      	cmp	r3, #40	; 0x28
 800358a:	f200 8095 	bhi.w	80036b8 <HAL_RCCEx_PeriphCLKConfig+0x580>
 800358e:	e8df f003 	tbb	[pc, r3]
 8003592:	9383      	.short	0x9383
 8003594:	93939393 	.word	0x93939393
 8003598:	937e9393 	.word	0x937e9393
 800359c:	93939393 	.word	0x93939393
 80035a0:	938c9393 	.word	0x938c9393
 80035a4:	93939393 	.word	0x93939393
 80035a8:	93839393 	.word	0x93839393
 80035ac:	93939393 	.word	0x93939393
 80035b0:	93839393 	.word	0x93839393
 80035b4:	93939393 	.word	0x93939393
 80035b8:	9393      	.short	0x9393
 80035ba:	83          	.byte	0x83
 80035bb:	00          	.byte	0x00
    SET_BIT(PWR->CR1, PWR_CR1_DBP);
 80035bc:	4a23      	ldr	r2, [pc, #140]	; (800364c <HAL_RCCEx_PeriphCLKConfig+0x514>)
 80035be:	6813      	ldr	r3, [r2, #0]
 80035c0:	f443 7380 	orr.w	r3, r3, #256	; 0x100
 80035c4:	6013      	str	r3, [r2, #0]
    tickstart = HAL_GetTick();
 80035c6:	f7fd f891 	bl	80006ec <HAL_GetTick>
 80035ca:	4607      	mov	r7, r0
    while((PWR->CR1 & PWR_CR1_DBP) == 0U)
 80035cc:	4b1f      	ldr	r3, [pc, #124]	; (800364c <HAL_RCCEx_PeriphCLKConfig+0x514>)
 80035ce:	681b      	ldr	r3, [r3, #0]
 80035d0:	f413 7f80 	tst.w	r3, #256	; 0x100
 80035d4:	d105      	bne.n	80035e2 <HAL_RCCEx_PeriphCLKConfig+0x4aa>
      if((HAL_GetTick() - tickstart) > RCC_DBP_TIMEOUT_VALUE)
 80035d6:	f7fd f889 	bl	80006ec <HAL_GetTick>
 80035da:	1bc0      	subs	r0, r0, r7
 80035dc:	2864      	cmp	r0, #100	; 0x64
 80035de:	d9f5      	bls.n	80035cc <HAL_RCCEx_PeriphCLKConfig+0x494>
        ret = HAL_TIMEOUT;
 80035e0:	2503      	movs	r5, #3
    if(ret == HAL_OK)
 80035e2:	2d00      	cmp	r5, #0
 80035e4:	d14f      	bne.n	8003686 <HAL_RCCEx_PeriphCLKConfig+0x54e>
      if((RCC->BDCR & RCC_BDCR_RTCSEL) != (PeriphClkInit->RTCClockSelection & RCC_BDCR_RTCSEL))
 80035e6:	4b18      	ldr	r3, [pc, #96]	; (8003648 <HAL_RCCEx_PeriphCLKConfig+0x510>)
 80035e8:	6f1b      	ldr	r3, [r3, #112]	; 0x70
 80035ea:	f8d4 20b0 	ldr.w	r2, [r4, #176]	; 0xb0
 80035ee:	4053      	eors	r3, r2
 80035f0:	f413 7f40 	tst.w	r3, #768	; 0x300
 80035f4:	d00c      	beq.n	8003610 <HAL_RCCEx_PeriphCLKConfig+0x4d8>
        tmpreg = (RCC->BDCR & ~(RCC_BDCR_RTCSEL));
 80035f6:	4b14      	ldr	r3, [pc, #80]	; (8003648 <HAL_RCCEx_PeriphCLKConfig+0x510>)
 80035f8:	6f1a      	ldr	r2, [r3, #112]	; 0x70
 80035fa:	f422 7240 	bic.w	r2, r2, #768	; 0x300
        __HAL_RCC_BACKUPRESET_FORCE();
 80035fe:	6f19      	ldr	r1, [r3, #112]	; 0x70
 8003600:	f441 3180 	orr.w	r1, r1, #65536	; 0x10000
 8003604:	6719      	str	r1, [r3, #112]	; 0x70
        __HAL_RCC_BACKUPRESET_RELEASE();
 8003606:	6f19      	ldr	r1, [r3, #112]	; 0x70
 8003608:	f421 3180 	bic.w	r1, r1, #65536	; 0x10000
 800360c:	6719      	str	r1, [r3, #112]	; 0x70
        RCC->BDCR = tmpreg;
 800360e:	671a      	str	r2, [r3, #112]	; 0x70
      if(PeriphClkInit->RTCClockSelection == RCC_RTCCLKSOURCE_LSE)
 8003610:	f8d4 30b0 	ldr.w	r3, [r4, #176]	; 0xb0
 8003614:	f5b3 7f80 	cmp.w	r3, #256	; 0x100
 8003618:	d01a      	beq.n	8003650 <HAL_RCCEx_PeriphCLKConfig+0x518>
      if(ret == HAL_OK)
 800361a:	2d00      	cmp	r5, #0
 800361c:	d135      	bne.n	800368a <HAL_RCCEx_PeriphCLKConfig+0x552>
        __HAL_RCC_RTC_CONFIG(PeriphClkInit->RTCClockSelection);
 800361e:	f8d4 30b0 	ldr.w	r3, [r4, #176]	; 0xb0
 8003622:	f403 7240 	and.w	r2, r3, #768	; 0x300
 8003626:	f5b2 7f40 	cmp.w	r2, #768	; 0x300
 800362a:	d022      	beq.n	8003672 <HAL_RCCEx_PeriphCLKConfig+0x53a>
 800362c:	4a06      	ldr	r2, [pc, #24]	; (8003648 <HAL_RCCEx_PeriphCLKConfig+0x510>)
 800362e:	6913      	ldr	r3, [r2, #16]
 8003630:	f423 537c 	bic.w	r3, r3, #16128	; 0x3f00
 8003634:	6113      	str	r3, [r2, #16]
 8003636:	4904      	ldr	r1, [pc, #16]	; (8003648 <HAL_RCCEx_PeriphCLKConfig+0x510>)
 8003638:	6f0b      	ldr	r3, [r1, #112]	; 0x70
 800363a:	f8d4 20b0 	ldr.w	r2, [r4, #176]	; 0xb0
 800363e:	f3c2 020b 	ubfx	r2, r2, #0, #12
 8003642:	4313      	orrs	r3, r2
 8003644:	670b      	str	r3, [r1, #112]	; 0x70
 8003646:	e799      	b.n	800357c <HAL_RCCEx_PeriphCLKConfig+0x444>
 8003648:	58024400 	.word	0x58024400
 800364c:	58024800 	.word	0x58024800
        tickstart = HAL_GetTick();
 8003650:	f7fd f84c 	bl	80006ec <HAL_GetTick>
 8003654:	4607      	mov	r7, r0
        while(__HAL_RCC_GET_FLAG(RCC_FLAG_LSERDY) == 0U)
 8003656:	4b87      	ldr	r3, [pc, #540]	; (8003874 <HAL_RCCEx_PeriphCLKConfig+0x73c>)
 8003658:	6f1b      	ldr	r3, [r3, #112]	; 0x70
 800365a:	f013 0f02 	tst.w	r3, #2
 800365e:	d1dc      	bne.n	800361a <HAL_RCCEx_PeriphCLKConfig+0x4e2>
          if((HAL_GetTick() - tickstart) > RCC_LSE_TIMEOUT_VALUE)
 8003660:	f7fd f844 	bl	80006ec <HAL_GetTick>
 8003664:	1bc0      	subs	r0, r0, r7
 8003666:	f241 3388 	movw	r3, #5000	; 0x1388
 800366a:	4298      	cmp	r0, r3
 800366c:	d9f3      	bls.n	8003656 <HAL_RCCEx_PeriphCLKConfig+0x51e>
            ret = HAL_TIMEOUT;
 800366e:	2503      	movs	r5, #3
 8003670:	e7d3      	b.n	800361a <HAL_RCCEx_PeriphCLKConfig+0x4e2>
        __HAL_RCC_RTC_CONFIG(PeriphClkInit->RTCClockSelection);
 8003672:	4880      	ldr	r0, [pc, #512]	; (8003874 <HAL_RCCEx_PeriphCLKConfig+0x73c>)
 8003674:	6902      	ldr	r2, [r0, #16]
 8003676:	f422 527c 	bic.w	r2, r2, #16128	; 0x3f00
 800367a:	497f      	ldr	r1, [pc, #508]	; (8003878 <HAL_RCCEx_PeriphCLKConfig+0x740>)
 800367c:	ea01 1313 	and.w	r3, r1, r3, lsr #4
 8003680:	4313      	orrs	r3, r2
 8003682:	6103      	str	r3, [r0, #16]
 8003684:	e7d7      	b.n	8003636 <HAL_RCCEx_PeriphCLKConfig+0x4fe>
      status = ret;
 8003686:	462e      	mov	r6, r5
 8003688:	e778      	b.n	800357c <HAL_RCCEx_PeriphCLKConfig+0x444>
        status = ret;
 800368a:	462e      	mov	r6, r5
 800368c:	e776      	b.n	800357c <HAL_RCCEx_PeriphCLKConfig+0x444>
      ret = RCCEx_PLL2_Config(&(PeriphClkInit->PLL2),DIVIDER_Q_UPDATE);
 800368e:	2101      	movs	r1, #1
 8003690:	1d20      	adds	r0, r4, #4
 8003692:	f7ff fc45 	bl	8002f20 <RCCEx_PLL2_Config>
 8003696:	4605      	mov	r5, r0
    if(ret == HAL_OK)
 8003698:	b9e5      	cbnz	r5, 80036d4 <HAL_RCCEx_PeriphCLKConfig+0x59c>
      __HAL_RCC_USART16_CONFIG(PeriphClkInit->Usart16ClockSelection);
 800369a:	4a76      	ldr	r2, [pc, #472]	; (8003874 <HAL_RCCEx_PeriphCLKConfig+0x73c>)
 800369c:	6d53      	ldr	r3, [r2, #84]	; 0x54
 800369e:	f023 0338 	bic.w	r3, r3, #56	; 0x38
 80036a2:	6fa1      	ldr	r1, [r4, #120]	; 0x78
 80036a4:	430b      	orrs	r3, r1
 80036a6:	6553      	str	r3, [r2, #84]	; 0x54
 80036a8:	e008      	b.n	80036bc <HAL_RCCEx_PeriphCLKConfig+0x584>
      ret = RCCEx_PLL3_Config(&(PeriphClkInit->PLL3),DIVIDER_Q_UPDATE);
 80036aa:	2101      	movs	r1, #1
 80036ac:	f104 0024 	add.w	r0, r4, #36	; 0x24
 80036b0:	f7ff fcbc 	bl	800302c <RCCEx_PLL3_Config>
 80036b4:	4605      	mov	r5, r0
      break;
 80036b6:	e7ef      	b.n	8003698 <HAL_RCCEx_PeriphCLKConfig+0x560>
    switch(PeriphClkInit->Usart16ClockSelection)
 80036b8:	2601      	movs	r6, #1
 80036ba:	4635      	mov	r5, r6
  if(((PeriphClkInit->PeriphClockSelection) & RCC_PERIPHCLK_USART234578) == RCC_PERIPHCLK_USART234578)
 80036bc:	6823      	ldr	r3, [r4, #0]
 80036be:	f013 0f02 	tst.w	r3, #2
 80036c2:	d022      	beq.n	800370a <HAL_RCCEx_PeriphCLKConfig+0x5d2>
    switch(PeriphClkInit->Usart234578ClockSelection)
 80036c4:	6f63      	ldr	r3, [r4, #116]	; 0x74
 80036c6:	2b05      	cmp	r3, #5
 80036c8:	d81b      	bhi.n	8003702 <HAL_RCCEx_PeriphCLKConfig+0x5ca>
 80036ca:	e8df f003 	tbb	[pc, r3]
 80036ce:	050a      	.short	0x050a
 80036d0:	0a0a0a13 	.word	0x0a0a0a13
 80036d4:	462e      	mov	r6, r5
 80036d6:	e7f1      	b.n	80036bc <HAL_RCCEx_PeriphCLKConfig+0x584>
      ret = RCCEx_PLL2_Config(&(PeriphClkInit->PLL2),DIVIDER_Q_UPDATE);
 80036d8:	2101      	movs	r1, #1
 80036da:	1d20      	adds	r0, r4, #4
 80036dc:	f7ff fc20 	bl	8002f20 <RCCEx_PLL2_Config>
 80036e0:	4605      	mov	r5, r0
    if(ret == HAL_OK)
 80036e2:	b98d      	cbnz	r5, 8003708 <HAL_RCCEx_PeriphCLKConfig+0x5d0>
      __HAL_RCC_USART234578_CONFIG(PeriphClkInit->Usart234578ClockSelection);
 80036e4:	4a63      	ldr	r2, [pc, #396]	; (8003874 <HAL_RCCEx_PeriphCLKConfig+0x73c>)
 80036e6:	6d53      	ldr	r3, [r2, #84]	; 0x54
 80036e8:	f023 0307 	bic.w	r3, r3, #7
 80036ec:	6f61      	ldr	r1, [r4, #116]	; 0x74
 80036ee:	430b      	orrs	r3, r1
 80036f0:	6553      	str	r3, [r2, #84]	; 0x54
 80036f2:	e00a      	b.n	800370a <HAL_RCCEx_PeriphCLKConfig+0x5d2>
      ret = RCCEx_PLL3_Config(&(PeriphClkInit->PLL3),DIVIDER_Q_UPDATE);
 80036f4:	2101      	movs	r1, #1
 80036f6:	f104 0024 	add.w	r0, r4, #36	; 0x24
 80036fa:	f7ff fc97 	bl	800302c <RCCEx_PLL3_Config>
 80036fe:	4605      	mov	r5, r0
      break;
 8003700:	e7ef      	b.n	80036e2 <HAL_RCCEx_PeriphCLKConfig+0x5aa>
    switch(PeriphClkInit->Usart234578ClockSelection)
 8003702:	2601      	movs	r6, #1
 8003704:	4635      	mov	r5, r6
 8003706:	e000      	b.n	800370a <HAL_RCCEx_PeriphCLKConfig+0x5d2>
 8003708:	462e      	mov	r6, r5
  if(((PeriphClkInit->PeriphClockSelection) & RCC_PERIPHCLK_LPUART1) == RCC_PERIPHCLK_LPUART1)
 800370a:	6823      	ldr	r3, [r4, #0]
 800370c:	f013 0f04 	tst.w	r3, #4
 8003710:	d022      	beq.n	8003758 <HAL_RCCEx_PeriphCLKConfig+0x620>
    switch(PeriphClkInit->Lpuart1ClockSelection)
 8003712:	f8d4 3090 	ldr.w	r3, [r4, #144]	; 0x90
 8003716:	2b05      	cmp	r3, #5
 8003718:	d81a      	bhi.n	8003750 <HAL_RCCEx_PeriphCLKConfig+0x618>
 800371a:	e8df f003 	tbb	[pc, r3]
 800371e:	0308      	.short	0x0308
 8003720:	08080812 	.word	0x08080812
      ret = RCCEx_PLL2_Config(&(PeriphClkInit->PLL2),DIVIDER_Q_UPDATE);
 8003724:	2101      	movs	r1, #1
 8003726:	1d20      	adds	r0, r4, #4
 8003728:	f7ff fbfa 	bl	8002f20 <RCCEx_PLL2_Config>
 800372c:	4605      	mov	r5, r0
    if(ret == HAL_OK)
 800372e:	b995      	cbnz	r5, 8003756 <HAL_RCCEx_PeriphCLKConfig+0x61e>
      __HAL_RCC_LPUART1_CONFIG(PeriphClkInit->Lpuart1ClockSelection);
 8003730:	4a50      	ldr	r2, [pc, #320]	; (8003874 <HAL_RCCEx_PeriphCLKConfig+0x73c>)
 8003732:	6d93      	ldr	r3, [r2, #88]	; 0x58
 8003734:	f023 0307 	bic.w	r3, r3, #7
 8003738:	f8d4 1090 	ldr.w	r1, [r4, #144]	; 0x90
 800373c:	430b      	orrs	r3, r1
 800373e:	6593      	str	r3, [r2, #88]	; 0x58
 8003740:	e00a      	b.n	8003758 <HAL_RCCEx_PeriphCLKConfig+0x620>
      ret = RCCEx_PLL3_Config(&(PeriphClkInit->PLL3),DIVIDER_Q_UPDATE);
 8003742:	2101      	movs	r1, #1
 8003744:	f104 0024 	add.w	r0, r4, #36	; 0x24
 8003748:	f7ff fc70 	bl	800302c <RCCEx_PLL3_Config>
 800374c:	4605      	mov	r5, r0
      break;
 800374e:	e7ee      	b.n	800372e <HAL_RCCEx_PeriphCLKConfig+0x5f6>
    switch(PeriphClkInit->Lpuart1ClockSelection)
 8003750:	2601      	movs	r6, #1
 8003752:	4635      	mov	r5, r6
 8003754:	e000      	b.n	8003758 <HAL_RCCEx_PeriphCLKConfig+0x620>
 8003756:	462e      	mov	r6, r5
  if(((PeriphClkInit->PeriphClockSelection) & RCC_PERIPHCLK_LPTIM1) == RCC_PERIPHCLK_LPTIM1)
 8003758:	6823      	ldr	r3, [r4, #0]
 800375a:	f013 0f20 	tst.w	r3, #32
 800375e:	d027      	beq.n	80037b0 <HAL_RCCEx_PeriphCLKConfig+0x678>
    switch(PeriphClkInit->Lptim1ClockSelection)
 8003760:	f8d4 308c 	ldr.w	r3, [r4, #140]	; 0x8c
 8003764:	f1b3 5f00 	cmp.w	r3, #536870912	; 0x20000000
 8003768:	d040      	beq.n	80037ec <HAL_RCCEx_PeriphCLKConfig+0x6b4>
 800376a:	d816      	bhi.n	800379a <HAL_RCCEx_PeriphCLKConfig+0x662>
 800376c:	b13b      	cbz	r3, 800377e <HAL_RCCEx_PeriphCLKConfig+0x646>
 800376e:	f1b3 5f80 	cmp.w	r3, #268435456	; 0x10000000
 8003772:	d10f      	bne.n	8003794 <HAL_RCCEx_PeriphCLKConfig+0x65c>
      ret = RCCEx_PLL2_Config(&(PeriphClkInit->PLL2),DIVIDER_P_UPDATE);
 8003774:	2100      	movs	r1, #0
 8003776:	1d20      	adds	r0, r4, #4
 8003778:	f7ff fbd2 	bl	8002f20 <RCCEx_PLL2_Config>
 800377c:	4605      	mov	r5, r0
    if(ret == HAL_OK)
 800377e:	2d00      	cmp	r5, #0
 8003780:	d13b      	bne.n	80037fa <HAL_RCCEx_PeriphCLKConfig+0x6c2>
      __HAL_RCC_LPTIM1_CONFIG(PeriphClkInit->Lptim1ClockSelection);
 8003782:	4a3c      	ldr	r2, [pc, #240]	; (8003874 <HAL_RCCEx_PeriphCLKConfig+0x73c>)
 8003784:	6d53      	ldr	r3, [r2, #84]	; 0x54
 8003786:	f023 43e0 	bic.w	r3, r3, #1879048192	; 0x70000000
 800378a:	f8d4 108c 	ldr.w	r1, [r4, #140]	; 0x8c
 800378e:	430b      	orrs	r3, r1
 8003790:	6553      	str	r3, [r2, #84]	; 0x54
 8003792:	e00d      	b.n	80037b0 <HAL_RCCEx_PeriphCLKConfig+0x678>
    switch(PeriphClkInit->Lptim1ClockSelection)
 8003794:	2601      	movs	r6, #1
 8003796:	4635      	mov	r5, r6
 8003798:	e00a      	b.n	80037b0 <HAL_RCCEx_PeriphCLKConfig+0x678>
 800379a:	f1b3 4f80 	cmp.w	r3, #1073741824	; 0x40000000
 800379e:	d0ee      	beq.n	800377e <HAL_RCCEx_PeriphCLKConfig+0x646>
 80037a0:	f1b3 4fa0 	cmp.w	r3, #1342177280	; 0x50000000
 80037a4:	d0eb      	beq.n	800377e <HAL_RCCEx_PeriphCLKConfig+0x646>
 80037a6:	f1b3 5f40 	cmp.w	r3, #805306368	; 0x30000000
 80037aa:	d0e8      	beq.n	800377e <HAL_RCCEx_PeriphCLKConfig+0x646>
 80037ac:	2601      	movs	r6, #1
 80037ae:	4635      	mov	r5, r6
  if(((PeriphClkInit->PeriphClockSelection) & RCC_PERIPHCLK_LPTIM2) == RCC_PERIPHCLK_LPTIM2)
 80037b0:	6823      	ldr	r3, [r4, #0]
 80037b2:	f013 0f40 	tst.w	r3, #64	; 0x40
 80037b6:	d030      	beq.n	800381a <HAL_RCCEx_PeriphCLKConfig+0x6e2>
    switch(PeriphClkInit->Lptim2ClockSelection)
 80037b8:	f8d4 3098 	ldr.w	r3, [r4, #152]	; 0x98
 80037bc:	f5b3 6f00 	cmp.w	r3, #2048	; 0x800
 80037c0:	d04b      	beq.n	800385a <HAL_RCCEx_PeriphCLKConfig+0x722>
 80037c2:	d81f      	bhi.n	8003804 <HAL_RCCEx_PeriphCLKConfig+0x6cc>
 80037c4:	b13b      	cbz	r3, 80037d6 <HAL_RCCEx_PeriphCLKConfig+0x69e>
 80037c6:	f5b3 6f80 	cmp.w	r3, #1024	; 0x400
 80037ca:	d118      	bne.n	80037fe <HAL_RCCEx_PeriphCLKConfig+0x6c6>
      ret = RCCEx_PLL2_Config(&(PeriphClkInit->PLL2),DIVIDER_P_UPDATE);
 80037cc:	2100      	movs	r1, #0
 80037ce:	1d20      	adds	r0, r4, #4
 80037d0:	f7ff fba6 	bl	8002f20 <RCCEx_PLL2_Config>
 80037d4:	4605      	mov	r5, r0
    if(ret == HAL_OK)
 80037d6:	2d00      	cmp	r5, #0
 80037d8:	d146      	bne.n	8003868 <HAL_RCCEx_PeriphCLKConfig+0x730>
      __HAL_RCC_LPTIM2_CONFIG(PeriphClkInit->Lptim2ClockSelection);
 80037da:	4a26      	ldr	r2, [pc, #152]	; (8003874 <HAL_RCCEx_PeriphCLKConfig+0x73c>)
 80037dc:	6d93      	ldr	r3, [r2, #88]	; 0x58
 80037de:	f423 53e0 	bic.w	r3, r3, #7168	; 0x1c00
 80037e2:	f8d4 1098 	ldr.w	r1, [r4, #152]	; 0x98
 80037e6:	430b      	orrs	r3, r1
 80037e8:	6593      	str	r3, [r2, #88]	; 0x58
 80037ea:	e016      	b.n	800381a <HAL_RCCEx_PeriphCLKConfig+0x6e2>
      ret = RCCEx_PLL3_Config(&(PeriphClkInit->PLL3),DIVIDER_R_UPDATE);
 80037ec:	2102      	movs	r1, #2
 80037ee:	f104 0024 	add.w	r0, r4, #36	; 0x24
 80037f2:	f7ff fc1b 	bl	800302c <RCCEx_PLL3_Config>
 80037f6:	4605      	mov	r5, r0
      break;
 80037f8:	e7c1      	b.n	800377e <HAL_RCCEx_PeriphCLKConfig+0x646>
 80037fa:	462e      	mov	r6, r5
 80037fc:	e7d8      	b.n	80037b0 <HAL_RCCEx_PeriphCLKConfig+0x678>
    switch(PeriphClkInit->Lptim2ClockSelection)
 80037fe:	2601      	movs	r6, #1
 8003800:	4635      	mov	r5, r6
 8003802:	e00a      	b.n	800381a <HAL_RCCEx_PeriphCLKConfig+0x6e2>
 8003804:	f5b3 5f80 	cmp.w	r3, #4096	; 0x1000
 8003808:	d0e5      	beq.n	80037d6 <HAL_RCCEx_PeriphCLKConfig+0x69e>
 800380a:	f5b3 5fa0 	cmp.w	r3, #5120	; 0x1400
 800380e:	d0e2      	beq.n	80037d6 <HAL_RCCEx_PeriphCLKConfig+0x69e>
 8003810:	f5b3 6f40 	cmp.w	r3, #3072	; 0xc00
 8003814:	d0df      	beq.n	80037d6 <HAL_RCCEx_PeriphCLKConfig+0x69e>
 8003816:	2601      	movs	r6, #1
 8003818:	4635      	mov	r5, r6
  if(((PeriphClkInit->PeriphClockSelection) & RCC_PERIPHCLK_LPTIM345) == RCC_PERIPHCLK_LPTIM345)
 800381a:	6823      	ldr	r3, [r4, #0]
 800381c:	f013 0f80 	tst.w	r3, #128	; 0x80
 8003820:	d037      	beq.n	8003892 <HAL_RCCEx_PeriphCLKConfig+0x75a>
    switch(PeriphClkInit->Lptim345ClockSelection)
 8003822:	f8d4 309c 	ldr.w	r3, [r4, #156]	; 0x9c
 8003826:	f5b3 4f80 	cmp.w	r3, #16384	; 0x4000
 800382a:	f000 80a2 	beq.w	8003972 <HAL_RCCEx_PeriphCLKConfig+0x83a>
 800382e:	d825      	bhi.n	800387c <HAL_RCCEx_PeriphCLKConfig+0x744>
 8003830:	b13b      	cbz	r3, 8003842 <HAL_RCCEx_PeriphCLKConfig+0x70a>
 8003832:	f5b3 5f00 	cmp.w	r3, #8192	; 0x2000
 8003836:	d119      	bne.n	800386c <HAL_RCCEx_PeriphCLKConfig+0x734>
      ret = RCCEx_PLL2_Config(&(PeriphClkInit->PLL2),DIVIDER_P_UPDATE);
 8003838:	2100      	movs	r1, #0
 800383a:	1d20      	adds	r0, r4, #4
 800383c:	f7ff fb70 	bl	8002f20 <RCCEx_PLL2_Config>
 8003840:	4605      	mov	r5, r0
    if(ret == HAL_OK)
 8003842:	2d00      	cmp	r5, #0
 8003844:	f040 809c 	bne.w	8003980 <HAL_RCCEx_PeriphCLKConfig+0x848>
      __HAL_RCC_LPTIM345_CONFIG(PeriphClkInit->Lptim345ClockSelection);
 8003848:	4a0a      	ldr	r2, [pc, #40]	; (8003874 <HAL_RCCEx_PeriphCLKConfig+0x73c>)
 800384a:	6d93      	ldr	r3, [r2, #88]	; 0x58
 800384c:	f423 4360 	bic.w	r3, r3, #57344	; 0xe000
 8003850:	f8d4 109c 	ldr.w	r1, [r4, #156]	; 0x9c
 8003854:	430b      	orrs	r3, r1
 8003856:	6593      	str	r3, [r2, #88]	; 0x58
 8003858:	e01b      	b.n	8003892 <HAL_RCCEx_PeriphCLKConfig+0x75a>
      ret = RCCEx_PLL3_Config(&(PeriphClkInit->PLL3),DIVIDER_R_UPDATE);
 800385a:	2102      	movs	r1, #2
 800385c:	f104 0024 	add.w	r0, r4, #36	; 0x24
 8003860:	f7ff fbe4 	bl	800302c <RCCEx_PLL3_Config>
 8003864:	4605      	mov	r5, r0
      break;
 8003866:	e7b6      	b.n	80037d6 <HAL_RCCEx_PeriphCLKConfig+0x69e>
 8003868:	462e      	mov	r6, r5
 800386a:	e7d6      	b.n	800381a <HAL_RCCEx_PeriphCLKConfig+0x6e2>
    switch(PeriphClkInit->Lptim345ClockSelection)
 800386c:	2601      	movs	r6, #1
 800386e:	4635      	mov	r5, r6
 8003870:	e00f      	b.n	8003892 <HAL_RCCEx_PeriphCLKConfig+0x75a>
 8003872:	bf00      	nop
 8003874:	58024400 	.word	0x58024400
 8003878:	00ffffcf 	.word	0x00ffffcf
 800387c:	f5b3 4f00 	cmp.w	r3, #32768	; 0x8000
 8003880:	d0df      	beq.n	8003842 <HAL_RCCEx_PeriphCLKConfig+0x70a>
 8003882:	f5b3 4f20 	cmp.w	r3, #40960	; 0xa000
 8003886:	d0dc      	beq.n	8003842 <HAL_RCCEx_PeriphCLKConfig+0x70a>
 8003888:	f5b3 4fc0 	cmp.w	r3, #24576	; 0x6000
 800388c:	d0d9      	beq.n	8003842 <HAL_RCCEx_PeriphCLKConfig+0x70a>
 800388e:	2601      	movs	r6, #1
 8003890:	4635      	mov	r5, r6
  if(((PeriphClkInit->PeriphClockSelection) & RCC_PERIPHCLK_I2C123) == RCC_PERIPHCLK_I2C123)
 8003892:	6823      	ldr	r3, [r4, #0]
 8003894:	f013 0f08 	tst.w	r3, #8
 8003898:	d00c      	beq.n	80038b4 <HAL_RCCEx_PeriphCLKConfig+0x77c>
    if ((PeriphClkInit->I2c123ClockSelection )== RCC_I2C123CLKSOURCE_PLL3 )
 800389a:	f8d4 3080 	ldr.w	r3, [r4, #128]	; 0x80
 800389e:	f5b3 5f80 	cmp.w	r3, #4096	; 0x1000
 80038a2:	d06f      	beq.n	8003984 <HAL_RCCEx_PeriphCLKConfig+0x84c>
      __HAL_RCC_I2C123_CONFIG(PeriphClkInit->I2c123ClockSelection);
 80038a4:	4a8e      	ldr	r2, [pc, #568]	; (8003ae0 <HAL_RCCEx_PeriphCLKConfig+0x9a8>)
 80038a6:	6d53      	ldr	r3, [r2, #84]	; 0x54
 80038a8:	f423 5340 	bic.w	r3, r3, #12288	; 0x3000
 80038ac:	f8d4 1080 	ldr.w	r1, [r4, #128]	; 0x80
 80038b0:	430b      	orrs	r3, r1
 80038b2:	6553      	str	r3, [r2, #84]	; 0x54
  if(((PeriphClkInit->PeriphClockSelection) & RCC_PERIPHCLK_I2C4) == RCC_PERIPHCLK_I2C4)
 80038b4:	6823      	ldr	r3, [r4, #0]
 80038b6:	f013 0f10 	tst.w	r3, #16
 80038ba:	d00c      	beq.n	80038d6 <HAL_RCCEx_PeriphCLKConfig+0x79e>
    if ((PeriphClkInit->I2c4ClockSelection) == RCC_I2C4CLKSOURCE_PLL3 )
 80038bc:	f8d4 3094 	ldr.w	r3, [r4, #148]	; 0x94
 80038c0:	f5b3 7f80 	cmp.w	r3, #256	; 0x100
 80038c4:	d067      	beq.n	8003996 <HAL_RCCEx_PeriphCLKConfig+0x85e>
      __HAL_RCC_I2C4_CONFIG(PeriphClkInit->I2c4ClockSelection);
 80038c6:	4a86      	ldr	r2, [pc, #536]	; (8003ae0 <HAL_RCCEx_PeriphCLKConfig+0x9a8>)
 80038c8:	6d93      	ldr	r3, [r2, #88]	; 0x58
 80038ca:	f423 7340 	bic.w	r3, r3, #768	; 0x300
 80038ce:	f8d4 1094 	ldr.w	r1, [r4, #148]	; 0x94
 80038d2:	430b      	orrs	r3, r1
 80038d4:	6593      	str	r3, [r2, #88]	; 0x58
  if(((PeriphClkInit->PeriphClockSelection) & RCC_PERIPHCLK_ADC) == RCC_PERIPHCLK_ADC)
 80038d6:	6823      	ldr	r3, [r4, #0]
 80038d8:	f413 2f00 	tst.w	r3, #524288	; 0x80000
 80038dc:	d00b      	beq.n	80038f6 <HAL_RCCEx_PeriphCLKConfig+0x7be>
    switch(PeriphClkInit->AdcClockSelection)
 80038de:	f8d4 30a0 	ldr.w	r3, [r4, #160]	; 0xa0
 80038e2:	f5b3 3f80 	cmp.w	r3, #65536	; 0x10000
 80038e6:	d06e      	beq.n	80039c6 <HAL_RCCEx_PeriphCLKConfig+0x88e>
 80038e8:	f5b3 3f00 	cmp.w	r3, #131072	; 0x20000
 80038ec:	d061      	beq.n	80039b2 <HAL_RCCEx_PeriphCLKConfig+0x87a>
 80038ee:	2b00      	cmp	r3, #0
 80038f0:	d05a      	beq.n	80039a8 <HAL_RCCEx_PeriphCLKConfig+0x870>
 80038f2:	2601      	movs	r6, #1
 80038f4:	4635      	mov	r5, r6
  if(((PeriphClkInit->PeriphClockSelection) & RCC_PERIPHCLK_USB) == RCC_PERIPHCLK_USB)
 80038f6:	6823      	ldr	r3, [r4, #0]
 80038f8:	f413 2f80 	tst.w	r3, #262144	; 0x40000
 80038fc:	d00c      	beq.n	8003918 <HAL_RCCEx_PeriphCLKConfig+0x7e0>
    switch(PeriphClkInit->UsbClockSelection)
 80038fe:	f8d4 3084 	ldr.w	r3, [r4, #132]	; 0x84
 8003902:	f5b3 1f00 	cmp.w	r3, #2097152	; 0x200000
 8003906:	d076      	beq.n	80039f6 <HAL_RCCEx_PeriphCLKConfig+0x8be>
 8003908:	f5b3 1f40 	cmp.w	r3, #3145728	; 0x300000
 800390c:	d069      	beq.n	80039e2 <HAL_RCCEx_PeriphCLKConfig+0x8aa>
 800390e:	f5b3 1f80 	cmp.w	r3, #1048576	; 0x100000
 8003912:	d061      	beq.n	80039d8 <HAL_RCCEx_PeriphCLKConfig+0x8a0>
 8003914:	2601      	movs	r6, #1
 8003916:	4635      	mov	r5, r6
  if(((PeriphClkInit->PeriphClockSelection) & RCC_PERIPHCLK_SDMMC) == RCC_PERIPHCLK_SDMMC)
 8003918:	6823      	ldr	r3, [r4, #0]
 800391a:	f413 3f80 	tst.w	r3, #65536	; 0x10000
 800391e:	d007      	beq.n	8003930 <HAL_RCCEx_PeriphCLKConfig+0x7f8>
    switch(PeriphClkInit->SdmmcClockSelection)
 8003920:	6ce3      	ldr	r3, [r4, #76]	; 0x4c
 8003922:	2b00      	cmp	r3, #0
 8003924:	d070      	beq.n	8003a08 <HAL_RCCEx_PeriphCLKConfig+0x8d0>
 8003926:	f5b3 3f80 	cmp.w	r3, #65536	; 0x10000
 800392a:	d07b      	beq.n	8003a24 <HAL_RCCEx_PeriphCLKConfig+0x8ec>
 800392c:	2601      	movs	r6, #1
 800392e:	4635      	mov	r5, r6
  if(((PeriphClkInit->PeriphClockSelection) & RCC_PERIPHCLK_LTDC) == RCC_PERIPHCLK_LTDC)
 8003930:	6823      	ldr	r3, [r4, #0]
 8003932:	f013 5f00 	tst.w	r3, #536870912	; 0x20000000
 8003936:	d17d      	bne.n	8003a34 <HAL_RCCEx_PeriphCLKConfig+0x8fc>
  if(((PeriphClkInit->PeriphClockSelection) & RCC_PERIPHCLK_RNG) == RCC_PERIPHCLK_RNG)
 8003938:	6823      	ldr	r3, [r4, #0]
 800393a:	f413 3f00 	tst.w	r3, #131072	; 0x20000
 800393e:	f000 8086 	beq.w	8003a4e <HAL_RCCEx_PeriphCLKConfig+0x916>
    switch(PeriphClkInit->RngClockSelection)
 8003942:	6fe3      	ldr	r3, [r4, #124]	; 0x7c
 8003944:	f5b3 7f80 	cmp.w	r3, #256	; 0x100
 8003948:	f000 80ba 	beq.w	8003ac0 <HAL_RCCEx_PeriphCLKConfig+0x988>
 800394c:	d97c      	bls.n	8003a48 <HAL_RCCEx_PeriphCLKConfig+0x910>
 800394e:	f5b3 7f00 	cmp.w	r3, #512	; 0x200
 8003952:	d003      	beq.n	800395c <HAL_RCCEx_PeriphCLKConfig+0x824>
 8003954:	f5b3 7f40 	cmp.w	r3, #768	; 0x300
 8003958:	f040 80b0 	bne.w	8003abc <HAL_RCCEx_PeriphCLKConfig+0x984>
    if(ret == HAL_OK)
 800395c:	2d00      	cmp	r5, #0
 800395e:	f040 80b5 	bne.w	8003acc <HAL_RCCEx_PeriphCLKConfig+0x994>
      __HAL_RCC_RNG_CONFIG(PeriphClkInit->RngClockSelection);
 8003962:	4a5f      	ldr	r2, [pc, #380]	; (8003ae0 <HAL_RCCEx_PeriphCLKConfig+0x9a8>)
 8003964:	6d53      	ldr	r3, [r2, #84]	; 0x54
 8003966:	f423 7340 	bic.w	r3, r3, #768	; 0x300
 800396a:	6fe1      	ldr	r1, [r4, #124]	; 0x7c
 800396c:	430b      	orrs	r3, r1
 800396e:	6553      	str	r3, [r2, #84]	; 0x54
 8003970:	e06d      	b.n	8003a4e <HAL_RCCEx_PeriphCLKConfig+0x916>
      ret = RCCEx_PLL3_Config(&(PeriphClkInit->PLL3),DIVIDER_R_UPDATE);
 8003972:	2102      	movs	r1, #2
 8003974:	f104 0024 	add.w	r0, r4, #36	; 0x24
 8003978:	f7ff fb58 	bl	800302c <RCCEx_PLL3_Config>
 800397c:	4605      	mov	r5, r0
      break;
 800397e:	e760      	b.n	8003842 <HAL_RCCEx_PeriphCLKConfig+0x70a>
 8003980:	462e      	mov	r6, r5
 8003982:	e786      	b.n	8003892 <HAL_RCCEx_PeriphCLKConfig+0x75a>
        if(RCCEx_PLL3_Config(&(PeriphClkInit->PLL3),DIVIDER_R_UPDATE)!= HAL_OK)
 8003984:	2102      	movs	r1, #2
 8003986:	f104 0024 	add.w	r0, r4, #36	; 0x24
 800398a:	f7ff fb4f 	bl	800302c <RCCEx_PLL3_Config>
 800398e:	2800      	cmp	r0, #0
 8003990:	d088      	beq.n	80038a4 <HAL_RCCEx_PeriphCLKConfig+0x76c>
          status = HAL_ERROR;
 8003992:	2601      	movs	r6, #1
 8003994:	e786      	b.n	80038a4 <HAL_RCCEx_PeriphCLKConfig+0x76c>
      if(RCCEx_PLL3_Config(&(PeriphClkInit->PLL3),DIVIDER_R_UPDATE)!= HAL_OK)
 8003996:	2102      	movs	r1, #2
 8003998:	f104 0024 	add.w	r0, r4, #36	; 0x24
 800399c:	f7ff fb46 	bl	800302c <RCCEx_PLL3_Config>
 80039a0:	2800      	cmp	r0, #0
 80039a2:	d090      	beq.n	80038c6 <HAL_RCCEx_PeriphCLKConfig+0x78e>
        status = HAL_ERROR;
 80039a4:	2601      	movs	r6, #1
 80039a6:	e78e      	b.n	80038c6 <HAL_RCCEx_PeriphCLKConfig+0x78e>
      ret = RCCEx_PLL2_Config(&(PeriphClkInit->PLL2),DIVIDER_P_UPDATE);
 80039a8:	2100      	movs	r1, #0
 80039aa:	1d20      	adds	r0, r4, #4
 80039ac:	f7ff fab8 	bl	8002f20 <RCCEx_PLL2_Config>
 80039b0:	4605      	mov	r5, r0
    if(ret == HAL_OK)
 80039b2:	b97d      	cbnz	r5, 80039d4 <HAL_RCCEx_PeriphCLKConfig+0x89c>
      __HAL_RCC_ADC_CONFIG(PeriphClkInit->AdcClockSelection);
 80039b4:	4a4a      	ldr	r2, [pc, #296]	; (8003ae0 <HAL_RCCEx_PeriphCLKConfig+0x9a8>)
 80039b6:	6d93      	ldr	r3, [r2, #88]	; 0x58
 80039b8:	f423 3340 	bic.w	r3, r3, #196608	; 0x30000
 80039bc:	f8d4 10a0 	ldr.w	r1, [r4, #160]	; 0xa0
 80039c0:	430b      	orrs	r3, r1
 80039c2:	6593      	str	r3, [r2, #88]	; 0x58
 80039c4:	e797      	b.n	80038f6 <HAL_RCCEx_PeriphCLKConfig+0x7be>
      ret = RCCEx_PLL3_Config(&(PeriphClkInit->PLL3),DIVIDER_R_UPDATE);
 80039c6:	2102      	movs	r1, #2
 80039c8:	f104 0024 	add.w	r0, r4, #36	; 0x24
 80039cc:	f7ff fb2e 	bl	800302c <RCCEx_PLL3_Config>
 80039d0:	4605      	mov	r5, r0
      break;
 80039d2:	e7ee      	b.n	80039b2 <HAL_RCCEx_PeriphCLKConfig+0x87a>
 80039d4:	462e      	mov	r6, r5
 80039d6:	e78e      	b.n	80038f6 <HAL_RCCEx_PeriphCLKConfig+0x7be>
      __HAL_RCC_PLLCLKOUT_ENABLE(RCC_PLL1_DIVQ);
 80039d8:	4a41      	ldr	r2, [pc, #260]	; (8003ae0 <HAL_RCCEx_PeriphCLKConfig+0x9a8>)
 80039da:	6ad3      	ldr	r3, [r2, #44]	; 0x2c
 80039dc:	f443 3300 	orr.w	r3, r3, #131072	; 0x20000
 80039e0:	62d3      	str	r3, [r2, #44]	; 0x2c
    if(ret == HAL_OK)
 80039e2:	b97d      	cbnz	r5, 8003a04 <HAL_RCCEx_PeriphCLKConfig+0x8cc>
      __HAL_RCC_USB_CONFIG(PeriphClkInit->UsbClockSelection);
 80039e4:	4a3e      	ldr	r2, [pc, #248]	; (8003ae0 <HAL_RCCEx_PeriphCLKConfig+0x9a8>)
 80039e6:	6d53      	ldr	r3, [r2, #84]	; 0x54
 80039e8:	f423 1340 	bic.w	r3, r3, #3145728	; 0x300000
 80039ec:	f8d4 1084 	ldr.w	r1, [r4, #132]	; 0x84
 80039f0:	430b      	orrs	r3, r1
 80039f2:	6553      	str	r3, [r2, #84]	; 0x54
 80039f4:	e790      	b.n	8003918 <HAL_RCCEx_PeriphCLKConfig+0x7e0>
      ret = RCCEx_PLL3_Config(&(PeriphClkInit->PLL3),DIVIDER_Q_UPDATE);
 80039f6:	2101      	movs	r1, #1
 80039f8:	f104 0024 	add.w	r0, r4, #36	; 0x24
 80039fc:	f7ff fb16 	bl	800302c <RCCEx_PLL3_Config>
 8003a00:	4605      	mov	r5, r0
      break;
 8003a02:	e7ee      	b.n	80039e2 <HAL_RCCEx_PeriphCLKConfig+0x8aa>
 8003a04:	462e      	mov	r6, r5
 8003a06:	e787      	b.n	8003918 <HAL_RCCEx_PeriphCLKConfig+0x7e0>
      __HAL_RCC_PLLCLKOUT_ENABLE(RCC_PLL1_DIVQ);
 8003a08:	4a35      	ldr	r2, [pc, #212]	; (8003ae0 <HAL_RCCEx_PeriphCLKConfig+0x9a8>)
 8003a0a:	6ad3      	ldr	r3, [r2, #44]	; 0x2c
 8003a0c:	f443 3300 	orr.w	r3, r3, #131072	; 0x20000
 8003a10:	62d3      	str	r3, [r2, #44]	; 0x2c
    if(ret == HAL_OK)
 8003a12:	b96d      	cbnz	r5, 8003a30 <HAL_RCCEx_PeriphCLKConfig+0x8f8>
      __HAL_RCC_SDMMC_CONFIG(PeriphClkInit->SdmmcClockSelection);
 8003a14:	4a32      	ldr	r2, [pc, #200]	; (8003ae0 <HAL_RCCEx_PeriphCLKConfig+0x9a8>)
 8003a16:	6cd3      	ldr	r3, [r2, #76]	; 0x4c
 8003a18:	f423 3380 	bic.w	r3, r3, #65536	; 0x10000
 8003a1c:	6ce1      	ldr	r1, [r4, #76]	; 0x4c
 8003a1e:	430b      	orrs	r3, r1
 8003a20:	64d3      	str	r3, [r2, #76]	; 0x4c
 8003a22:	e785      	b.n	8003930 <HAL_RCCEx_PeriphCLKConfig+0x7f8>
      ret = RCCEx_PLL2_Config(&(PeriphClkInit->PLL2),DIVIDER_R_UPDATE);
 8003a24:	2102      	movs	r1, #2
 8003a26:	1d20      	adds	r0, r4, #4
 8003a28:	f7ff fa7a 	bl	8002f20 <RCCEx_PLL2_Config>
 8003a2c:	4605      	mov	r5, r0
      break;
 8003a2e:	e7f0      	b.n	8003a12 <HAL_RCCEx_PeriphCLKConfig+0x8da>
 8003a30:	462e      	mov	r6, r5
 8003a32:	e77d      	b.n	8003930 <HAL_RCCEx_PeriphCLKConfig+0x7f8>
    if(RCCEx_PLL3_Config(&(PeriphClkInit->PLL3),DIVIDER_R_UPDATE)!=HAL_OK)
 8003a34:	2102      	movs	r1, #2
 8003a36:	f104 0024 	add.w	r0, r4, #36	; 0x24
 8003a3a:	f7ff faf7 	bl	800302c <RCCEx_PLL3_Config>
 8003a3e:	2800      	cmp	r0, #0
 8003a40:	f43f af7a 	beq.w	8003938 <HAL_RCCEx_PeriphCLKConfig+0x800>
      status=HAL_ERROR;
 8003a44:	2601      	movs	r6, #1
 8003a46:	e777      	b.n	8003938 <HAL_RCCEx_PeriphCLKConfig+0x800>
    switch(PeriphClkInit->RngClockSelection)
 8003a48:	2b00      	cmp	r3, #0
 8003a4a:	d087      	beq.n	800395c <HAL_RCCEx_PeriphCLKConfig+0x824>
 8003a4c:	2601      	movs	r6, #1
  if(((PeriphClkInit->PeriphClockSelection) & RCC_PERIPHCLK_SWPMI1) == RCC_PERIPHCLK_SWPMI1)
 8003a4e:	6823      	ldr	r3, [r4, #0]
 8003a50:	f413 1f80 	tst.w	r3, #1048576	; 0x100000
 8003a54:	d006      	beq.n	8003a64 <HAL_RCCEx_PeriphCLKConfig+0x92c>
    __HAL_RCC_SWPMI1_CONFIG(PeriphClkInit->Swpmi1ClockSelection);
 8003a56:	4a22      	ldr	r2, [pc, #136]	; (8003ae0 <HAL_RCCEx_PeriphCLKConfig+0x9a8>)
 8003a58:	6d13      	ldr	r3, [r2, #80]	; 0x50
 8003a5a:	f023 4300 	bic.w	r3, r3, #2147483648	; 0x80000000
 8003a5e:	6f21      	ldr	r1, [r4, #112]	; 0x70
 8003a60:	430b      	orrs	r3, r1
 8003a62:	6513      	str	r3, [r2, #80]	; 0x50
  if(((PeriphClkInit->PeriphClockSelection) & RCC_PERIPHCLK_HRTIM1) == RCC_PERIPHCLK_HRTIM1)
 8003a64:	6823      	ldr	r3, [r4, #0]
 8003a66:	f013 5f80 	tst.w	r3, #268435456	; 0x10000000
 8003a6a:	d007      	beq.n	8003a7c <HAL_RCCEx_PeriphCLKConfig+0x944>
    __HAL_RCC_HRTIM1_CONFIG(PeriphClkInit->Hrtim1ClockSelection);
 8003a6c:	4a1c      	ldr	r2, [pc, #112]	; (8003ae0 <HAL_RCCEx_PeriphCLKConfig+0x9a8>)
 8003a6e:	6913      	ldr	r3, [r2, #16]
 8003a70:	f423 4380 	bic.w	r3, r3, #16384	; 0x4000
 8003a74:	f8d4 10b4 	ldr.w	r1, [r4, #180]	; 0xb4
 8003a78:	430b      	orrs	r3, r1
 8003a7a:	6113      	str	r3, [r2, #16]
  if(((PeriphClkInit->PeriphClockSelection) & RCC_PERIPHCLK_DFSDM1) == RCC_PERIPHCLK_DFSDM1)
 8003a7c:	6823      	ldr	r3, [r4, #0]
 8003a7e:	f413 1f00 	tst.w	r3, #2097152	; 0x200000
 8003a82:	d006      	beq.n	8003a92 <HAL_RCCEx_PeriphCLKConfig+0x95a>
    __HAL_RCC_DFSDM1_CONFIG(PeriphClkInit->Dfsdm1ClockSelection);
 8003a84:	4a16      	ldr	r2, [pc, #88]	; (8003ae0 <HAL_RCCEx_PeriphCLKConfig+0x9a8>)
 8003a86:	6d13      	ldr	r3, [r2, #80]	; 0x50
 8003a88:	f023 7380 	bic.w	r3, r3, #16777216	; 0x1000000
 8003a8c:	6ea1      	ldr	r1, [r4, #104]	; 0x68
 8003a8e:	430b      	orrs	r3, r1
 8003a90:	6513      	str	r3, [r2, #80]	; 0x50
  if(((PeriphClkInit->PeriphClockSelection) & RCC_PERIPHCLK_TIM) == RCC_PERIPHCLK_TIM)
 8003a92:	6823      	ldr	r3, [r4, #0]
 8003a94:	f013 4f80 	tst.w	r3, #1073741824	; 0x40000000
 8003a98:	d009      	beq.n	8003aae <HAL_RCCEx_PeriphCLKConfig+0x976>
    __HAL_RCC_TIMCLKPRESCALER(PeriphClkInit->TIMPresSelection);
 8003a9a:	4b11      	ldr	r3, [pc, #68]	; (8003ae0 <HAL_RCCEx_PeriphCLKConfig+0x9a8>)
 8003a9c:	691a      	ldr	r2, [r3, #16]
 8003a9e:	f422 4200 	bic.w	r2, r2, #32768	; 0x8000
 8003aa2:	611a      	str	r2, [r3, #16]
 8003aa4:	691a      	ldr	r2, [r3, #16]
 8003aa6:	f8d4 10b8 	ldr.w	r1, [r4, #184]	; 0xb8
 8003aaa:	430a      	orrs	r2, r1
 8003aac:	611a      	str	r2, [r3, #16]
  if(((PeriphClkInit->PeriphClockSelection) & RCC_PERIPHCLK_CKPER) == RCC_PERIPHCLK_CKPER)
 8003aae:	6823      	ldr	r3, [r4, #0]
 8003ab0:	2b00      	cmp	r3, #0
 8003ab2:	db0d      	blt.n	8003ad0 <HAL_RCCEx_PeriphCLKConfig+0x998>
  if (status == HAL_OK)
 8003ab4:	b106      	cbz	r6, 8003ab8 <HAL_RCCEx_PeriphCLKConfig+0x980>
  return HAL_ERROR;
 8003ab6:	2601      	movs	r6, #1
}
 8003ab8:	4630      	mov	r0, r6
 8003aba:	bdf8      	pop	{r3, r4, r5, r6, r7, pc}
    switch(PeriphClkInit->RngClockSelection)
 8003abc:	2601      	movs	r6, #1
 8003abe:	e7c6      	b.n	8003a4e <HAL_RCCEx_PeriphCLKConfig+0x916>
      __HAL_RCC_PLLCLKOUT_ENABLE(RCC_PLL1_DIVQ);
 8003ac0:	4a07      	ldr	r2, [pc, #28]	; (8003ae0 <HAL_RCCEx_PeriphCLKConfig+0x9a8>)
 8003ac2:	6ad3      	ldr	r3, [r2, #44]	; 0x2c
 8003ac4:	f443 3300 	orr.w	r3, r3, #131072	; 0x20000
 8003ac8:	62d3      	str	r3, [r2, #44]	; 0x2c
      break;
 8003aca:	e747      	b.n	800395c <HAL_RCCEx_PeriphCLKConfig+0x824>
 8003acc:	462e      	mov	r6, r5
 8003ace:	e7be      	b.n	8003a4e <HAL_RCCEx_PeriphCLKConfig+0x916>
    __HAL_RCC_CLKP_CONFIG(PeriphClkInit->CkperClockSelection);
 8003ad0:	4a03      	ldr	r2, [pc, #12]	; (8003ae0 <HAL_RCCEx_PeriphCLKConfig+0x9a8>)
 8003ad2:	6cd3      	ldr	r3, [r2, #76]	; 0x4c
 8003ad4:	f023 5340 	bic.w	r3, r3, #805306368	; 0x30000000
 8003ad8:	6d21      	ldr	r1, [r4, #80]	; 0x50
 8003ada:	430b      	orrs	r3, r1
 8003adc:	64d3      	str	r3, [r2, #76]	; 0x4c
 8003ade:	e7e9      	b.n	8003ab4 <HAL_RCCEx_PeriphCLKConfig+0x97c>
 8003ae0:	58024400 	.word	0x58024400

08003ae4 <HAL_RCCEx_GetD3PCLK1Freq>:
{
 8003ae4:	b508      	push	{r3, lr}
  return (HAL_RCC_GetHCLKFreq() >> (D1CorePrescTable[(RCC->D3CFGR & RCC_D3CFGR_D3PPRE)>> RCC_D3CFGR_D3PPRE_Pos] & 0x1FU));
 8003ae6:	f7ff f9ab 	bl	8002e40 <HAL_RCC_GetHCLKFreq>
 8003aea:	4b05      	ldr	r3, [pc, #20]	; (8003b00 <HAL_RCCEx_GetD3PCLK1Freq+0x1c>)
 8003aec:	6a1b      	ldr	r3, [r3, #32]
 8003aee:	f3c3 1302 	ubfx	r3, r3, #4, #3
 8003af2:	4a04      	ldr	r2, [pc, #16]	; (8003b04 <HAL_RCCEx_GetD3PCLK1Freq+0x20>)
 8003af4:	5cd3      	ldrb	r3, [r2, r3]
 8003af6:	f003 031f 	and.w	r3, r3, #31
}
 8003afa:	40d8      	lsrs	r0, r3
 8003afc:	bd08      	pop	{r3, pc}
 8003afe:	bf00      	nop
 8003b00:	58024400 	.word	0x58024400
 8003b04:	080092d4 	.word	0x080092d4

08003b08 <HAL_RCCEx_GetPLL2ClockFreq>:
{
 8003b08:	b430      	push	{r4, r5}
  pllsource = (RCC->PLLCKSELR & RCC_PLLCKSELR_PLLSRC);
 8003b0a:	4a78      	ldr	r2, [pc, #480]	; (8003cec <HAL_RCCEx_GetPLL2ClockFreq+0x1e4>)
 8003b0c:	6a91      	ldr	r1, [r2, #40]	; 0x28
  pll2m = ((RCC->PLLCKSELR & RCC_PLLCKSELR_DIVM2)>> 12);
 8003b0e:	6a94      	ldr	r4, [r2, #40]	; 0x28
 8003b10:	f3c4 3505 	ubfx	r5, r4, #12, #6
  pll2fracen = (RCC->PLLCFGR & RCC_PLLCFGR_PLL2FRACEN) >> RCC_PLLCFGR_PLL2FRACEN_Pos;
 8003b14:	6ad3      	ldr	r3, [r2, #44]	; 0x2c
 8003b16:	f3c3 1300 	ubfx	r3, r3, #4, #1
  fracn2 =(float_t)(uint32_t)(pll2fracen* ((RCC->PLL2FRACR & RCC_PLL2FRACR_FRACN2)>> 3));
 8003b1a:	6bd2      	ldr	r2, [r2, #60]	; 0x3c
 8003b1c:	f3c2 02cc 	ubfx	r2, r2, #3, #13
 8003b20:	fb03 f302 	mul.w	r3, r3, r2
  if (pll2m != 0U)
 8003b24:	f414 3f7c 	tst.w	r4, #258048	; 0x3f000
 8003b28:	f000 80da 	beq.w	8003ce0 <HAL_RCCEx_GetPLL2ClockFreq+0x1d8>
 8003b2c:	f001 0103 	and.w	r1, r1, #3
 8003b30:	ee07 3a90 	vmov	s15, r3
 8003b34:	eef8 7a67 	vcvt.f32.u32	s15, s15
    switch (pllsource)
 8003b38:	2901      	cmp	r1, #1
 8003b3a:	d066      	beq.n	8003c0a <HAL_RCCEx_GetPLL2ClockFreq+0x102>
 8003b3c:	2902      	cmp	r1, #2
 8003b3e:	f000 80b2 	beq.w	8003ca6 <HAL_RCCEx_GetPLL2ClockFreq+0x19e>
 8003b42:	b1e1      	cbz	r1, 8003b7e <HAL_RCCEx_GetPLL2ClockFreq+0x76>
      pll2vco = ((float_t)CSI_VALUE / (float_t)pll2m) * ((float_t)(uint32_t)(RCC->PLL2DIVR & RCC_PLL2DIVR_N2) + (fracn2/(float_t)0x2000) +(float_t)1 );
 8003b44:	ee07 5a10 	vmov	s14, r5
 8003b48:	eeb8 7a47 	vcvt.f32.u32	s14, s14
 8003b4c:	ed9f 6a68 	vldr	s12, [pc, #416]	; 8003cf0 <HAL_RCCEx_GetPLL2ClockFreq+0x1e8>
 8003b50:	eec6 6a07 	vdiv.f32	s13, s12, s14
 8003b54:	4b65      	ldr	r3, [pc, #404]	; (8003cec <HAL_RCCEx_GetPLL2ClockFreq+0x1e4>)
 8003b56:	6b9b      	ldr	r3, [r3, #56]	; 0x38
 8003b58:	f3c3 0308 	ubfx	r3, r3, #0, #9
 8003b5c:	ee07 3a10 	vmov	s14, r3
 8003b60:	eeb8 7a47 	vcvt.f32.u32	s14, s14
 8003b64:	ed9f 6a63 	vldr	s12, [pc, #396]	; 8003cf4 <HAL_RCCEx_GetPLL2ClockFreq+0x1ec>
 8003b68:	ee67 7a86 	vmul.f32	s15, s15, s12
 8003b6c:	ee77 7a27 	vadd.f32	s15, s14, s15
 8003b70:	eeb7 7a00 	vmov.f32	s14, #112	; 0x3f800000  1.0
 8003b74:	ee77 7a87 	vadd.f32	s15, s15, s14
 8003b78:	ee66 6aa7 	vmul.f32	s13, s13, s15
      break;
 8003b7c:	e061      	b.n	8003c42 <HAL_RCCEx_GetPLL2ClockFreq+0x13a>
      if (__HAL_RCC_GET_FLAG(RCC_FLAG_HSIDIV) != 0U)
 8003b7e:	4b5b      	ldr	r3, [pc, #364]	; (8003cec <HAL_RCCEx_GetPLL2ClockFreq+0x1e4>)
 8003b80:	681b      	ldr	r3, [r3, #0]
 8003b82:	f013 0f20 	tst.w	r3, #32
 8003b86:	d023      	beq.n	8003bd0 <HAL_RCCEx_GetPLL2ClockFreq+0xc8>
        hsivalue = (HSI_VALUE >> (__HAL_RCC_GET_HSI_DIVIDER()>> 3));
 8003b88:	4958      	ldr	r1, [pc, #352]	; (8003cec <HAL_RCCEx_GetPLL2ClockFreq+0x1e4>)
 8003b8a:	680a      	ldr	r2, [r1, #0]
 8003b8c:	f3c2 02c1 	ubfx	r2, r2, #3, #2
 8003b90:	4b59      	ldr	r3, [pc, #356]	; (8003cf8 <HAL_RCCEx_GetPLL2ClockFreq+0x1f0>)
 8003b92:	40d3      	lsrs	r3, r2
        pll2vco = ( (float_t)hsivalue / (float_t)pll2m) * ((float_t)(uint32_t)(RCC->PLL2DIVR & RCC_PLL2DIVR_N2) + (fracn2/(float_t)0x2000) +(float_t)1 );
 8003b94:	ee07 3a10 	vmov	s14, r3
 8003b98:	eeb8 7a47 	vcvt.f32.u32	s14, s14
 8003b9c:	ee06 5a90 	vmov	s13, r5
 8003ba0:	eeb8 6a66 	vcvt.f32.u32	s12, s13
 8003ba4:	eec7 6a06 	vdiv.f32	s13, s14, s12
 8003ba8:	6b8b      	ldr	r3, [r1, #56]	; 0x38
 8003baa:	f3c3 0308 	ubfx	r3, r3, #0, #9
 8003bae:	ee07 3a10 	vmov	s14, r3
 8003bb2:	eeb8 7a47 	vcvt.f32.u32	s14, s14
 8003bb6:	ed9f 6a4f 	vldr	s12, [pc, #316]	; 8003cf4 <HAL_RCCEx_GetPLL2ClockFreq+0x1ec>
 8003bba:	ee67 7a86 	vmul.f32	s15, s15, s12
 8003bbe:	ee77 7a27 	vadd.f32	s15, s14, s15
 8003bc2:	eeb7 7a00 	vmov.f32	s14, #112	; 0x3f800000  1.0
 8003bc6:	ee77 7a87 	vadd.f32	s15, s15, s14
 8003bca:	ee66 6aa7 	vmul.f32	s13, s13, s15
 8003bce:	e038      	b.n	8003c42 <HAL_RCCEx_GetPLL2ClockFreq+0x13a>
        pll2vco = ((float_t)HSI_VALUE / (float_t)pll2m) * ((float_t)(uint32_t)(RCC->PLL2DIVR & RCC_PLL2DIVR_N2) + (fracn2/(float_t)0x2000) +(float_t)1 );
 8003bd0:	ee07 5a10 	vmov	s14, r5
 8003bd4:	eeb8 7a47 	vcvt.f32.u32	s14, s14
 8003bd8:	ed9f 6a48 	vldr	s12, [pc, #288]	; 8003cfc <HAL_RCCEx_GetPLL2ClockFreq+0x1f4>
 8003bdc:	eec6 6a07 	vdiv.f32	s13, s12, s14
 8003be0:	4b42      	ldr	r3, [pc, #264]	; (8003cec <HAL_RCCEx_GetPLL2ClockFreq+0x1e4>)
 8003be2:	6b9b      	ldr	r3, [r3, #56]	; 0x38
 8003be4:	f3c3 0308 	ubfx	r3, r3, #0, #9
 8003be8:	ee07 3a10 	vmov	s14, r3
 8003bec:	eeb8 7a47 	vcvt.f32.u32	s14, s14
 8003bf0:	ed9f 6a40 	vldr	s12, [pc, #256]	; 8003cf4 <HAL_RCCEx_GetPLL2ClockFreq+0x1ec>
 8003bf4:	ee67 7a86 	vmul.f32	s15, s15, s12
 8003bf8:	ee77 7a27 	vadd.f32	s15, s14, s15
 8003bfc:	eeb7 7a00 	vmov.f32	s14, #112	; 0x3f800000  1.0
 8003c00:	ee77 7a87 	vadd.f32	s15, s15, s14
 8003c04:	ee66 6aa7 	vmul.f32	s13, s13, s15
 8003c08:	e01b      	b.n	8003c42 <HAL_RCCEx_GetPLL2ClockFreq+0x13a>
      pll2vco = ((float_t)CSI_VALUE / (float_t)pll2m) * ((float_t)(uint32_t)(RCC->PLL2DIVR & RCC_PLL2DIVR_N2) + (fracn2/(float_t)0x2000) +(float_t)1 );
 8003c0a:	ee07 5a10 	vmov	s14, r5
 8003c0e:	eeb8 7a47 	vcvt.f32.u32	s14, s14
 8003c12:	ed9f 6a37 	vldr	s12, [pc, #220]	; 8003cf0 <HAL_RCCEx_GetPLL2ClockFreq+0x1e8>
 8003c16:	eec6 6a07 	vdiv.f32	s13, s12, s14
 8003c1a:	4b34      	ldr	r3, [pc, #208]	; (8003cec <HAL_RCCEx_GetPLL2ClockFreq+0x1e4>)
 8003c1c:	6b9b      	ldr	r3, [r3, #56]	; 0x38
 8003c1e:	f3c3 0308 	ubfx	r3, r3, #0, #9
 8003c22:	ee07 3a10 	vmov	s14, r3
 8003c26:	eeb8 7a47 	vcvt.f32.u32	s14, s14
 8003c2a:	ed9f 6a32 	vldr	s12, [pc, #200]	; 8003cf4 <HAL_RCCEx_GetPLL2ClockFreq+0x1ec>
 8003c2e:	ee67 7a86 	vmul.f32	s15, s15, s12
 8003c32:	ee77 7a27 	vadd.f32	s15, s14, s15
 8003c36:	eeb7 7a00 	vmov.f32	s14, #112	; 0x3f800000  1.0
 8003c3a:	ee77 7a87 	vadd.f32	s15, s15, s14
 8003c3e:	ee66 6aa7 	vmul.f32	s13, s13, s15
    PLL2_Clocks->PLL2_P_Frequency = (uint32_t)(float_t)(pll2vco/((float_t)(uint32_t)((RCC->PLL2DIVR & RCC_PLL2DIVR_P2) >>9)  + (float_t)1 )) ;
 8003c42:	4a2a      	ldr	r2, [pc, #168]	; (8003cec <HAL_RCCEx_GetPLL2ClockFreq+0x1e4>)
 8003c44:	6b93      	ldr	r3, [r2, #56]	; 0x38
 8003c46:	f3c3 2346 	ubfx	r3, r3, #9, #7
 8003c4a:	ee07 3a10 	vmov	s14, r3
 8003c4e:	eeb8 7a47 	vcvt.f32.u32	s14, s14
 8003c52:	eeb7 6a00 	vmov.f32	s12, #112	; 0x3f800000  1.0
 8003c56:	ee37 7a06 	vadd.f32	s14, s14, s12
 8003c5a:	eec6 7a87 	vdiv.f32	s15, s13, s14
 8003c5e:	eefc 7ae7 	vcvt.u32.f32	s15, s15
 8003c62:	edc0 7a00 	vstr	s15, [r0]
    PLL2_Clocks->PLL2_Q_Frequency = (uint32_t)(float_t)(pll2vco/((float_t)(uint32_t)((RCC->PLL2DIVR & RCC_PLL2DIVR_Q2) >>16) + (float_t)1 )) ;
 8003c66:	6b93      	ldr	r3, [r2, #56]	; 0x38
 8003c68:	f3c3 4306 	ubfx	r3, r3, #16, #7
 8003c6c:	ee07 3a10 	vmov	s14, r3
 8003c70:	eeb8 7a47 	vcvt.f32.u32	s14, s14
 8003c74:	ee37 7a06 	vadd.f32	s14, s14, s12
 8003c78:	eec6 7a87 	vdiv.f32	s15, s13, s14
 8003c7c:	eefc 7ae7 	vcvt.u32.f32	s15, s15
 8003c80:	edc0 7a01 	vstr	s15, [r0, #4]
    PLL2_Clocks->PLL2_R_Frequency = (uint32_t)(float_t)(pll2vco/((float_t)(uint32_t)((RCC->PLL2DIVR & RCC_PLL2DIVR_R2) >>24) + (float_t)1 )) ;
 8003c84:	6b93      	ldr	r3, [r2, #56]	; 0x38
 8003c86:	f3c3 6306 	ubfx	r3, r3, #24, #7
 8003c8a:	ee07 3a90 	vmov	s15, r3
 8003c8e:	eef8 7a67 	vcvt.f32.u32	s15, s15
 8003c92:	ee77 7a86 	vadd.f32	s15, s15, s12
 8003c96:	ee86 7aa7 	vdiv.f32	s14, s13, s15
 8003c9a:	eebc 7ac7 	vcvt.u32.f32	s14, s14
 8003c9e:	ed80 7a02 	vstr	s14, [r0, #8]
}
 8003ca2:	bc30      	pop	{r4, r5}
 8003ca4:	4770      	bx	lr
      pll2vco = ((float_t)HSE_VALUE / (float_t)pll2m) * ((float_t)(uint32_t)(RCC->PLL2DIVR & RCC_PLL2DIVR_N2) + (fracn2/(float_t)0x2000) +(float_t)1 );
 8003ca6:	ee07 5a10 	vmov	s14, r5
 8003caa:	eeb8 7a47 	vcvt.f32.u32	s14, s14
 8003cae:	ed9f 6a14 	vldr	s12, [pc, #80]	; 8003d00 <HAL_RCCEx_GetPLL2ClockFreq+0x1f8>
 8003cb2:	eec6 6a07 	vdiv.f32	s13, s12, s14
 8003cb6:	4b0d      	ldr	r3, [pc, #52]	; (8003cec <HAL_RCCEx_GetPLL2ClockFreq+0x1e4>)
 8003cb8:	6b9b      	ldr	r3, [r3, #56]	; 0x38
 8003cba:	f3c3 0308 	ubfx	r3, r3, #0, #9
 8003cbe:	ee07 3a10 	vmov	s14, r3
 8003cc2:	eeb8 7a47 	vcvt.f32.u32	s14, s14
 8003cc6:	ed9f 6a0b 	vldr	s12, [pc, #44]	; 8003cf4 <HAL_RCCEx_GetPLL2ClockFreq+0x1ec>
 8003cca:	ee67 7a86 	vmul.f32	s15, s15, s12
 8003cce:	ee77 7a27 	vadd.f32	s15, s14, s15
 8003cd2:	eeb7 7a00 	vmov.f32	s14, #112	; 0x3f800000  1.0
 8003cd6:	ee77 7a87 	vadd.f32	s15, s15, s14
 8003cda:	ee66 6aa7 	vmul.f32	s13, s13, s15
      break;
 8003cde:	e7b0      	b.n	8003c42 <HAL_RCCEx_GetPLL2ClockFreq+0x13a>
    PLL2_Clocks->PLL2_P_Frequency = 0U;
 8003ce0:	2300      	movs	r3, #0
 8003ce2:	6003      	str	r3, [r0, #0]
    PLL2_Clocks->PLL2_Q_Frequency = 0U;
 8003ce4:	6043      	str	r3, [r0, #4]
    PLL2_Clocks->PLL2_R_Frequency = 0U;
 8003ce6:	6083      	str	r3, [r0, #8]
}
 8003ce8:	e7db      	b.n	8003ca2 <HAL_RCCEx_GetPLL2ClockFreq+0x19a>
 8003cea:	bf00      	nop
 8003cec:	58024400 	.word	0x58024400
 8003cf0:	4a742400 	.word	0x4a742400
 8003cf4:	39000000 	.word	0x39000000
 8003cf8:	03d09000 	.word	0x03d09000
 8003cfc:	4c742400 	.word	0x4c742400
 8003d00:	4af42400 	.word	0x4af42400

08003d04 <HAL_RCCEx_GetPLL3ClockFreq>:
{
 8003d04:	b430      	push	{r4, r5}
  pllsource = (RCC->PLLCKSELR & RCC_PLLCKSELR_PLLSRC);
 8003d06:	4a78      	ldr	r2, [pc, #480]	; (8003ee8 <HAL_RCCEx_GetPLL3ClockFreq+0x1e4>)
 8003d08:	6a91      	ldr	r1, [r2, #40]	; 0x28
  pll3m = ((RCC->PLLCKSELR & RCC_PLLCKSELR_DIVM3)>> 20)  ;
 8003d0a:	6a94      	ldr	r4, [r2, #40]	; 0x28
 8003d0c:	f3c4 5505 	ubfx	r5, r4, #20, #6
  pll3fracen = (RCC->PLLCFGR & RCC_PLLCFGR_PLL3FRACEN) >> RCC_PLLCFGR_PLL3FRACEN_Pos;
 8003d10:	6ad3      	ldr	r3, [r2, #44]	; 0x2c
 8003d12:	f3c3 2300 	ubfx	r3, r3, #8, #1
  fracn3 = (float_t)(uint32_t)(pll3fracen* ((RCC->PLL3FRACR & RCC_PLL3FRACR_FRACN3)>> 3));
 8003d16:	6c52      	ldr	r2, [r2, #68]	; 0x44
 8003d18:	f3c2 02cc 	ubfx	r2, r2, #3, #13
 8003d1c:	fb03 f302 	mul.w	r3, r3, r2
  if (pll3m != 0U)
 8003d20:	f014 7f7c 	tst.w	r4, #66060288	; 0x3f00000
 8003d24:	f000 80da 	beq.w	8003edc <HAL_RCCEx_GetPLL3ClockFreq+0x1d8>
 8003d28:	f001 0103 	and.w	r1, r1, #3
 8003d2c:	ee07 3a90 	vmov	s15, r3
 8003d30:	eef8 7a67 	vcvt.f32.u32	s15, s15
    switch (pllsource)
 8003d34:	2901      	cmp	r1, #1
 8003d36:	d066      	beq.n	8003e06 <HAL_RCCEx_GetPLL3ClockFreq+0x102>
 8003d38:	2902      	cmp	r1, #2
 8003d3a:	f000 80b2 	beq.w	8003ea2 <HAL_RCCEx_GetPLL3ClockFreq+0x19e>
 8003d3e:	b1e1      	cbz	r1, 8003d7a <HAL_RCCEx_GetPLL3ClockFreq+0x76>
      pll3vco = ((float_t)CSI_VALUE / (float_t)pll3m) * ((float_t)(uint32_t)(RCC->PLL3DIVR & RCC_PLL3DIVR_N3) + (fracn3/(float_t)0x2000) +(float_t)1 );
 8003d40:	ee07 5a10 	vmov	s14, r5
 8003d44:	eeb8 7a47 	vcvt.f32.u32	s14, s14
 8003d48:	ed9f 6a68 	vldr	s12, [pc, #416]	; 8003eec <HAL_RCCEx_GetPLL3ClockFreq+0x1e8>
 8003d4c:	eec6 6a07 	vdiv.f32	s13, s12, s14
 8003d50:	4b65      	ldr	r3, [pc, #404]	; (8003ee8 <HAL_RCCEx_GetPLL3ClockFreq+0x1e4>)
 8003d52:	6c1b      	ldr	r3, [r3, #64]	; 0x40
 8003d54:	f3c3 0308 	ubfx	r3, r3, #0, #9
 8003d58:	ee07 3a10 	vmov	s14, r3
 8003d5c:	eeb8 7a47 	vcvt.f32.u32	s14, s14
 8003d60:	ed9f 6a63 	vldr	s12, [pc, #396]	; 8003ef0 <HAL_RCCEx_GetPLL3ClockFreq+0x1ec>
 8003d64:	ee67 7a86 	vmul.f32	s15, s15, s12
 8003d68:	ee77 7a27 	vadd.f32	s15, s14, s15
 8003d6c:	eeb7 7a00 	vmov.f32	s14, #112	; 0x3f800000  1.0
 8003d70:	ee77 7a87 	vadd.f32	s15, s15, s14
 8003d74:	ee66 6aa7 	vmul.f32	s13, s13, s15
      break;
 8003d78:	e061      	b.n	8003e3e <HAL_RCCEx_GetPLL3ClockFreq+0x13a>
      if (__HAL_RCC_GET_FLAG(RCC_FLAG_HSIDIV) != 0U)
 8003d7a:	4b5b      	ldr	r3, [pc, #364]	; (8003ee8 <HAL_RCCEx_GetPLL3ClockFreq+0x1e4>)
 8003d7c:	681b      	ldr	r3, [r3, #0]
 8003d7e:	f013 0f20 	tst.w	r3, #32
 8003d82:	d023      	beq.n	8003dcc <HAL_RCCEx_GetPLL3ClockFreq+0xc8>
        hsivalue = (HSI_VALUE >> (__HAL_RCC_GET_HSI_DIVIDER()>> 3));
 8003d84:	4958      	ldr	r1, [pc, #352]	; (8003ee8 <HAL_RCCEx_GetPLL3ClockFreq+0x1e4>)
 8003d86:	680a      	ldr	r2, [r1, #0]
 8003d88:	f3c2 02c1 	ubfx	r2, r2, #3, #2
 8003d8c:	4b59      	ldr	r3, [pc, #356]	; (8003ef4 <HAL_RCCEx_GetPLL3ClockFreq+0x1f0>)
 8003d8e:	40d3      	lsrs	r3, r2
        pll3vco = ((float_t)hsivalue / (float_t)pll3m) * ((float_t)(uint32_t)(RCC->PLL3DIVR & RCC_PLL3DIVR_N3) + (fracn3/(float_t)0x2000) +(float_t)1 );
 8003d90:	ee07 3a10 	vmov	s14, r3
 8003d94:	eeb8 7a47 	vcvt.f32.u32	s14, s14
 8003d98:	ee06 5a90 	vmov	s13, r5
 8003d9c:	eeb8 6a66 	vcvt.f32.u32	s12, s13
 8003da0:	eec7 6a06 	vdiv.f32	s13, s14, s12
 8003da4:	6c0b      	ldr	r3, [r1, #64]	; 0x40
 8003da6:	f3c3 0308 	ubfx	r3, r3, #0, #9
 8003daa:	ee07 3a10 	vmov	s14, r3
 8003dae:	eeb8 7a47 	vcvt.f32.u32	s14, s14
 8003db2:	ed9f 6a4f 	vldr	s12, [pc, #316]	; 8003ef0 <HAL_RCCEx_GetPLL3ClockFreq+0x1ec>
 8003db6:	ee67 7a86 	vmul.f32	s15, s15, s12
 8003dba:	ee77 7a27 	vadd.f32	s15, s14, s15
 8003dbe:	eeb7 7a00 	vmov.f32	s14, #112	; 0x3f800000  1.0
 8003dc2:	ee77 7a87 	vadd.f32	s15, s15, s14
 8003dc6:	ee66 6aa7 	vmul.f32	s13, s13, s15
 8003dca:	e038      	b.n	8003e3e <HAL_RCCEx_GetPLL3ClockFreq+0x13a>
        pll3vco = ((float_t)HSI_VALUE / (float_t)pll3m) * ((float_t)(uint32_t)(RCC->PLL3DIVR & RCC_PLL3DIVR_N3) + (fracn3/(float_t)0x2000) +(float_t)1 );
 8003dcc:	ee07 5a10 	vmov	s14, r5
 8003dd0:	eeb8 7a47 	vcvt.f32.u32	s14, s14
 8003dd4:	ed9f 6a48 	vldr	s12, [pc, #288]	; 8003ef8 <HAL_RCCEx_GetPLL3ClockFreq+0x1f4>
 8003dd8:	eec6 6a07 	vdiv.f32	s13, s12, s14
 8003ddc:	4b42      	ldr	r3, [pc, #264]	; (8003ee8 <HAL_RCCEx_GetPLL3ClockFreq+0x1e4>)
 8003dde:	6c1b      	ldr	r3, [r3, #64]	; 0x40
 8003de0:	f3c3 0308 	ubfx	r3, r3, #0, #9
 8003de4:	ee07 3a10 	vmov	s14, r3
 8003de8:	eeb8 7a47 	vcvt.f32.u32	s14, s14
 8003dec:	ed9f 6a40 	vldr	s12, [pc, #256]	; 8003ef0 <HAL_RCCEx_GetPLL3ClockFreq+0x1ec>
 8003df0:	ee67 7a86 	vmul.f32	s15, s15, s12
 8003df4:	ee77 7a27 	vadd.f32	s15, s14, s15
 8003df8:	eeb7 7a00 	vmov.f32	s14, #112	; 0x3f800000  1.0
 8003dfc:	ee77 7a87 	vadd.f32	s15, s15, s14
 8003e00:	ee66 6aa7 	vmul.f32	s13, s13, s15
 8003e04:	e01b      	b.n	8003e3e <HAL_RCCEx_GetPLL3ClockFreq+0x13a>
      pll3vco = ((float_t)CSI_VALUE / (float_t)pll3m) * ((float_t)(uint32_t)(RCC->PLL3DIVR & RCC_PLL3DIVR_N3) + (fracn3/(float_t)0x2000) +(float_t)1 );
 8003e06:	ee07 5a10 	vmov	s14, r5
 8003e0a:	eeb8 7a47 	vcvt.f32.u32	s14, s14
 8003e0e:	ed9f 6a37 	vldr	s12, [pc, #220]	; 8003eec <HAL_RCCEx_GetPLL3ClockFreq+0x1e8>
 8003e12:	eec6 6a07 	vdiv.f32	s13, s12, s14
 8003e16:	4b34      	ldr	r3, [pc, #208]	; (8003ee8 <HAL_RCCEx_GetPLL3ClockFreq+0x1e4>)
 8003e18:	6c1b      	ldr	r3, [r3, #64]	; 0x40
 8003e1a:	f3c3 0308 	ubfx	r3, r3, #0, #9
 8003e1e:	ee07 3a10 	vmov	s14, r3
 8003e22:	eeb8 7a47 	vcvt.f32.u32	s14, s14
 8003e26:	ed9f 6a32 	vldr	s12, [pc, #200]	; 8003ef0 <HAL_RCCEx_GetPLL3ClockFreq+0x1ec>
 8003e2a:	ee67 7a86 	vmul.f32	s15, s15, s12
 8003e2e:	ee77 7a27 	vadd.f32	s15, s14, s15
 8003e32:	eeb7 7a00 	vmov.f32	s14, #112	; 0x3f800000  1.0
 8003e36:	ee77 7a87 	vadd.f32	s15, s15, s14
 8003e3a:	ee66 6aa7 	vmul.f32	s13, s13, s15
    PLL3_Clocks->PLL3_P_Frequency = (uint32_t)(float_t)(pll3vco/((float_t)(uint32_t)((RCC->PLL3DIVR & RCC_PLL3DIVR_P3) >>9)  + (float_t)1 )) ;
 8003e3e:	4a2a      	ldr	r2, [pc, #168]	; (8003ee8 <HAL_RCCEx_GetPLL3ClockFreq+0x1e4>)
 8003e40:	6c13      	ldr	r3, [r2, #64]	; 0x40
 8003e42:	f3c3 2346 	ubfx	r3, r3, #9, #7
 8003e46:	ee07 3a10 	vmov	s14, r3
 8003e4a:	eeb8 7a47 	vcvt.f32.u32	s14, s14
 8003e4e:	eeb7 6a00 	vmov.f32	s12, #112	; 0x3f800000  1.0
 8003e52:	ee37 7a06 	vadd.f32	s14, s14, s12
 8003e56:	eec6 7a87 	vdiv.f32	s15, s13, s14
 8003e5a:	eefc 7ae7 	vcvt.u32.f32	s15, s15
 8003e5e:	edc0 7a00 	vstr	s15, [r0]
    PLL3_Clocks->PLL3_Q_Frequency = (uint32_t)(float_t)(pll3vco/((float_t)(uint32_t)((RCC->PLL3DIVR & RCC_PLL3DIVR_Q3) >>16) + (float_t)1 )) ;
 8003e62:	6c13      	ldr	r3, [r2, #64]	; 0x40
 8003e64:	f3c3 4306 	ubfx	r3, r3, #16, #7
 8003e68:	ee07 3a10 	vmov	s14, r3
 8003e6c:	eeb8 7a47 	vcvt.f32.u32	s14, s14
 8003e70:	ee37 7a06 	vadd.f32	s14, s14, s12
 8003e74:	eec6 7a87 	vdiv.f32	s15, s13, s14
 8003e78:	eefc 7ae7 	vcvt.u32.f32	s15, s15
 8003e7c:	edc0 7a01 	vstr	s15, [r0, #4]
    PLL3_Clocks->PLL3_R_Frequency = (uint32_t)(float_t)(pll3vco/((float_t)(uint32_t)((RCC->PLL3DIVR & RCC_PLL3DIVR_R3) >>24) + (float_t)1 )) ;
 8003e80:	6c13      	ldr	r3, [r2, #64]	; 0x40
 8003e82:	f3c3 6306 	ubfx	r3, r3, #24, #7
 8003e86:	ee07 3a90 	vmov	s15, r3
 8003e8a:	eef8 7a67 	vcvt.f32.u32	s15, s15
 8003e8e:	ee77 7a86 	vadd.f32	s15, s15, s12
 8003e92:	ee86 7aa7 	vdiv.f32	s14, s13, s15
 8003e96:	eebc 7ac7 	vcvt.u32.f32	s14, s14
 8003e9a:	ed80 7a02 	vstr	s14, [r0, #8]
}
 8003e9e:	bc30      	pop	{r4, r5}
 8003ea0:	4770      	bx	lr
      pll3vco = ((float_t)HSE_VALUE / (float_t)pll3m) * ((float_t)(uint32_t)(RCC->PLL3DIVR & RCC_PLL3DIVR_N3) + (fracn3/(float_t)0x2000) +(float_t)1 );
 8003ea2:	ee07 5a10 	vmov	s14, r5
 8003ea6:	eeb8 7a47 	vcvt.f32.u32	s14, s14
 8003eaa:	ed9f 6a14 	vldr	s12, [pc, #80]	; 8003efc <HAL_RCCEx_GetPLL3ClockFreq+0x1f8>
 8003eae:	eec6 6a07 	vdiv.f32	s13, s12, s14
 8003eb2:	4b0d      	ldr	r3, [pc, #52]	; (8003ee8 <HAL_RCCEx_GetPLL3ClockFreq+0x1e4>)
 8003eb4:	6c1b      	ldr	r3, [r3, #64]	; 0x40
 8003eb6:	f3c3 0308 	ubfx	r3, r3, #0, #9
 8003eba:	ee07 3a10 	vmov	s14, r3
 8003ebe:	eeb8 7a47 	vcvt.f32.u32	s14, s14
 8003ec2:	ed9f 6a0b 	vldr	s12, [pc, #44]	; 8003ef0 <HAL_RCCEx_GetPLL3ClockFreq+0x1ec>
 8003ec6:	ee67 7a86 	vmul.f32	s15, s15, s12
 8003eca:	ee77 7a27 	vadd.f32	s15, s14, s15
 8003ece:	eeb7 7a00 	vmov.f32	s14, #112	; 0x3f800000  1.0
 8003ed2:	ee77 7a87 	vadd.f32	s15, s15, s14
 8003ed6:	ee66 6aa7 	vmul.f32	s13, s13, s15
      break;
 8003eda:	e7b0      	b.n	8003e3e <HAL_RCCEx_GetPLL3ClockFreq+0x13a>
    PLL3_Clocks->PLL3_P_Frequency = 0U;
 8003edc:	2300      	movs	r3, #0
 8003ede:	6003      	str	r3, [r0, #0]
    PLL3_Clocks->PLL3_Q_Frequency = 0U;
 8003ee0:	6043      	str	r3, [r0, #4]
    PLL3_Clocks->PLL3_R_Frequency = 0U;
 8003ee2:	6083      	str	r3, [r0, #8]
}
 8003ee4:	e7db      	b.n	8003e9e <HAL_RCCEx_GetPLL3ClockFreq+0x19a>
 8003ee6:	bf00      	nop
 8003ee8:	58024400 	.word	0x58024400
 8003eec:	4a742400 	.word	0x4a742400
 8003ef0:	39000000 	.word	0x39000000
 8003ef4:	03d09000 	.word	0x03d09000
 8003ef8:	4c742400 	.word	0x4c742400
 8003efc:	4af42400 	.word	0x4af42400

08003f00 <HAL_RTC_WaitForSynchro>:
  *         correctly copied into the RTC_TR and RTC_DR shadow registers.
  * @param  hrtc RTC handle
  * @retval HAL status
  */
HAL_StatusTypeDef HAL_RTC_WaitForSynchro(RTC_HandleTypeDef *hrtc)
{
 8003f00:	b538      	push	{r3, r4, r5, lr}
 8003f02:	4604      	mov	r4, r0
  /* Clear RSF flag */
#if defined(RTC_ICSR_RSF)
  hrtc->Instance->ICSR &= (uint32_t)RTC_RSF_MASK;
#endif /* RTC_ICSR_RSF */
#if defined(RTC_ISR_RSF)
  hrtc->Instance->ISR &= (uint32_t)RTC_RSF_MASK;
 8003f04:	6802      	ldr	r2, [r0, #0]
 8003f06:	68d3      	ldr	r3, [r2, #12]
 8003f08:	f023 03a0 	bic.w	r3, r3, #160	; 0xa0
 8003f0c:	60d3      	str	r3, [r2, #12]
#endif /* RTC_ISR_RSF */

  tickstart = HAL_GetTick();
 8003f0e:	f7fc fbed 	bl	80006ec <HAL_GetTick>
 8003f12:	4605      	mov	r5, r0
  /* Wait the registers to be synchronised */
#if defined(RTC_ICSR_RSF)
  while ((hrtc->Instance->ICSR & RTC_ICSR_RSF) == 0U)
#endif /* RTC_ICSR_RSF */
#if defined(RTC_ISR_RSF)
    while ((hrtc->Instance->ISR & RTC_ISR_RSF) == 0U)
 8003f14:	6823      	ldr	r3, [r4, #0]
 8003f16:	68db      	ldr	r3, [r3, #12]
 8003f18:	f013 0f20 	tst.w	r3, #32
 8003f1c:	d107      	bne.n	8003f2e <HAL_RTC_WaitForSynchro+0x2e>
#endif /* RTC_ISR_RSF */
    {
      if((HAL_GetTick() - tickstart) > RTC_TIMEOUT_VALUE)
 8003f1e:	f7fc fbe5 	bl	80006ec <HAL_GetTick>
 8003f22:	1b40      	subs	r0, r0, r5
 8003f24:	f5b0 7f7a 	cmp.w	r0, #1000	; 0x3e8
 8003f28:	d9f4      	bls.n	8003f14 <HAL_RTC_WaitForSynchro+0x14>
      {
        return HAL_TIMEOUT;
 8003f2a:	2003      	movs	r0, #3
 8003f2c:	e000      	b.n	8003f30 <HAL_RTC_WaitForSynchro+0x30>
      }
    }

  return HAL_OK;
 8003f2e:	2000      	movs	r0, #0
}
 8003f30:	bd38      	pop	{r3, r4, r5, pc}

08003f32 <RTC_EnterInitMode>:
  *         __HAL_RTC_WRITEPROTECTION_DISABLE() before calling this function.
  * @param  hrtc RTC handle
  * @retval HAL status
  */
HAL_StatusTypeDef RTC_EnterInitMode(RTC_HandleTypeDef *hrtc)
{
 8003f32:	b570      	push	{r4, r5, r6, lr}
      }
    }
  }
#endif /* RTC_ICSR_INITF */
#if defined(RTC_ISR_INITF)
  if((hrtc->Instance->ISR & RTC_ISR_INITF) == 0U)
 8003f34:	6803      	ldr	r3, [r0, #0]
 8003f36:	68da      	ldr	r2, [r3, #12]
 8003f38:	f012 0f40 	tst.w	r2, #64	; 0x40
 8003f3c:	d002      	beq.n	8003f44 <RTC_EnterInitMode+0x12>
  HAL_StatusTypeDef status = HAL_OK;
 8003f3e:	2600      	movs	r6, #0
    }
  }
#endif /* RTC_ISR_INITF */

  return status;
}
 8003f40:	4630      	mov	r0, r6
 8003f42:	bd70      	pop	{r4, r5, r6, pc}
 8003f44:	4604      	mov	r4, r0
    hrtc->Instance->ISR = (uint32_t)RTC_INIT_MASK;
 8003f46:	f04f 32ff 	mov.w	r2, #4294967295
 8003f4a:	60da      	str	r2, [r3, #12]
    tickstart = HAL_GetTick();
 8003f4c:	f7fc fbce 	bl	80006ec <HAL_GetTick>
 8003f50:	4605      	mov	r5, r0
  HAL_StatusTypeDef status = HAL_OK;
 8003f52:	2600      	movs	r6, #0
    while ((hrtc->Instance->ISR & RTC_ISR_INITF) == 0U)
 8003f54:	6823      	ldr	r3, [r4, #0]
 8003f56:	68db      	ldr	r3, [r3, #12]
 8003f58:	f013 0f40 	tst.w	r3, #64	; 0x40
 8003f5c:	d1f0      	bne.n	8003f40 <RTC_EnterInitMode+0xe>
      if((HAL_GetTick()  - tickstart) > RTC_TIMEOUT_VALUE)
 8003f5e:	f7fc fbc5 	bl	80006ec <HAL_GetTick>
 8003f62:	1b40      	subs	r0, r0, r5
 8003f64:	f5b0 7f7a 	cmp.w	r0, #1000	; 0x3e8
 8003f68:	d9f4      	bls.n	8003f54 <RTC_EnterInitMode+0x22>
        hrtc->State = HAL_RTC_STATE_TIMEOUT;
 8003f6a:	2603      	movs	r6, #3
 8003f6c:	f884 6021 	strb.w	r6, [r4, #33]	; 0x21
 8003f70:	e7f0      	b.n	8003f54 <RTC_EnterInitMode+0x22>
	...

08003f74 <RTC_ExitInitMode>:
  * @brief  Exit the RTC Initialization mode.
  * @param  hrtc RTC handle
  * @retval HAL status
  */
HAL_StatusTypeDef RTC_ExitInitMode(RTC_HandleTypeDef *hrtc)
{
 8003f74:	b510      	push	{r4, lr}
 8003f76:	4604      	mov	r4, r0
  CLEAR_BIT(RTC->ICSR, RTC_ICSR_INIT);

#elif defined(RTC_ISR_INITF)

  /* Exit Initialization mode */
  CLEAR_BIT(RTC->ISR, RTC_ISR_INITF);
 8003f78:	4b10      	ldr	r3, [pc, #64]	; (8003fbc <RTC_ExitInitMode+0x48>)
 8003f7a:	68da      	ldr	r2, [r3, #12]
 8003f7c:	f022 0240 	bic.w	r2, r2, #64	; 0x40
 8003f80:	60da      	str	r2, [r3, #12]

#endif /* RTC_ISR_INITF */
  /* If CR_BYPSHAD bit = 0, wait for synchro */
  if (READ_BIT(RTC->CR, RTC_CR_BYPSHAD) == 0U)
 8003f82:	689b      	ldr	r3, [r3, #8]
 8003f84:	f013 0f20 	tst.w	r3, #32
 8003f88:	d106      	bne.n	8003f98 <RTC_ExitInitMode+0x24>
  {
    if (HAL_RTC_WaitForSynchro(hrtc) != HAL_OK)
 8003f8a:	f7ff ffb9 	bl	8003f00 <HAL_RTC_WaitForSynchro>
 8003f8e:	b198      	cbz	r0, 8003fb8 <RTC_ExitInitMode+0x44>
    {
      hrtc->State = HAL_RTC_STATE_TIMEOUT;
 8003f90:	2003      	movs	r0, #3
 8003f92:	f884 0021 	strb.w	r0, [r4, #33]	; 0x21
      status = HAL_TIMEOUT;
 8003f96:	e00f      	b.n	8003fb8 <RTC_ExitInitMode+0x44>
    }
  }
  else
  {
    /* Clear BYPSHAD bit */
    CLEAR_BIT(RTC->CR, RTC_CR_BYPSHAD);
 8003f98:	4a08      	ldr	r2, [pc, #32]	; (8003fbc <RTC_ExitInitMode+0x48>)
 8003f9a:	6893      	ldr	r3, [r2, #8]
 8003f9c:	f023 0320 	bic.w	r3, r3, #32
 8003fa0:	6093      	str	r3, [r2, #8]
    if (HAL_RTC_WaitForSynchro(hrtc) != HAL_OK)
 8003fa2:	f7ff ffad 	bl	8003f00 <HAL_RTC_WaitForSynchro>
 8003fa6:	b110      	cbz	r0, 8003fae <RTC_ExitInitMode+0x3a>
    {
      hrtc->State = HAL_RTC_STATE_TIMEOUT;
 8003fa8:	2003      	movs	r0, #3
 8003faa:	f884 0021 	strb.w	r0, [r4, #33]	; 0x21
      status = HAL_TIMEOUT;
    }
    /* Restore BYPSHAD bit */
    SET_BIT(RTC->CR, RTC_CR_BYPSHAD);
 8003fae:	4a03      	ldr	r2, [pc, #12]	; (8003fbc <RTC_ExitInitMode+0x48>)
 8003fb0:	6893      	ldr	r3, [r2, #8]
 8003fb2:	f043 0320 	orr.w	r3, r3, #32
 8003fb6:	6093      	str	r3, [r2, #8]
  }

  return status;
}
 8003fb8:	bd10      	pop	{r4, pc}
 8003fba:	bf00      	nop
 8003fbc:	58004000 	.word	0x58004000

08003fc0 <HAL_RTC_Init>:
  if(hrtc != NULL)
 8003fc0:	2800      	cmp	r0, #0
 8003fc2:	d044      	beq.n	800404e <HAL_RTC_Init+0x8e>
{
 8003fc4:	b538      	push	{r3, r4, r5, lr}
 8003fc6:	4604      	mov	r4, r0
    if(hrtc->State == HAL_RTC_STATE_RESET)
 8003fc8:	f890 3021 	ldrb.w	r3, [r0, #33]	; 0x21
 8003fcc:	b1a3      	cbz	r3, 8003ff8 <HAL_RTC_Init+0x38>
    hrtc->State = HAL_RTC_STATE_BUSY;
 8003fce:	2302      	movs	r3, #2
 8003fd0:	f884 3021 	strb.w	r3, [r4, #33]	; 0x21
    __HAL_RTC_WRITEPROTECTION_DISABLE(hrtc);
 8003fd4:	6823      	ldr	r3, [r4, #0]
 8003fd6:	22ca      	movs	r2, #202	; 0xca
 8003fd8:	625a      	str	r2, [r3, #36]	; 0x24
 8003fda:	6823      	ldr	r3, [r4, #0]
 8003fdc:	2253      	movs	r2, #83	; 0x53
 8003fde:	625a      	str	r2, [r3, #36]	; 0x24
    status = RTC_EnterInitMode(hrtc);
 8003fe0:	4620      	mov	r0, r4
 8003fe2:	f7ff ffa6 	bl	8003f32 <RTC_EnterInitMode>
    if (status == HAL_OK)
 8003fe6:	b160      	cbz	r0, 8004002 <HAL_RTC_Init+0x42>
    __HAL_RTC_WRITEPROTECTION_ENABLE(hrtc);
 8003fe8:	6823      	ldr	r3, [r4, #0]
 8003fea:	22ff      	movs	r2, #255	; 0xff
 8003fec:	625a      	str	r2, [r3, #36]	; 0x24
    if (status == HAL_OK)
 8003fee:	b910      	cbnz	r0, 8003ff6 <HAL_RTC_Init+0x36>
      hrtc->State = HAL_RTC_STATE_READY;
 8003ff0:	2301      	movs	r3, #1
 8003ff2:	f884 3021 	strb.w	r3, [r4, #33]	; 0x21
}
 8003ff6:	bd38      	pop	{r3, r4, r5, pc}
      hrtc->Lock = HAL_UNLOCKED;
 8003ff8:	f880 3020 	strb.w	r3, [r0, #32]
      HAL_RTC_MspInit(hrtc);
 8003ffc:	f003 fd0c 	bl	8007a18 <HAL_RTC_MspInit>
 8004000:	e7e5      	b.n	8003fce <HAL_RTC_Init+0xe>
      hrtc->Instance->CR &= ~(RTC_CR_FMT | RTC_CR_OSEL | RTC_CR_POL);
 8004002:	6822      	ldr	r2, [r4, #0]
 8004004:	6891      	ldr	r1, [r2, #8]
 8004006:	4b13      	ldr	r3, [pc, #76]	; (8004054 <HAL_RTC_Init+0x94>)
 8004008:	400b      	ands	r3, r1
 800400a:	6093      	str	r3, [r2, #8]
      hrtc->Instance->CR |= (hrtc->Init.HourFormat | hrtc->Init.OutPut | hrtc->Init.OutPutPolarity);
 800400c:	6821      	ldr	r1, [r4, #0]
 800400e:	688a      	ldr	r2, [r1, #8]
 8004010:	6863      	ldr	r3, [r4, #4]
 8004012:	6920      	ldr	r0, [r4, #16]
 8004014:	4303      	orrs	r3, r0
 8004016:	69a0      	ldr	r0, [r4, #24]
 8004018:	4303      	orrs	r3, r0
 800401a:	4313      	orrs	r3, r2
 800401c:	608b      	str	r3, [r1, #8]
      hrtc->Instance->PRER = (hrtc->Init.AsynchPrediv << RTC_PRER_PREDIV_A_Pos) | (hrtc->Init.SynchPrediv << RTC_PRER_PREDIV_S_Pos);
 800401e:	68a1      	ldr	r1, [r4, #8]
 8004020:	68e3      	ldr	r3, [r4, #12]
 8004022:	6822      	ldr	r2, [r4, #0]
 8004024:	ea43 4301 	orr.w	r3, r3, r1, lsl #16
 8004028:	6113      	str	r3, [r2, #16]
      status = RTC_ExitInitMode(hrtc);
 800402a:	4620      	mov	r0, r4
 800402c:	f7ff ffa2 	bl	8003f74 <RTC_ExitInitMode>
      if(status == HAL_OK)
 8004030:	2800      	cmp	r0, #0
 8004032:	d1d9      	bne.n	8003fe8 <HAL_RTC_Init+0x28>
        hrtc->Instance->OR &= ~(RTC_OR_ALARMOUTTYPE | RTC_OR_OUT_RMP);
 8004034:	6822      	ldr	r2, [r4, #0]
 8004036:	6cd3      	ldr	r3, [r2, #76]	; 0x4c
 8004038:	f023 0303 	bic.w	r3, r3, #3
 800403c:	64d3      	str	r3, [r2, #76]	; 0x4c
        hrtc->Instance->OR |= (hrtc->Init.OutPutType | hrtc->Init.OutPutRemap);
 800403e:	6821      	ldr	r1, [r4, #0]
 8004040:	6ccb      	ldr	r3, [r1, #76]	; 0x4c
 8004042:	69e2      	ldr	r2, [r4, #28]
 8004044:	6965      	ldr	r5, [r4, #20]
 8004046:	432a      	orrs	r2, r5
 8004048:	4313      	orrs	r3, r2
 800404a:	64cb      	str	r3, [r1, #76]	; 0x4c
 800404c:	e7cc      	b.n	8003fe8 <HAL_RTC_Init+0x28>
  HAL_StatusTypeDef status = HAL_ERROR;
 800404e:	2001      	movs	r0, #1
}
 8004050:	4770      	bx	lr
 8004052:	bf00      	nop
 8004054:	ff8fffbf 	.word	0xff8fffbf

08004058 <RTC_ByteToBcd2>:
  * @param  Value Byte to be converted
  * @retval Converted byte
  */
uint8_t RTC_ByteToBcd2(uint8_t Value)
{
  uint32_t bcdhigh = 0U;
 8004058:	2300      	movs	r3, #0
  uint8_t  bcdlow  = Value;

  while (bcdlow >= 10U)
 800405a:	2809      	cmp	r0, #9
 800405c:	d903      	bls.n	8004066 <RTC_ByteToBcd2+0xe>
  {
    bcdhigh++;
 800405e:	3301      	adds	r3, #1
    bcdlow -= 10U;
 8004060:	380a      	subs	r0, #10
 8004062:	b2c0      	uxtb	r0, r0
 8004064:	e7f9      	b.n	800405a <RTC_ByteToBcd2+0x2>
  }

  return ((uint8_t)(bcdhigh << 4U) | bcdlow);
 8004066:	011b      	lsls	r3, r3, #4
 8004068:	b2db      	uxtb	r3, r3
}
 800406a:	4318      	orrs	r0, r3
 800406c:	4770      	bx	lr
	...

08004070 <HAL_RTC_SetTime>:
  __HAL_LOCK(hrtc);
 8004070:	f890 3020 	ldrb.w	r3, [r0, #32]
 8004074:	2b01      	cmp	r3, #1
 8004076:	d05b      	beq.n	8004130 <HAL_RTC_SetTime+0xc0>
{
 8004078:	b570      	push	{r4, r5, r6, lr}
 800407a:	4604      	mov	r4, r0
 800407c:	460d      	mov	r5, r1
 800407e:	4616      	mov	r6, r2
  __HAL_LOCK(hrtc);
 8004080:	2301      	movs	r3, #1
 8004082:	f880 3020 	strb.w	r3, [r0, #32]
  hrtc->State = HAL_RTC_STATE_BUSY;
 8004086:	2302      	movs	r3, #2
 8004088:	f880 3021 	strb.w	r3, [r0, #33]	; 0x21
  __HAL_RTC_WRITEPROTECTION_DISABLE(hrtc);
 800408c:	6803      	ldr	r3, [r0, #0]
 800408e:	22ca      	movs	r2, #202	; 0xca
 8004090:	625a      	str	r2, [r3, #36]	; 0x24
 8004092:	6803      	ldr	r3, [r0, #0]
 8004094:	2253      	movs	r2, #83	; 0x53
 8004096:	625a      	str	r2, [r3, #36]	; 0x24
  status = RTC_EnterInitMode(hrtc);
 8004098:	f7ff ff4b 	bl	8003f32 <RTC_EnterInitMode>
  if (status == HAL_OK)
 800409c:	bb58      	cbnz	r0, 80040f6 <HAL_RTC_SetTime+0x86>
    if(Format == RTC_FORMAT_BIN)
 800409e:	2e00      	cmp	r6, #0
 80040a0:	d134      	bne.n	800410c <HAL_RTC_SetTime+0x9c>
      if((hrtc->Instance->CR & RTC_CR_FMT) != 0U)
 80040a2:	6823      	ldr	r3, [r4, #0]
 80040a4:	689b      	ldr	r3, [r3, #8]
 80040a6:	f013 0f40 	tst.w	r3, #64	; 0x40
 80040aa:	d101      	bne.n	80040b0 <HAL_RTC_SetTime+0x40>
        sTime->TimeFormat = 0x00U;
 80040ac:	2300      	movs	r3, #0
 80040ae:	70eb      	strb	r3, [r5, #3]
      tmpreg = (uint32_t)(((uint32_t)RTC_ByteToBcd2(sTime->Hours)   << RTC_TR_HU_Pos)  | \
 80040b0:	7828      	ldrb	r0, [r5, #0]
 80040b2:	f7ff ffd1 	bl	8004058 <RTC_ByteToBcd2>
 80040b6:	0406      	lsls	r6, r0, #16
                          ((uint32_t)RTC_ByteToBcd2(sTime->Minutes) << RTC_TR_MNU_Pos) | \
 80040b8:	7868      	ldrb	r0, [r5, #1]
 80040ba:	f7ff ffcd 	bl	8004058 <RTC_ByteToBcd2>
      tmpreg = (uint32_t)(((uint32_t)RTC_ByteToBcd2(sTime->Hours)   << RTC_TR_HU_Pos)  | \
 80040be:	ea46 2600 	orr.w	r6, r6, r0, lsl #8
                          ((uint32_t)RTC_ByteToBcd2(sTime->Seconds) << RTC_TR_SU_Pos)  | \
 80040c2:	78a8      	ldrb	r0, [r5, #2]
 80040c4:	f7ff ffc8 	bl	8004058 <RTC_ByteToBcd2>
                          ((uint32_t)RTC_ByteToBcd2(sTime->Minutes) << RTC_TR_MNU_Pos) | \
 80040c8:	4330      	orrs	r0, r6
                          (((uint32_t)sTime->TimeFormat) << RTC_TR_PM_Pos));
 80040ca:	78eb      	ldrb	r3, [r5, #3]
      tmpreg = (uint32_t)(((uint32_t)RTC_ByteToBcd2(sTime->Hours)   << RTC_TR_HU_Pos)  | \
 80040cc:	ea40 5083 	orr.w	r0, r0, r3, lsl #22
    hrtc->Instance->TR = (uint32_t)(tmpreg & RTC_TR_RESERVED_MASK);
 80040d0:	6822      	ldr	r2, [r4, #0]
 80040d2:	4b18      	ldr	r3, [pc, #96]	; (8004134 <HAL_RTC_SetTime+0xc4>)
 80040d4:	4003      	ands	r3, r0
 80040d6:	6013      	str	r3, [r2, #0]
    hrtc->Instance->CR &= ((uint32_t)~RTC_CR_BKP);
 80040d8:	6822      	ldr	r2, [r4, #0]
 80040da:	6893      	ldr	r3, [r2, #8]
 80040dc:	f423 2380 	bic.w	r3, r3, #262144	; 0x40000
 80040e0:	6093      	str	r3, [r2, #8]
    hrtc->Instance->CR |= (uint32_t)(sTime->DayLightSaving | sTime->StoreOperation);
 80040e2:	6821      	ldr	r1, [r4, #0]
 80040e4:	688b      	ldr	r3, [r1, #8]
 80040e6:	68ea      	ldr	r2, [r5, #12]
 80040e8:	6928      	ldr	r0, [r5, #16]
 80040ea:	4302      	orrs	r2, r0
 80040ec:	4313      	orrs	r3, r2
 80040ee:	608b      	str	r3, [r1, #8]
    status = RTC_ExitInitMode(hrtc);
 80040f0:	4620      	mov	r0, r4
 80040f2:	f7ff ff3f 	bl	8003f74 <RTC_ExitInitMode>
  __HAL_RTC_WRITEPROTECTION_ENABLE(hrtc);
 80040f6:	6823      	ldr	r3, [r4, #0]
 80040f8:	22ff      	movs	r2, #255	; 0xff
 80040fa:	625a      	str	r2, [r3, #36]	; 0x24
  if (status == HAL_OK)
 80040fc:	b910      	cbnz	r0, 8004104 <HAL_RTC_SetTime+0x94>
    hrtc->State = HAL_RTC_STATE_READY;
 80040fe:	2301      	movs	r3, #1
 8004100:	f884 3021 	strb.w	r3, [r4, #33]	; 0x21
  __HAL_UNLOCK(hrtc);
 8004104:	2300      	movs	r3, #0
 8004106:	f884 3020 	strb.w	r3, [r4, #32]
}
 800410a:	bd70      	pop	{r4, r5, r6, pc}
      if((hrtc->Instance->CR & RTC_CR_FMT) != 0U)
 800410c:	6823      	ldr	r3, [r4, #0]
 800410e:	689b      	ldr	r3, [r3, #8]
 8004110:	f013 0f40 	tst.w	r3, #64	; 0x40
 8004114:	d101      	bne.n	800411a <HAL_RTC_SetTime+0xaa>
        sTime->TimeFormat = 0x00U;
 8004116:	2300      	movs	r3, #0
 8004118:	70eb      	strb	r3, [r5, #3]
      tmpreg = (((uint32_t)(sTime->Hours)   << RTC_TR_HU_Pos)  | \
 800411a:	782b      	ldrb	r3, [r5, #0]
                ((uint32_t)(sTime->Minutes) << RTC_TR_MNU_Pos) | \
 800411c:	7868      	ldrb	r0, [r5, #1]
 800411e:	0200      	lsls	r0, r0, #8
      tmpreg = (((uint32_t)(sTime->Hours)   << RTC_TR_HU_Pos)  | \
 8004120:	ea40 4003 	orr.w	r0, r0, r3, lsl #16
                ((uint32_t)(sTime->Seconds) << RTC_TR_SU_Pos)  | \
 8004124:	78ab      	ldrb	r3, [r5, #2]
                ((uint32_t)(sTime->Minutes) << RTC_TR_MNU_Pos) | \
 8004126:	4318      	orrs	r0, r3
                ((uint32_t)(sTime->TimeFormat) << RTC_TR_PM_Pos));
 8004128:	78eb      	ldrb	r3, [r5, #3]
      tmpreg = (((uint32_t)(sTime->Hours)   << RTC_TR_HU_Pos)  | \
 800412a:	ea40 5083 	orr.w	r0, r0, r3, lsl #22
 800412e:	e7cf      	b.n	80040d0 <HAL_RTC_SetTime+0x60>
  __HAL_LOCK(hrtc);
 8004130:	2002      	movs	r0, #2
}
 8004132:	4770      	bx	lr
 8004134:	007f7f7f 	.word	0x007f7f7f

08004138 <HAL_RTC_SetDate>:
  __HAL_LOCK(hrtc);
 8004138:	f890 3020 	ldrb.w	r3, [r0, #32]
 800413c:	2b01      	cmp	r3, #1
 800413e:	d04a      	beq.n	80041d6 <HAL_RTC_SetDate+0x9e>
{
 8004140:	b570      	push	{r4, r5, r6, lr}
 8004142:	4604      	mov	r4, r0
 8004144:	460e      	mov	r6, r1
  __HAL_LOCK(hrtc);
 8004146:	2301      	movs	r3, #1
 8004148:	f880 3020 	strb.w	r3, [r0, #32]
  hrtc->State = HAL_RTC_STATE_BUSY;
 800414c:	2302      	movs	r3, #2
 800414e:	f880 3021 	strb.w	r3, [r0, #33]	; 0x21
  if((Format == RTC_FORMAT_BIN) && ((sDate->Month & 0x10U) == 0x10U))
 8004152:	b93a      	cbnz	r2, 8004164 <HAL_RTC_SetDate+0x2c>
 8004154:	784b      	ldrb	r3, [r1, #1]
 8004156:	f013 0f10 	tst.w	r3, #16
 800415a:	d003      	beq.n	8004164 <HAL_RTC_SetDate+0x2c>
    sDate->Month = (uint8_t)((sDate->Month & (uint8_t)~(0x10U)) + (uint8_t)0x0AU);
 800415c:	f003 03ef 	and.w	r3, r3, #239	; 0xef
 8004160:	330a      	adds	r3, #10
 8004162:	704b      	strb	r3, [r1, #1]
  if(Format == RTC_FORMAT_BIN)
 8004164:	bb22      	cbnz	r2, 80041b0 <HAL_RTC_SetDate+0x78>
    datetmpreg = (((uint32_t)RTC_ByteToBcd2(sDate->Year)  << RTC_DR_YU_Pos) | \
 8004166:	78f0      	ldrb	r0, [r6, #3]
 8004168:	f7ff ff76 	bl	8004058 <RTC_ByteToBcd2>
 800416c:	0405      	lsls	r5, r0, #16
                  ((uint32_t)RTC_ByteToBcd2(sDate->Month) << RTC_DR_MU_Pos) | \
 800416e:	7870      	ldrb	r0, [r6, #1]
 8004170:	f7ff ff72 	bl	8004058 <RTC_ByteToBcd2>
    datetmpreg = (((uint32_t)RTC_ByteToBcd2(sDate->Year)  << RTC_DR_YU_Pos) | \
 8004174:	ea45 2500 	orr.w	r5, r5, r0, lsl #8
                  ((uint32_t)RTC_ByteToBcd2(sDate->Date)  << RTC_DR_DU_Pos) | \
 8004178:	78b0      	ldrb	r0, [r6, #2]
 800417a:	f7ff ff6d 	bl	8004058 <RTC_ByteToBcd2>
                  ((uint32_t)RTC_ByteToBcd2(sDate->Month) << RTC_DR_MU_Pos) | \
 800417e:	4305      	orrs	r5, r0
                  ((uint32_t)sDate->WeekDay               << RTC_DR_WDU_Pos));
 8004180:	7830      	ldrb	r0, [r6, #0]
    datetmpreg = (((uint32_t)RTC_ByteToBcd2(sDate->Year)  << RTC_DR_YU_Pos) | \
 8004182:	ea45 3540 	orr.w	r5, r5, r0, lsl #13
  __HAL_RTC_WRITEPROTECTION_DISABLE(hrtc);
 8004186:	6823      	ldr	r3, [r4, #0]
 8004188:	22ca      	movs	r2, #202	; 0xca
 800418a:	625a      	str	r2, [r3, #36]	; 0x24
 800418c:	6823      	ldr	r3, [r4, #0]
 800418e:	2253      	movs	r2, #83	; 0x53
 8004190:	625a      	str	r2, [r3, #36]	; 0x24
  status = RTC_EnterInitMode(hrtc);
 8004192:	4620      	mov	r0, r4
 8004194:	f7ff fecd 	bl	8003f32 <RTC_EnterInitMode>
  if (status == HAL_OK)
 8004198:	b1a8      	cbz	r0, 80041c6 <HAL_RTC_SetDate+0x8e>
  __HAL_RTC_WRITEPROTECTION_ENABLE(hrtc);
 800419a:	6823      	ldr	r3, [r4, #0]
 800419c:	22ff      	movs	r2, #255	; 0xff
 800419e:	625a      	str	r2, [r3, #36]	; 0x24
  if (status == HAL_OK)
 80041a0:	b910      	cbnz	r0, 80041a8 <HAL_RTC_SetDate+0x70>
    hrtc->State = HAL_RTC_STATE_READY;
 80041a2:	2301      	movs	r3, #1
 80041a4:	f884 3021 	strb.w	r3, [r4, #33]	; 0x21
  __HAL_UNLOCK(hrtc);
 80041a8:	2300      	movs	r3, #0
 80041aa:	f884 3020 	strb.w	r3, [r4, #32]
}
 80041ae:	bd70      	pop	{r4, r5, r6, pc}
    datetmpreg = ((((uint32_t)sDate->Year)    << RTC_DR_YU_Pos) | \
 80041b0:	78f3      	ldrb	r3, [r6, #3]
                  (((uint32_t)sDate->Month)   << RTC_DR_MU_Pos) | \
 80041b2:	7875      	ldrb	r5, [r6, #1]
 80041b4:	022d      	lsls	r5, r5, #8
    datetmpreg = ((((uint32_t)sDate->Year)    << RTC_DR_YU_Pos) | \
 80041b6:	ea45 4503 	orr.w	r5, r5, r3, lsl #16
                  (((uint32_t)sDate->Date)    << RTC_DR_DU_Pos) | \
 80041ba:	78b0      	ldrb	r0, [r6, #2]
                  (((uint32_t)sDate->Month)   << RTC_DR_MU_Pos) | \
 80041bc:	4305      	orrs	r5, r0
                  (((uint32_t)sDate->WeekDay) << RTC_DR_WDU_Pos));
 80041be:	7830      	ldrb	r0, [r6, #0]
    datetmpreg = ((((uint32_t)sDate->Year)    << RTC_DR_YU_Pos) | \
 80041c0:	ea45 3540 	orr.w	r5, r5, r0, lsl #13
 80041c4:	e7df      	b.n	8004186 <HAL_RTC_SetDate+0x4e>
    hrtc->Instance->DR = (uint32_t)(datetmpreg & RTC_DR_RESERVED_MASK);
 80041c6:	6822      	ldr	r2, [r4, #0]
 80041c8:	4b04      	ldr	r3, [pc, #16]	; (80041dc <HAL_RTC_SetDate+0xa4>)
 80041ca:	402b      	ands	r3, r5
 80041cc:	6053      	str	r3, [r2, #4]
    status = RTC_ExitInitMode(hrtc);
 80041ce:	4620      	mov	r0, r4
 80041d0:	f7ff fed0 	bl	8003f74 <RTC_ExitInitMode>
 80041d4:	e7e1      	b.n	800419a <HAL_RTC_SetDate+0x62>
  __HAL_LOCK(hrtc);
 80041d6:	2002      	movs	r0, #2
}
 80041d8:	4770      	bx	lr
 80041da:	bf00      	nop
 80041dc:	00ffff3f 	.word	0x00ffff3f

080041e0 <SPI_GetPacketSize>:
  *               the configuration information for SPI module.
  * @retval Packet size occupied in the fifo
  */
static uint32_t SPI_GetPacketSize(SPI_HandleTypeDef *hspi)
{
  uint32_t fifo_threashold = (hspi->Init.FifoThreshold >> SPI_CFG1_FTHLV_Pos) + 1UL;
 80041e0:	6bc3      	ldr	r3, [r0, #60]	; 0x3c
 80041e2:	095b      	lsrs	r3, r3, #5
  uint32_t data_size       = (hspi->Init.DataSize      >> SPI_CFG1_DSIZE_Pos) + 1UL;
 80041e4:	68c0      	ldr	r0, [r0, #12]

  /* Convert data size to Byte */
  data_size = (data_size + 7UL) / 8UL;
 80041e6:	3008      	adds	r0, #8
 80041e8:	08c0      	lsrs	r0, r0, #3

  return data_size * fifo_threashold;
}
 80041ea:	fb03 0000 	mla	r0, r3, r0, r0
 80041ee:	4770      	bx	lr

080041f0 <HAL_SPI_Init>:
  if (hspi == NULL)
 80041f0:	2800      	cmp	r0, #0
 80041f2:	f000 8097 	beq.w	8004324 <HAL_SPI_Init+0x134>
{
 80041f6:	b570      	push	{r4, r5, r6, lr}
 80041f8:	4604      	mov	r4, r0
  hspi->Init.CRCCalculation = SPI_CRCCALCULATION_DISABLE;
 80041fa:	2300      	movs	r3, #0
 80041fc:	6283      	str	r3, [r0, #40]	; 0x28
  if ((!IS_SPI_HIGHEND_INSTANCE(hspi->Instance)) && (hspi->Init.DataSize > SPI_DATASIZE_16BIT))
 80041fe:	6805      	ldr	r5, [r0, #0]
 8004200:	4b4c      	ldr	r3, [pc, #304]	; (8004334 <HAL_SPI_Init+0x144>)
 8004202:	4e4d      	ldr	r6, [pc, #308]	; (8004338 <HAL_SPI_Init+0x148>)
 8004204:	429d      	cmp	r5, r3
 8004206:	bf18      	it	ne
 8004208:	42b5      	cmpne	r5, r6
 800420a:	bf14      	ite	ne
 800420c:	2601      	movne	r6, #1
 800420e:	2600      	moveq	r6, #0
 8004210:	d007      	beq.n	8004222 <HAL_SPI_Init+0x32>
 8004212:	f5a3 4374 	sub.w	r3, r3, #62464	; 0xf400
 8004216:	429d      	cmp	r5, r3
 8004218:	d003      	beq.n	8004222 <HAL_SPI_Init+0x32>
 800421a:	68c3      	ldr	r3, [r0, #12]
 800421c:	2b0f      	cmp	r3, #15
 800421e:	f200 8083 	bhi.w	8004328 <HAL_SPI_Init+0x138>
  packet_length = SPI_GetPacketSize(hspi);
 8004222:	4620      	mov	r0, r4
 8004224:	f7ff ffdc 	bl	80041e0 <SPI_GetPacketSize>
  if (((!IS_SPI_HIGHEND_INSTANCE(hspi->Instance)) && (packet_length > SPI_LOWEND_FIFO_SIZE)) ||
 8004228:	b126      	cbz	r6, 8004234 <HAL_SPI_Init+0x44>
 800422a:	4b44      	ldr	r3, [pc, #272]	; (800433c <HAL_SPI_Init+0x14c>)
 800422c:	429d      	cmp	r5, r3
 800422e:	d001      	beq.n	8004234 <HAL_SPI_Init+0x44>
 8004230:	2808      	cmp	r0, #8
 8004232:	d87b      	bhi.n	800432c <HAL_SPI_Init+0x13c>
 8004234:	4a3f      	ldr	r2, [pc, #252]	; (8004334 <HAL_SPI_Init+0x144>)
 8004236:	4b40      	ldr	r3, [pc, #256]	; (8004338 <HAL_SPI_Init+0x148>)
 8004238:	429d      	cmp	r5, r3
 800423a:	bf18      	it	ne
 800423c:	4295      	cmpne	r5, r2
 800423e:	d003      	beq.n	8004248 <HAL_SPI_Init+0x58>
      ((IS_SPI_HIGHEND_INSTANCE(hspi->Instance)) && (packet_length > SPI_HIGHEND_FIFO_SIZE)))
 8004240:	f503 6380 	add.w	r3, r3, #1024	; 0x400
 8004244:	429d      	cmp	r5, r3
 8004246:	d101      	bne.n	800424c <HAL_SPI_Init+0x5c>
 8004248:	2810      	cmp	r0, #16
 800424a:	d871      	bhi.n	8004330 <HAL_SPI_Init+0x140>
  if (hspi->State == HAL_SPI_STATE_RESET)
 800424c:	f894 3081 	ldrb.w	r3, [r4, #129]	; 0x81
 8004250:	2b00      	cmp	r3, #0
 8004252:	d054      	beq.n	80042fe <HAL_SPI_Init+0x10e>
  hspi->State = HAL_SPI_STATE_BUSY;
 8004254:	2302      	movs	r3, #2
 8004256:	f884 3081 	strb.w	r3, [r4, #129]	; 0x81
  __HAL_SPI_DISABLE(hspi);
 800425a:	6822      	ldr	r2, [r4, #0]
 800425c:	6813      	ldr	r3, [r2, #0]
 800425e:	f023 0301 	bic.w	r3, r3, #1
 8004262:	6013      	str	r3, [r2, #0]
  if ((hspi->Init.NSS == SPI_NSS_SOFT) && (hspi->Init.Mode == SPI_MODE_MASTER) && (hspi->Init.NSSPolarity == SPI_NSS_POLARITY_LOW))
 8004264:	69a3      	ldr	r3, [r4, #24]
 8004266:	f1b3 6f80 	cmp.w	r3, #67108864	; 0x4000000
 800426a:	d04e      	beq.n	800430a <HAL_SPI_Init+0x11a>
  WRITE_REG(hspi->Instance->CFG1, (hspi->Init.BaudRatePrescaler | hspi->Init.CRCCalculation | crc_length |
 800426c:	69e3      	ldr	r3, [r4, #28]
 800426e:	6aa2      	ldr	r2, [r4, #40]	; 0x28
 8004270:	4313      	orrs	r3, r2
 8004272:	6be2      	ldr	r2, [r4, #60]	; 0x3c
 8004274:	4313      	orrs	r3, r2
 8004276:	68e1      	ldr	r1, [r4, #12]
 8004278:	6822      	ldr	r2, [r4, #0]
 800427a:	430b      	orrs	r3, r1
 800427c:	6093      	str	r3, [r2, #8]
  WRITE_REG(hspi->Instance->CFG2, (hspi->Init.NSSPMode     | hspi->Init.TIMode           | hspi->Init.NSSPolarity             |
 800427e:	6b63      	ldr	r3, [r4, #52]	; 0x34
 8004280:	6a62      	ldr	r2, [r4, #36]	; 0x24
 8004282:	4313      	orrs	r3, r2
 8004284:	6ba2      	ldr	r2, [r4, #56]	; 0x38
 8004286:	4313      	orrs	r3, r2
 8004288:	69a2      	ldr	r2, [r4, #24]
 800428a:	4313      	orrs	r3, r2
 800428c:	6922      	ldr	r2, [r4, #16]
 800428e:	4313      	orrs	r3, r2
 8004290:	6962      	ldr	r2, [r4, #20]
 8004292:	4313      	orrs	r3, r2
 8004294:	6a22      	ldr	r2, [r4, #32]
 8004296:	4313      	orrs	r3, r2
 8004298:	6862      	ldr	r2, [r4, #4]
 800429a:	4313      	orrs	r3, r2
 800429c:	6ce2      	ldr	r2, [r4, #76]	; 0x4c
 800429e:	4313      	orrs	r3, r2
 80042a0:	68a2      	ldr	r2, [r4, #8]
 80042a2:	4313      	orrs	r3, r2
 80042a4:	6ca2      	ldr	r2, [r4, #72]	; 0x48
 80042a6:	4313      	orrs	r3, r2
 80042a8:	6da1      	ldr	r1, [r4, #88]	; 0x58
 80042aa:	6822      	ldr	r2, [r4, #0]
 80042ac:	430b      	orrs	r3, r1
 80042ae:	60d3      	str	r3, [r2, #12]
  if (hspi->Init.Mode == SPI_MODE_SLAVE)
 80042b0:	6863      	ldr	r3, [r4, #4]
 80042b2:	b96b      	cbnz	r3, 80042d0 <HAL_SPI_Init+0xe0>
      MODIFY_REG(hspi->Instance->CFG1, SPI_CFG1_UDRDET, SPI_CFG1_UDRDET_0);
 80042b4:	6822      	ldr	r2, [r4, #0]
 80042b6:	6893      	ldr	r3, [r2, #8]
 80042b8:	f423 53c0 	bic.w	r3, r3, #6144	; 0x1800
 80042bc:	f443 6300 	orr.w	r3, r3, #2048	; 0x800
 80042c0:	6093      	str	r3, [r2, #8]
    MODIFY_REG(hspi->Instance->CFG1, SPI_CFG1_UDRCFG, SPI_CFG1_UDRCFG_1);
 80042c2:	6822      	ldr	r2, [r4, #0]
 80042c4:	6893      	ldr	r3, [r2, #8]
 80042c6:	f423 63c0 	bic.w	r3, r3, #1536	; 0x600
 80042ca:	f443 6380 	orr.w	r3, r3, #1024	; 0x400
 80042ce:	6093      	str	r3, [r2, #8]
  CLEAR_BIT(hspi->Instance->I2SCFGR, SPI_I2SCFGR_I2SMOD);
 80042d0:	6822      	ldr	r2, [r4, #0]
 80042d2:	6d13      	ldr	r3, [r2, #80]	; 0x50
 80042d4:	f023 0301 	bic.w	r3, r3, #1
 80042d8:	6513      	str	r3, [r2, #80]	; 0x50
  if ((hspi->Init.Mode & SPI_MODE_MASTER) == SPI_MODE_MASTER)
 80042da:	6863      	ldr	r3, [r4, #4]
 80042dc:	f413 0f80 	tst.w	r3, #4194304	; 0x400000
 80042e0:	d006      	beq.n	80042f0 <HAL_SPI_Init+0x100>
    MODIFY_REG(hspi->Instance->CFG2, SPI_CFG2_AFCNTR, (hspi->Init.MasterKeepIOState));
 80042e2:	6822      	ldr	r2, [r4, #0]
 80042e4:	68d3      	ldr	r3, [r2, #12]
 80042e6:	f023 4300 	bic.w	r3, r3, #2147483648	; 0x80000000
 80042ea:	6d61      	ldr	r1, [r4, #84]	; 0x54
 80042ec:	430b      	orrs	r3, r1
 80042ee:	60d3      	str	r3, [r2, #12]
  hspi->ErrorCode = HAL_SPI_ERROR_NONE;
 80042f0:	2000      	movs	r0, #0
 80042f2:	f8c4 0084 	str.w	r0, [r4, #132]	; 0x84
  hspi->State     = HAL_SPI_STATE_READY;
 80042f6:	2301      	movs	r3, #1
 80042f8:	f884 3081 	strb.w	r3, [r4, #129]	; 0x81
}
 80042fc:	bd70      	pop	{r4, r5, r6, pc}
    hspi->Lock = HAL_UNLOCKED;
 80042fe:	f884 3080 	strb.w	r3, [r4, #128]	; 0x80
    HAL_SPI_MspInit(hspi);
 8004302:	4620      	mov	r0, r4
 8004304:	f003 fb98 	bl	8007a38 <HAL_SPI_MspInit>
 8004308:	e7a4      	b.n	8004254 <HAL_SPI_Init+0x64>
  if ((hspi->Init.NSS == SPI_NSS_SOFT) && (hspi->Init.Mode == SPI_MODE_MASTER) && (hspi->Init.NSSPolarity == SPI_NSS_POLARITY_LOW))
 800430a:	6863      	ldr	r3, [r4, #4]
 800430c:	f5b3 0f80 	cmp.w	r3, #4194304	; 0x400000
 8004310:	d1ac      	bne.n	800426c <HAL_SPI_Init+0x7c>
 8004312:	6ba3      	ldr	r3, [r4, #56]	; 0x38
 8004314:	2b00      	cmp	r3, #0
 8004316:	d1a9      	bne.n	800426c <HAL_SPI_Init+0x7c>
    SET_BIT(hspi->Instance->CR1, SPI_CR1_SSI);
 8004318:	6822      	ldr	r2, [r4, #0]
 800431a:	6813      	ldr	r3, [r2, #0]
 800431c:	f443 5380 	orr.w	r3, r3, #4096	; 0x1000
 8004320:	6013      	str	r3, [r2, #0]
 8004322:	e7a3      	b.n	800426c <HAL_SPI_Init+0x7c>
    return HAL_ERROR;
 8004324:	2001      	movs	r0, #1
}
 8004326:	4770      	bx	lr
    return HAL_ERROR;
 8004328:	2001      	movs	r0, #1
 800432a:	e7e7      	b.n	80042fc <HAL_SPI_Init+0x10c>
    return HAL_ERROR;
 800432c:	2001      	movs	r0, #1
 800432e:	e7e5      	b.n	80042fc <HAL_SPI_Init+0x10c>
 8004330:	2001      	movs	r0, #1
 8004332:	e7e3      	b.n	80042fc <HAL_SPI_Init+0x10c>
 8004334:	40013000 	.word	0x40013000
 8004338:	40003800 	.word	0x40003800
 800433c:	40003c00 	.word	0x40003c00

08004340 <TIM_OC1_SetConfig>:
  * @param  TIMx to select the TIM peripheral
  * @param  OC_Config The ouput configuration structure
  * @retval None
  */
static void TIM_OC1_SetConfig(TIM_TypeDef *TIMx, TIM_OC_InitTypeDef *OC_Config)
{
 8004340:	b4f0      	push	{r4, r5, r6, r7}
  uint32_t tmpccmrx;
  uint32_t tmpccer;
  uint32_t tmpcr2;

  /* Disable the Channel 1: Reset the CC1E Bit */
  TIMx->CCER &= ~TIM_CCER_CC1E;
 8004342:	6a03      	ldr	r3, [r0, #32]
 8004344:	f023 0301 	bic.w	r3, r3, #1
 8004348:	6203      	str	r3, [r0, #32]

  /* Get the TIMx CCER register value */
  tmpccer = TIMx->CCER;
 800434a:	6a03      	ldr	r3, [r0, #32]
  /* Get the TIMx CR2 register value */
  tmpcr2 =  TIMx->CR2;
 800434c:	6844      	ldr	r4, [r0, #4]

  /* Get the TIMx CCMR1 register value */
  tmpccmrx = TIMx->CCMR1;
 800434e:	6985      	ldr	r5, [r0, #24]

  /* Reset the Output Compare Mode Bits */
  tmpccmrx &= ~TIM_CCMR1_OC1M;
  tmpccmrx &= ~TIM_CCMR1_CC1S;
 8004350:	4a1e      	ldr	r2, [pc, #120]	; (80043cc <TIM_OC1_SetConfig+0x8c>)
 8004352:	402a      	ands	r2, r5
  /* Select the Output Compare Mode */
  tmpccmrx |= OC_Config->OCMode;
 8004354:	680e      	ldr	r6, [r1, #0]
 8004356:	4316      	orrs	r6, r2

  /* Reset the Output Polarity level */
  tmpccer &= ~TIM_CCER_CC1P;
 8004358:	f023 0302 	bic.w	r3, r3, #2
  /* Set the Output Compare Polarity */
  tmpccer |= OC_Config->OCPolarity;
 800435c:	688d      	ldr	r5, [r1, #8]
 800435e:	432b      	orrs	r3, r5

  if (IS_TIM_CCXN_INSTANCE(TIMx, TIM_CHANNEL_1))
 8004360:	4a1b      	ldr	r2, [pc, #108]	; (80043d0 <TIM_OC1_SetConfig+0x90>)
 8004362:	4d1c      	ldr	r5, [pc, #112]	; (80043d4 <TIM_OC1_SetConfig+0x94>)
 8004364:	42a8      	cmp	r0, r5
 8004366:	bf18      	it	ne
 8004368:	4290      	cmpne	r0, r2
 800436a:	bf0c      	ite	eq
 800436c:	2201      	moveq	r2, #1
 800436e:	2200      	movne	r2, #0
 8004370:	d00c      	beq.n	800438c <TIM_OC1_SetConfig+0x4c>
 8004372:	f505 4580 	add.w	r5, r5, #16384	; 0x4000
 8004376:	42a8      	cmp	r0, r5
 8004378:	bf14      	ite	ne
 800437a:	2500      	movne	r5, #0
 800437c:	2501      	moveq	r5, #1
 800437e:	4f16      	ldr	r7, [pc, #88]	; (80043d8 <TIM_OC1_SetConfig+0x98>)
 8004380:	42b8      	cmp	r0, r7
 8004382:	d003      	beq.n	800438c <TIM_OC1_SetConfig+0x4c>
 8004384:	b915      	cbnz	r5, 800438c <TIM_OC1_SetConfig+0x4c>
 8004386:	4d15      	ldr	r5, [pc, #84]	; (80043dc <TIM_OC1_SetConfig+0x9c>)
 8004388:	42a8      	cmp	r0, r5
 800438a:	d105      	bne.n	8004398 <TIM_OC1_SetConfig+0x58>
  {
    /* Check parameters */
    assert_param(IS_TIM_OCN_POLARITY(OC_Config->OCNPolarity));

    /* Reset the Output N Polarity level */
    tmpccer &= ~TIM_CCER_CC1NP;
 800438c:	f023 0308 	bic.w	r3, r3, #8
    /* Set the Output N Polarity */
    tmpccer |= OC_Config->OCNPolarity;
 8004390:	68cd      	ldr	r5, [r1, #12]
 8004392:	432b      	orrs	r3, r5
    /* Reset the Output N State */
    tmpccer &= ~TIM_CCER_CC1NE;
 8004394:	f023 0304 	bic.w	r3, r3, #4
  }

  if (IS_TIM_BREAK_INSTANCE(TIMx))
 8004398:	b95a      	cbnz	r2, 80043b2 <TIM_OC1_SetConfig+0x72>
 800439a:	4a11      	ldr	r2, [pc, #68]	; (80043e0 <TIM_OC1_SetConfig+0xa0>)
 800439c:	4290      	cmp	r0, r2
 800439e:	bf14      	ite	ne
 80043a0:	2200      	movne	r2, #0
 80043a2:	2201      	moveq	r2, #1
 80043a4:	4d0c      	ldr	r5, [pc, #48]	; (80043d8 <TIM_OC1_SetConfig+0x98>)
 80043a6:	42a8      	cmp	r0, r5
 80043a8:	d003      	beq.n	80043b2 <TIM_OC1_SetConfig+0x72>
 80043aa:	b912      	cbnz	r2, 80043b2 <TIM_OC1_SetConfig+0x72>
 80043ac:	4a0b      	ldr	r2, [pc, #44]	; (80043dc <TIM_OC1_SetConfig+0x9c>)
 80043ae:	4290      	cmp	r0, r2
 80043b0:	d105      	bne.n	80043be <TIM_OC1_SetConfig+0x7e>
    assert_param(IS_TIM_OCNIDLE_STATE(OC_Config->OCNIdleState));
    assert_param(IS_TIM_OCIDLE_STATE(OC_Config->OCIdleState));

    /* Reset the Output Compare and Output Compare N IDLE State */
    tmpcr2 &= ~TIM_CR2_OIS1;
    tmpcr2 &= ~TIM_CR2_OIS1N;
 80043b2:	f424 7240 	bic.w	r2, r4, #768	; 0x300
    /* Set the Output Idle state */
    tmpcr2 |= OC_Config->OCIdleState;
 80043b6:	694c      	ldr	r4, [r1, #20]
 80043b8:	4314      	orrs	r4, r2
    /* Set the Output N Idle state */
    tmpcr2 |= OC_Config->OCNIdleState;
 80043ba:	698a      	ldr	r2, [r1, #24]
 80043bc:	4314      	orrs	r4, r2
  }

  /* Write to TIMx CR2 */
  TIMx->CR2 = tmpcr2;
 80043be:	6044      	str	r4, [r0, #4]

  /* Write to TIMx CCMR1 */
  TIMx->CCMR1 = tmpccmrx;
 80043c0:	6186      	str	r6, [r0, #24]

  /* Set the Capture Compare Register value */
  TIMx->CCR1 = OC_Config->Pulse;
 80043c2:	684a      	ldr	r2, [r1, #4]
 80043c4:	6342      	str	r2, [r0, #52]	; 0x34

  /* Write to TIMx CCER */
  TIMx->CCER = tmpccer;
 80043c6:	6203      	str	r3, [r0, #32]
}
 80043c8:	bcf0      	pop	{r4, r5, r6, r7}
 80043ca:	4770      	bx	lr
 80043cc:	fffeff8c 	.word	0xfffeff8c
 80043d0:	40010000 	.word	0x40010000
 80043d4:	40010400 	.word	0x40010400
 80043d8:	40014000 	.word	0x40014000
 80043dc:	40014800 	.word	0x40014800
 80043e0:	40014400 	.word	0x40014400

080043e4 <TIM_OC3_SetConfig>:
  * @param  TIMx to select the TIM peripheral
  * @param  OC_Config The ouput configuration structure
  * @retval None
  */
static void TIM_OC3_SetConfig(TIM_TypeDef *TIMx, TIM_OC_InitTypeDef *OC_Config)
{
 80043e4:	b470      	push	{r4, r5, r6}
  uint32_t tmpccmrx;
  uint32_t tmpccer;
  uint32_t tmpcr2;

  /* Disable the Channel 3: Reset the CC2E Bit */
  TIMx->CCER &= ~TIM_CCER_CC3E;
 80043e6:	6a03      	ldr	r3, [r0, #32]
 80043e8:	f423 7380 	bic.w	r3, r3, #256	; 0x100
 80043ec:	6203      	str	r3, [r0, #32]

  /* Get the TIMx CCER register value */
  tmpccer = TIMx->CCER;
 80043ee:	6a03      	ldr	r3, [r0, #32]
  /* Get the TIMx CR2 register value */
  tmpcr2 =  TIMx->CR2;
 80043f0:	6844      	ldr	r4, [r0, #4]

  /* Get the TIMx CCMR2 register value */
  tmpccmrx = TIMx->CCMR2;
 80043f2:	69c2      	ldr	r2, [r0, #28]

  /* Reset the Output Compare mode and Capture/Compare selection Bits */
  tmpccmrx &= ~TIM_CCMR2_OC3M;
  tmpccmrx &= ~TIM_CCMR2_CC3S;
 80043f4:	f022 0273 	bic.w	r2, r2, #115	; 0x73
  /* Select the Output Compare Mode */
  tmpccmrx |= OC_Config->OCMode;
 80043f8:	680e      	ldr	r6, [r1, #0]
 80043fa:	4316      	orrs	r6, r2

  /* Reset the Output Polarity level */
  tmpccer &= ~TIM_CCER_CC3P;
 80043fc:	f423 7300 	bic.w	r3, r3, #512	; 0x200
  /* Set the Output Compare Polarity */
  tmpccer |= (OC_Config->OCPolarity << 8U);
 8004400:	688a      	ldr	r2, [r1, #8]
 8004402:	ea43 2302 	orr.w	r3, r3, r2, lsl #8

  if (IS_TIM_CCXN_INSTANCE(TIMx, TIM_CHANNEL_3))
 8004406:	4a16      	ldr	r2, [pc, #88]	; (8004460 <TIM_OC3_SetConfig+0x7c>)
 8004408:	4d16      	ldr	r5, [pc, #88]	; (8004464 <TIM_OC3_SetConfig+0x80>)
 800440a:	42a8      	cmp	r0, r5
 800440c:	bf18      	it	ne
 800440e:	4290      	cmpne	r0, r2
 8004410:	bf0c      	ite	eq
 8004412:	2201      	moveq	r2, #1
 8004414:	2200      	movne	r2, #0
 8004416:	d106      	bne.n	8004426 <TIM_OC3_SetConfig+0x42>
  {
    assert_param(IS_TIM_OCN_POLARITY(OC_Config->OCNPolarity));

    /* Reset the Output N Polarity level */
    tmpccer &= ~TIM_CCER_CC3NP;
 8004418:	f423 6300 	bic.w	r3, r3, #2048	; 0x800
    /* Set the Output N Polarity */
    tmpccer |= (OC_Config->OCNPolarity << 8U);
 800441c:	68cd      	ldr	r5, [r1, #12]
 800441e:	ea43 2305 	orr.w	r3, r3, r5, lsl #8
    /* Reset the Output N State */
    tmpccer &= ~TIM_CCER_CC3NE;
 8004422:	f423 6380 	bic.w	r3, r3, #1024	; 0x400
  }

  if (IS_TIM_BREAK_INSTANCE(TIMx))
 8004426:	b95a      	cbnz	r2, 8004440 <TIM_OC3_SetConfig+0x5c>
 8004428:	4a0f      	ldr	r2, [pc, #60]	; (8004468 <TIM_OC3_SetConfig+0x84>)
 800442a:	4290      	cmp	r0, r2
 800442c:	bf14      	ite	ne
 800442e:	2200      	movne	r2, #0
 8004430:	2201      	moveq	r2, #1
 8004432:	4d0e      	ldr	r5, [pc, #56]	; (800446c <TIM_OC3_SetConfig+0x88>)
 8004434:	42a8      	cmp	r0, r5
 8004436:	d003      	beq.n	8004440 <TIM_OC3_SetConfig+0x5c>
 8004438:	b912      	cbnz	r2, 8004440 <TIM_OC3_SetConfig+0x5c>
 800443a:	4a0d      	ldr	r2, [pc, #52]	; (8004470 <TIM_OC3_SetConfig+0x8c>)
 800443c:	4290      	cmp	r0, r2
 800443e:	d107      	bne.n	8004450 <TIM_OC3_SetConfig+0x6c>
    assert_param(IS_TIM_OCNIDLE_STATE(OC_Config->OCNIdleState));
    assert_param(IS_TIM_OCIDLE_STATE(OC_Config->OCIdleState));

    /* Reset the Output Compare and Output Compare N IDLE State */
    tmpcr2 &= ~TIM_CR2_OIS3;
    tmpcr2 &= ~TIM_CR2_OIS3N;
 8004440:	f424 5440 	bic.w	r4, r4, #12288	; 0x3000
    /* Set the Output Idle state */
    tmpcr2 |= (OC_Config->OCIdleState << 4U);
 8004444:	694a      	ldr	r2, [r1, #20]
 8004446:	ea44 1402 	orr.w	r4, r4, r2, lsl #4
    /* Set the Output N Idle state */
    tmpcr2 |= (OC_Config->OCNIdleState << 4U);
 800444a:	698a      	ldr	r2, [r1, #24]
 800444c:	ea44 1402 	orr.w	r4, r4, r2, lsl #4
  }

  /* Write to TIMx CR2 */
  TIMx->CR2 = tmpcr2;
 8004450:	6044      	str	r4, [r0, #4]

  /* Write to TIMx CCMR2 */
  TIMx->CCMR2 = tmpccmrx;
 8004452:	61c6      	str	r6, [r0, #28]

  /* Set the Capture Compare Register value */
  TIMx->CCR3 = OC_Config->Pulse;
 8004454:	684a      	ldr	r2, [r1, #4]
 8004456:	63c2      	str	r2, [r0, #60]	; 0x3c

  /* Write to TIMx CCER */
  TIMx->CCER = tmpccer;
 8004458:	6203      	str	r3, [r0, #32]
}
 800445a:	bc70      	pop	{r4, r5, r6}
 800445c:	4770      	bx	lr
 800445e:	bf00      	nop
 8004460:	40010000 	.word	0x40010000
 8004464:	40010400 	.word	0x40010400
 8004468:	40014400 	.word	0x40014400
 800446c:	40014000 	.word	0x40014000
 8004470:	40014800 	.word	0x40014800

08004474 <TIM_OC4_SetConfig>:
  * @param  TIMx to select the TIM peripheral
  * @param  OC_Config The ouput configuration structure
  * @retval None
  */
static void TIM_OC4_SetConfig(TIM_TypeDef *TIMx, TIM_OC_InitTypeDef *OC_Config)
{
 8004474:	b470      	push	{r4, r5, r6}
  uint32_t tmpccmrx;
  uint32_t tmpccer;
  uint32_t tmpcr2;

  /* Disable the Channel 4: Reset the CC4E Bit */
  TIMx->CCER &= ~TIM_CCER_CC4E;
 8004476:	6a03      	ldr	r3, [r0, #32]
 8004478:	f423 5380 	bic.w	r3, r3, #4096	; 0x1000
 800447c:	6203      	str	r3, [r0, #32]

  /* Get the TIMx CCER register value */
  tmpccer = TIMx->CCER;
 800447e:	6a03      	ldr	r3, [r0, #32]
  /* Get the TIMx CR2 register value */
  tmpcr2 =  TIMx->CR2;
 8004480:	6844      	ldr	r4, [r0, #4]

  /* Get the TIMx CCMR2 register value */
  tmpccmrx = TIMx->CCMR2;
 8004482:	69c2      	ldr	r2, [r0, #28]

  /* Reset the Output Compare mode and Capture/Compare selection Bits */
  tmpccmrx &= ~TIM_CCMR2_OC4M;
  tmpccmrx &= ~TIM_CCMR2_CC4S;
 8004484:	f422 42e6 	bic.w	r2, r2, #29440	; 0x7300

  /* Select the Output Compare Mode */
  tmpccmrx |= (OC_Config->OCMode << 8U);
 8004488:	680d      	ldr	r5, [r1, #0]
 800448a:	ea42 2205 	orr.w	r2, r2, r5, lsl #8

  /* Reset the Output Polarity level */
  tmpccer &= ~TIM_CCER_CC4P;
 800448e:	f423 5300 	bic.w	r3, r3, #8192	; 0x2000
  /* Set the Output Compare Polarity */
  tmpccer |= (OC_Config->OCPolarity << 12U);
 8004492:	688d      	ldr	r5, [r1, #8]
 8004494:	ea43 3305 	orr.w	r3, r3, r5, lsl #12

  if (IS_TIM_BREAK_INSTANCE(TIMx))
 8004498:	4e0f      	ldr	r6, [pc, #60]	; (80044d8 <TIM_OC4_SetConfig+0x64>)
 800449a:	4d10      	ldr	r5, [pc, #64]	; (80044dc <TIM_OC4_SetConfig+0x68>)
 800449c:	42a8      	cmp	r0, r5
 800449e:	bf18      	it	ne
 80044a0:	42b0      	cmpne	r0, r6
 80044a2:	d00d      	beq.n	80044c0 <TIM_OC4_SetConfig+0x4c>
 80044a4:	f505 4580 	add.w	r5, r5, #16384	; 0x4000
 80044a8:	42a8      	cmp	r0, r5
 80044aa:	bf14      	ite	ne
 80044ac:	2500      	movne	r5, #0
 80044ae:	2501      	moveq	r5, #1
 80044b0:	f506 4680 	add.w	r6, r6, #16384	; 0x4000
 80044b4:	42b0      	cmp	r0, r6
 80044b6:	d003      	beq.n	80044c0 <TIM_OC4_SetConfig+0x4c>
 80044b8:	b915      	cbnz	r5, 80044c0 <TIM_OC4_SetConfig+0x4c>
 80044ba:	4d09      	ldr	r5, [pc, #36]	; (80044e0 <TIM_OC4_SetConfig+0x6c>)
 80044bc:	42a8      	cmp	r0, r5
 80044be:	d104      	bne.n	80044ca <TIM_OC4_SetConfig+0x56>
  {
    /* Check parameters */
    assert_param(IS_TIM_OCIDLE_STATE(OC_Config->OCIdleState));

    /* Reset the Output Compare IDLE State */
    tmpcr2 &= ~TIM_CR2_OIS4;
 80044c0:	f424 4480 	bic.w	r4, r4, #16384	; 0x4000

    /* Set the Output Idle state */
    tmpcr2 |= (OC_Config->OCIdleState << 6U);
 80044c4:	694d      	ldr	r5, [r1, #20]
 80044c6:	ea44 1485 	orr.w	r4, r4, r5, lsl #6
  }

  /* Write to TIMx CR2 */
  TIMx->CR2 = tmpcr2;
 80044ca:	6044      	str	r4, [r0, #4]

  /* Write to TIMx CCMR2 */
  TIMx->CCMR2 = tmpccmrx;
 80044cc:	61c2      	str	r2, [r0, #28]

  /* Set the Capture Compare Register value */
  TIMx->CCR4 = OC_Config->Pulse;
 80044ce:	684a      	ldr	r2, [r1, #4]
 80044d0:	6402      	str	r2, [r0, #64]	; 0x40

  /* Write to TIMx CCER */
  TIMx->CCER = tmpccer;
 80044d2:	6203      	str	r3, [r0, #32]
}
 80044d4:	bc70      	pop	{r4, r5, r6}
 80044d6:	4770      	bx	lr
 80044d8:	40010000 	.word	0x40010000
 80044dc:	40010400 	.word	0x40010400
 80044e0:	40014800 	.word	0x40014800

080044e4 <TIM_OC5_SetConfig>:
  * @param  OC_Config The ouput configuration structure
  * @retval None
  */
static void TIM_OC5_SetConfig(TIM_TypeDef *TIMx,
                              TIM_OC_InitTypeDef *OC_Config)
{
 80044e4:	b470      	push	{r4, r5, r6}
  uint32_t tmpccmrx;
  uint32_t tmpccer;
  uint32_t tmpcr2;

  /* Disable the output: Reset the CCxE Bit */
  TIMx->CCER &= ~TIM_CCER_CC5E;
 80044e6:	6a03      	ldr	r3, [r0, #32]
 80044e8:	f423 3380 	bic.w	r3, r3, #65536	; 0x10000
 80044ec:	6203      	str	r3, [r0, #32]

  /* Get the TIMx CCER register value */
  tmpccer = TIMx->CCER;
 80044ee:	6a03      	ldr	r3, [r0, #32]
  /* Get the TIMx CR2 register value */
  tmpcr2 =  TIMx->CR2;
 80044f0:	6842      	ldr	r2, [r0, #4]
  /* Get the TIMx CCMR1 register value */
  tmpccmrx = TIMx->CCMR3;
 80044f2:	6d44      	ldr	r4, [r0, #84]	; 0x54

  /* Reset the Output Compare Mode Bits */
  tmpccmrx &= ~(TIM_CCMR3_OC5M);
 80044f4:	f024 0470 	bic.w	r4, r4, #112	; 0x70
  /* Select the Output Compare Mode */
  tmpccmrx |= OC_Config->OCMode;
 80044f8:	680d      	ldr	r5, [r1, #0]
 80044fa:	432c      	orrs	r4, r5

  /* Reset the Output Polarity level */
  tmpccer &= ~TIM_CCER_CC5P;
 80044fc:	f423 3300 	bic.w	r3, r3, #131072	; 0x20000
  /* Set the Output Compare Polarity */
  tmpccer |= (OC_Config->OCPolarity << 16U);
 8004500:	688d      	ldr	r5, [r1, #8]
 8004502:	ea43 4305 	orr.w	r3, r3, r5, lsl #16

  if (IS_TIM_BREAK_INSTANCE(TIMx))
 8004506:	4e10      	ldr	r6, [pc, #64]	; (8004548 <TIM_OC5_SetConfig+0x64>)
 8004508:	4d10      	ldr	r5, [pc, #64]	; (800454c <TIM_OC5_SetConfig+0x68>)
 800450a:	42a8      	cmp	r0, r5
 800450c:	bf18      	it	ne
 800450e:	42b0      	cmpne	r0, r6
 8004510:	d00d      	beq.n	800452e <TIM_OC5_SetConfig+0x4a>
 8004512:	f505 4580 	add.w	r5, r5, #16384	; 0x4000
 8004516:	42a8      	cmp	r0, r5
 8004518:	bf14      	ite	ne
 800451a:	2500      	movne	r5, #0
 800451c:	2501      	moveq	r5, #1
 800451e:	f506 4680 	add.w	r6, r6, #16384	; 0x4000
 8004522:	42b0      	cmp	r0, r6
 8004524:	d003      	beq.n	800452e <TIM_OC5_SetConfig+0x4a>
 8004526:	b915      	cbnz	r5, 800452e <TIM_OC5_SetConfig+0x4a>
 8004528:	4d09      	ldr	r5, [pc, #36]	; (8004550 <TIM_OC5_SetConfig+0x6c>)
 800452a:	42a8      	cmp	r0, r5
 800452c:	d104      	bne.n	8004538 <TIM_OC5_SetConfig+0x54>
  {
    /* Reset the Output Compare IDLE State */
    tmpcr2 &= ~TIM_CR2_OIS5;
 800452e:	f422 3280 	bic.w	r2, r2, #65536	; 0x10000
    /* Set the Output Idle state */
    tmpcr2 |= (OC_Config->OCIdleState << 8U);
 8004532:	694d      	ldr	r5, [r1, #20]
 8004534:	ea42 2205 	orr.w	r2, r2, r5, lsl #8
  }
  /* Write to TIMx CR2 */
  TIMx->CR2 = tmpcr2;
 8004538:	6042      	str	r2, [r0, #4]

  /* Write to TIMx CCMR3 */
  TIMx->CCMR3 = tmpccmrx;
 800453a:	6544      	str	r4, [r0, #84]	; 0x54

  /* Set the Capture Compare Register value */
  TIMx->CCR5 = OC_Config->Pulse;
 800453c:	684a      	ldr	r2, [r1, #4]
 800453e:	6582      	str	r2, [r0, #88]	; 0x58

  /* Write to TIMx CCER */
  TIMx->CCER = tmpccer;
 8004540:	6203      	str	r3, [r0, #32]
}
 8004542:	bc70      	pop	{r4, r5, r6}
 8004544:	4770      	bx	lr
 8004546:	bf00      	nop
 8004548:	40010000 	.word	0x40010000
 800454c:	40010400 	.word	0x40010400
 8004550:	40014800 	.word	0x40014800

08004554 <TIM_OC6_SetConfig>:
  * @param  OC_Config The ouput configuration structure
  * @retval None
  */
static void TIM_OC6_SetConfig(TIM_TypeDef *TIMx,
                              TIM_OC_InitTypeDef *OC_Config)
{
 8004554:	b470      	push	{r4, r5, r6}
  uint32_t tmpccmrx;
  uint32_t tmpccer;
  uint32_t tmpcr2;

  /* Disable the output: Reset the CCxE Bit */
  TIMx->CCER &= ~TIM_CCER_CC6E;
 8004556:	6a03      	ldr	r3, [r0, #32]
 8004558:	f423 1380 	bic.w	r3, r3, #1048576	; 0x100000
 800455c:	6203      	str	r3, [r0, #32]

  /* Get the TIMx CCER register value */
  tmpccer = TIMx->CCER;
 800455e:	6a03      	ldr	r3, [r0, #32]
  /* Get the TIMx CR2 register value */
  tmpcr2 =  TIMx->CR2;
 8004560:	6844      	ldr	r4, [r0, #4]
  /* Get the TIMx CCMR1 register value */
  tmpccmrx = TIMx->CCMR3;
 8004562:	6d42      	ldr	r2, [r0, #84]	; 0x54

  /* Reset the Output Compare Mode Bits */
  tmpccmrx &= ~(TIM_CCMR3_OC6M);
 8004564:	f422 42e0 	bic.w	r2, r2, #28672	; 0x7000
  /* Select the Output Compare Mode */
  tmpccmrx |= (OC_Config->OCMode << 8U);
 8004568:	680d      	ldr	r5, [r1, #0]
 800456a:	ea42 2205 	orr.w	r2, r2, r5, lsl #8

  /* Reset the Output Polarity level */
  tmpccer &= (uint32_t)~TIM_CCER_CC6P;
 800456e:	f423 1300 	bic.w	r3, r3, #2097152	; 0x200000
  /* Set the Output Compare Polarity */
  tmpccer |= (OC_Config->OCPolarity << 20U);
 8004572:	688d      	ldr	r5, [r1, #8]
 8004574:	ea43 5305 	orr.w	r3, r3, r5, lsl #20

  if (IS_TIM_BREAK_INSTANCE(TIMx))
 8004578:	4e0f      	ldr	r6, [pc, #60]	; (80045b8 <TIM_OC6_SetConfig+0x64>)
 800457a:	4d10      	ldr	r5, [pc, #64]	; (80045bc <TIM_OC6_SetConfig+0x68>)
 800457c:	42a8      	cmp	r0, r5
 800457e:	bf18      	it	ne
 8004580:	42b0      	cmpne	r0, r6
 8004582:	d00d      	beq.n	80045a0 <TIM_OC6_SetConfig+0x4c>
 8004584:	f505 4580 	add.w	r5, r5, #16384	; 0x4000
 8004588:	42a8      	cmp	r0, r5
 800458a:	bf14      	ite	ne
 800458c:	2500      	movne	r5, #0
 800458e:	2501      	moveq	r5, #1
 8004590:	f506 4680 	add.w	r6, r6, #16384	; 0x4000
 8004594:	42b0      	cmp	r0, r6
 8004596:	d003      	beq.n	80045a0 <TIM_OC6_SetConfig+0x4c>
 8004598:	b915      	cbnz	r5, 80045a0 <TIM_OC6_SetConfig+0x4c>
 800459a:	4d09      	ldr	r5, [pc, #36]	; (80045c0 <TIM_OC6_SetConfig+0x6c>)
 800459c:	42a8      	cmp	r0, r5
 800459e:	d104      	bne.n	80045aa <TIM_OC6_SetConfig+0x56>
  {
    /* Reset the Output Compare IDLE State */
    tmpcr2 &= ~TIM_CR2_OIS6;
 80045a0:	f424 3400 	bic.w	r4, r4, #131072	; 0x20000
    /* Set the Output Idle state */
    tmpcr2 |= (OC_Config->OCIdleState << 10U);
 80045a4:	694d      	ldr	r5, [r1, #20]
 80045a6:	ea44 2485 	orr.w	r4, r4, r5, lsl #10
  }

  /* Write to TIMx CR2 */
  TIMx->CR2 = tmpcr2;
 80045aa:	6044      	str	r4, [r0, #4]

  /* Write to TIMx CCMR3 */
  TIMx->CCMR3 = tmpccmrx;
 80045ac:	6542      	str	r2, [r0, #84]	; 0x54

  /* Set the Capture Compare Register value */
  TIMx->CCR6 = OC_Config->Pulse;
 80045ae:	684a      	ldr	r2, [r1, #4]
 80045b0:	65c2      	str	r2, [r0, #92]	; 0x5c

  /* Write to TIMx CCER */
  TIMx->CCER = tmpccer;
 80045b2:	6203      	str	r3, [r0, #32]
}
 80045b4:	bc70      	pop	{r4, r5, r6}
 80045b6:	4770      	bx	lr
 80045b8:	40010000 	.word	0x40010000
 80045bc:	40010400 	.word	0x40010400
 80045c0:	40014800 	.word	0x40014800

080045c4 <TIM_TI1_ConfigInputStage>:
  * @param  TIM_ICFilter Specifies the Input Capture Filter.
  *          This parameter must be a value between 0x00 and 0x0F.
  * @retval None
  */
static void TIM_TI1_ConfigInputStage(TIM_TypeDef *TIMx, uint32_t TIM_ICPolarity, uint32_t TIM_ICFilter)
{
 80045c4:	b430      	push	{r4, r5}
  uint32_t tmpccmr1;
  uint32_t tmpccer;

  /* Disable the Channel 1: Reset the CC1E Bit */
  tmpccer = TIMx->CCER;
 80045c6:	6a03      	ldr	r3, [r0, #32]
  TIMx->CCER &= ~TIM_CCER_CC1E;
 80045c8:	6a05      	ldr	r5, [r0, #32]
 80045ca:	f025 0501 	bic.w	r5, r5, #1
 80045ce:	6205      	str	r5, [r0, #32]
  tmpccmr1 = TIMx->CCMR1;
 80045d0:	6984      	ldr	r4, [r0, #24]

  /* Set the filter */
  tmpccmr1 &= ~TIM_CCMR1_IC1F;
 80045d2:	f024 04f0 	bic.w	r4, r4, #240	; 0xf0
  tmpccmr1 |= (TIM_ICFilter << 4U);
 80045d6:	ea44 1402 	orr.w	r4, r4, r2, lsl #4

  /* Select the Polarity and set the CC1E Bit */
  tmpccer &= ~(TIM_CCER_CC1P | TIM_CCER_CC1NP);
 80045da:	f023 030a 	bic.w	r3, r3, #10
  tmpccer |= TIM_ICPolarity;
 80045de:	430b      	orrs	r3, r1

  /* Write to TIMx CCMR1 and CCER registers */
  TIMx->CCMR1 = tmpccmr1;
 80045e0:	6184      	str	r4, [r0, #24]
  TIMx->CCER = tmpccer;
 80045e2:	6203      	str	r3, [r0, #32]
}
 80045e4:	bc30      	pop	{r4, r5}
 80045e6:	4770      	bx	lr

080045e8 <TIM_TI2_ConfigInputStage>:
  * @param  TIM_ICFilter Specifies the Input Capture Filter.
  *          This parameter must be a value between 0x00 and 0x0F.
  * @retval None
  */
static void TIM_TI2_ConfigInputStage(TIM_TypeDef *TIMx, uint32_t TIM_ICPolarity, uint32_t TIM_ICFilter)
{
 80045e8:	b430      	push	{r4, r5}
  uint32_t tmpccmr1;
  uint32_t tmpccer;

  /* Disable the Channel 2: Reset the CC2E Bit */
  TIMx->CCER &= ~TIM_CCER_CC2E;
 80045ea:	6a05      	ldr	r5, [r0, #32]
 80045ec:	f025 0510 	bic.w	r5, r5, #16
 80045f0:	6205      	str	r5, [r0, #32]
  tmpccmr1 = TIMx->CCMR1;
 80045f2:	6984      	ldr	r4, [r0, #24]
  tmpccer = TIMx->CCER;
 80045f4:	6a03      	ldr	r3, [r0, #32]

  /* Set the filter */
  tmpccmr1 &= ~TIM_CCMR1_IC2F;
 80045f6:	f424 4470 	bic.w	r4, r4, #61440	; 0xf000
  tmpccmr1 |= (TIM_ICFilter << 12U);
 80045fa:	ea44 3402 	orr.w	r4, r4, r2, lsl #12

  /* Select the Polarity and set the CC2E Bit */
  tmpccer &= ~(TIM_CCER_CC2P | TIM_CCER_CC2NP);
 80045fe:	f023 03a0 	bic.w	r3, r3, #160	; 0xa0
  tmpccer |= (TIM_ICPolarity << 4U);
 8004602:	ea43 1301 	orr.w	r3, r3, r1, lsl #4

  /* Write to TIMx CCMR1 and CCER registers */
  TIMx->CCMR1 = tmpccmr1 ;
 8004606:	6184      	str	r4, [r0, #24]
  TIMx->CCER = tmpccer;
 8004608:	6203      	str	r3, [r0, #32]
}
 800460a:	bc30      	pop	{r4, r5}
 800460c:	4770      	bx	lr
	...

08004610 <TIM_ITRx_SetConfig>:
static void TIM_ITRx_SetConfig(TIM_TypeDef *TIMx, uint32_t InputTriggerSource)
{
  uint32_t tmpsmcr;

  /* Get the TIMx SMCR register value */
  tmpsmcr = TIMx->SMCR;
 8004610:	6882      	ldr	r2, [r0, #8]
  /* Reset the TS Bits */
  tmpsmcr &= ~TIM_SMCR_TS;
 8004612:	4b03      	ldr	r3, [pc, #12]	; (8004620 <TIM_ITRx_SetConfig+0x10>)
 8004614:	4013      	ands	r3, r2
  /* Set the Input Trigger source and the slave mode*/
  tmpsmcr |= (InputTriggerSource | TIM_SLAVEMODE_EXTERNAL1);
 8004616:	430b      	orrs	r3, r1
 8004618:	f043 0307 	orr.w	r3, r3, #7
  /* Write to TIMx SMCR */
  TIMx->SMCR = tmpsmcr;
 800461c:	6083      	str	r3, [r0, #8]
}
 800461e:	4770      	bx	lr
 8004620:	ffcfff8f 	.word	0xffcfff8f

08004624 <HAL_TIM_Base_Start>:
  if (htim->State != HAL_TIM_STATE_READY)
 8004624:	f890 303d 	ldrb.w	r3, [r0, #61]	; 0x3d
 8004628:	b2db      	uxtb	r3, r3
 800462a:	2b01      	cmp	r3, #1
 800462c:	d111      	bne.n	8004652 <HAL_TIM_Base_Start+0x2e>
  htim->State = HAL_TIM_STATE_BUSY;
 800462e:	2302      	movs	r3, #2
 8004630:	f880 303d 	strb.w	r3, [r0, #61]	; 0x3d
  tmpsmcr = htim->Instance->SMCR & TIM_SMCR_SMS;
 8004634:	6802      	ldr	r2, [r0, #0]
 8004636:	6891      	ldr	r1, [r2, #8]
 8004638:	4b08      	ldr	r3, [pc, #32]	; (800465c <HAL_TIM_Base_Start+0x38>)
 800463a:	400b      	ands	r3, r1
  if (!IS_TIM_SLAVEMODE_TRIGGER_ENABLED(tmpsmcr))
 800463c:	2b06      	cmp	r3, #6
 800463e:	bf18      	it	ne
 8004640:	f5b3 3f80 	cmpne.w	r3, #65536	; 0x10000
 8004644:	d007      	beq.n	8004656 <HAL_TIM_Base_Start+0x32>
    __HAL_TIM_ENABLE(htim);
 8004646:	6813      	ldr	r3, [r2, #0]
 8004648:	f043 0301 	orr.w	r3, r3, #1
 800464c:	6013      	str	r3, [r2, #0]
  return HAL_OK;
 800464e:	2000      	movs	r0, #0
 8004650:	4770      	bx	lr
    return HAL_ERROR;
 8004652:	2001      	movs	r0, #1
 8004654:	4770      	bx	lr
  return HAL_OK;
 8004656:	2000      	movs	r0, #0
}
 8004658:	4770      	bx	lr
 800465a:	bf00      	nop
 800465c:	00010007 	.word	0x00010007

08004660 <HAL_TIM_Base_Start_IT>:
  if (htim->State != HAL_TIM_STATE_READY)
 8004660:	f890 303d 	ldrb.w	r3, [r0, #61]	; 0x3d
 8004664:	b2db      	uxtb	r3, r3
 8004666:	2b01      	cmp	r3, #1
 8004668:	d116      	bne.n	8004698 <HAL_TIM_Base_Start_IT+0x38>
  htim->State = HAL_TIM_STATE_BUSY;
 800466a:	2302      	movs	r3, #2
 800466c:	f880 303d 	strb.w	r3, [r0, #61]	; 0x3d
  __HAL_TIM_ENABLE_IT(htim, TIM_IT_UPDATE);
 8004670:	6802      	ldr	r2, [r0, #0]
 8004672:	68d3      	ldr	r3, [r2, #12]
 8004674:	f043 0301 	orr.w	r3, r3, #1
 8004678:	60d3      	str	r3, [r2, #12]
  tmpsmcr = htim->Instance->SMCR & TIM_SMCR_SMS;
 800467a:	6802      	ldr	r2, [r0, #0]
 800467c:	6891      	ldr	r1, [r2, #8]
 800467e:	4b08      	ldr	r3, [pc, #32]	; (80046a0 <HAL_TIM_Base_Start_IT+0x40>)
 8004680:	400b      	ands	r3, r1
  if (!IS_TIM_SLAVEMODE_TRIGGER_ENABLED(tmpsmcr))
 8004682:	2b06      	cmp	r3, #6
 8004684:	bf18      	it	ne
 8004686:	f5b3 3f80 	cmpne.w	r3, #65536	; 0x10000
 800468a:	d007      	beq.n	800469c <HAL_TIM_Base_Start_IT+0x3c>
    __HAL_TIM_ENABLE(htim);
 800468c:	6813      	ldr	r3, [r2, #0]
 800468e:	f043 0301 	orr.w	r3, r3, #1
 8004692:	6013      	str	r3, [r2, #0]
  return HAL_OK;
 8004694:	2000      	movs	r0, #0
 8004696:	4770      	bx	lr
    return HAL_ERROR;
 8004698:	2001      	movs	r0, #1
 800469a:	4770      	bx	lr
  return HAL_OK;
 800469c:	2000      	movs	r0, #0
}
 800469e:	4770      	bx	lr
 80046a0:	00010007 	.word	0x00010007

080046a4 <HAL_TIM_OC_MspInit>:
}
 80046a4:	4770      	bx	lr

080046a6 <HAL_TIM_OC_DelayElapsedCallback>:
}
 80046a6:	4770      	bx	lr

080046a8 <HAL_TIM_IC_CaptureCallback>:
}
 80046a8:	4770      	bx	lr

080046aa <HAL_TIM_PWM_PulseFinishedCallback>:
}
 80046aa:	4770      	bx	lr

080046ac <HAL_TIM_TriggerCallback>:
}
 80046ac:	4770      	bx	lr

080046ae <HAL_TIM_IRQHandler>:
{
 80046ae:	b510      	push	{r4, lr}
 80046b0:	4604      	mov	r4, r0
  if (__HAL_TIM_GET_FLAG(htim, TIM_FLAG_CC1) != RESET)
 80046b2:	6803      	ldr	r3, [r0, #0]
 80046b4:	691a      	ldr	r2, [r3, #16]
 80046b6:	f012 0f02 	tst.w	r2, #2
 80046ba:	d011      	beq.n	80046e0 <HAL_TIM_IRQHandler+0x32>
    if (__HAL_TIM_GET_IT_SOURCE(htim, TIM_IT_CC1) != RESET)
 80046bc:	68da      	ldr	r2, [r3, #12]
 80046be:	f012 0f02 	tst.w	r2, #2
 80046c2:	d00d      	beq.n	80046e0 <HAL_TIM_IRQHandler+0x32>
        __HAL_TIM_CLEAR_IT(htim, TIM_IT_CC1);
 80046c4:	f06f 0202 	mvn.w	r2, #2
 80046c8:	611a      	str	r2, [r3, #16]
        htim->Channel = HAL_TIM_ACTIVE_CHANNEL_1;
 80046ca:	2301      	movs	r3, #1
 80046cc:	7703      	strb	r3, [r0, #28]
        if ((htim->Instance->CCMR1 & TIM_CCMR1_CC1S) != 0x00U)
 80046ce:	6803      	ldr	r3, [r0, #0]
 80046d0:	699b      	ldr	r3, [r3, #24]
 80046d2:	f013 0f03 	tst.w	r3, #3
 80046d6:	d079      	beq.n	80047cc <HAL_TIM_IRQHandler+0x11e>
          HAL_TIM_IC_CaptureCallback(htim);
 80046d8:	f7ff ffe6 	bl	80046a8 <HAL_TIM_IC_CaptureCallback>
        htim->Channel = HAL_TIM_ACTIVE_CHANNEL_CLEARED;
 80046dc:	2300      	movs	r3, #0
 80046de:	7723      	strb	r3, [r4, #28]
  if (__HAL_TIM_GET_FLAG(htim, TIM_FLAG_CC2) != RESET)
 80046e0:	6823      	ldr	r3, [r4, #0]
 80046e2:	691a      	ldr	r2, [r3, #16]
 80046e4:	f012 0f04 	tst.w	r2, #4
 80046e8:	d012      	beq.n	8004710 <HAL_TIM_IRQHandler+0x62>
    if (__HAL_TIM_GET_IT_SOURCE(htim, TIM_IT_CC2) != RESET)
 80046ea:	68da      	ldr	r2, [r3, #12]
 80046ec:	f012 0f04 	tst.w	r2, #4
 80046f0:	d00e      	beq.n	8004710 <HAL_TIM_IRQHandler+0x62>
      __HAL_TIM_CLEAR_IT(htim, TIM_IT_CC2);
 80046f2:	f06f 0204 	mvn.w	r2, #4
 80046f6:	611a      	str	r2, [r3, #16]
      htim->Channel = HAL_TIM_ACTIVE_CHANNEL_2;
 80046f8:	2302      	movs	r3, #2
 80046fa:	7723      	strb	r3, [r4, #28]
      if ((htim->Instance->CCMR1 & TIM_CCMR1_CC2S) != 0x00U)
 80046fc:	6823      	ldr	r3, [r4, #0]
 80046fe:	699b      	ldr	r3, [r3, #24]
 8004700:	f413 7f40 	tst.w	r3, #768	; 0x300
 8004704:	d068      	beq.n	80047d8 <HAL_TIM_IRQHandler+0x12a>
        HAL_TIM_IC_CaptureCallback(htim);
 8004706:	4620      	mov	r0, r4
 8004708:	f7ff ffce 	bl	80046a8 <HAL_TIM_IC_CaptureCallback>
      htim->Channel = HAL_TIM_ACTIVE_CHANNEL_CLEARED;
 800470c:	2300      	movs	r3, #0
 800470e:	7723      	strb	r3, [r4, #28]
  if (__HAL_TIM_GET_FLAG(htim, TIM_FLAG_CC3) != RESET)
 8004710:	6823      	ldr	r3, [r4, #0]
 8004712:	691a      	ldr	r2, [r3, #16]
 8004714:	f012 0f08 	tst.w	r2, #8
 8004718:	d012      	beq.n	8004740 <HAL_TIM_IRQHandler+0x92>
    if (__HAL_TIM_GET_IT_SOURCE(htim, TIM_IT_CC3) != RESET)
 800471a:	68da      	ldr	r2, [r3, #12]
 800471c:	f012 0f08 	tst.w	r2, #8
 8004720:	d00e      	beq.n	8004740 <HAL_TIM_IRQHandler+0x92>
      __HAL_TIM_CLEAR_IT(htim, TIM_IT_CC3);
 8004722:	f06f 0208 	mvn.w	r2, #8
 8004726:	611a      	str	r2, [r3, #16]
      htim->Channel = HAL_TIM_ACTIVE_CHANNEL_3;
 8004728:	2304      	movs	r3, #4
 800472a:	7723      	strb	r3, [r4, #28]
      if ((htim->Instance->CCMR2 & TIM_CCMR2_CC3S) != 0x00U)
 800472c:	6823      	ldr	r3, [r4, #0]
 800472e:	69db      	ldr	r3, [r3, #28]
 8004730:	f013 0f03 	tst.w	r3, #3
 8004734:	d057      	beq.n	80047e6 <HAL_TIM_IRQHandler+0x138>
        HAL_TIM_IC_CaptureCallback(htim);
 8004736:	4620      	mov	r0, r4
 8004738:	f7ff ffb6 	bl	80046a8 <HAL_TIM_IC_CaptureCallback>
      htim->Channel = HAL_TIM_ACTIVE_CHANNEL_CLEARED;
 800473c:	2300      	movs	r3, #0
 800473e:	7723      	strb	r3, [r4, #28]
  if (__HAL_TIM_GET_FLAG(htim, TIM_FLAG_CC4) != RESET)
 8004740:	6823      	ldr	r3, [r4, #0]
 8004742:	691a      	ldr	r2, [r3, #16]
 8004744:	f012 0f10 	tst.w	r2, #16
 8004748:	d012      	beq.n	8004770 <HAL_TIM_IRQHandler+0xc2>
    if (__HAL_TIM_GET_IT_SOURCE(htim, TIM_IT_CC4) != RESET)
 800474a:	68da      	ldr	r2, [r3, #12]
 800474c:	f012 0f10 	tst.w	r2, #16
 8004750:	d00e      	beq.n	8004770 <HAL_TIM_IRQHandler+0xc2>
      __HAL_TIM_CLEAR_IT(htim, TIM_IT_CC4);
 8004752:	f06f 0210 	mvn.w	r2, #16
 8004756:	611a      	str	r2, [r3, #16]
      htim->Channel = HAL_TIM_ACTIVE_CHANNEL_4;
 8004758:	2308      	movs	r3, #8
 800475a:	7723      	strb	r3, [r4, #28]
      if ((htim->Instance->CCMR2 & TIM_CCMR2_CC4S) != 0x00U)
 800475c:	6823      	ldr	r3, [r4, #0]
 800475e:	69db      	ldr	r3, [r3, #28]
 8004760:	f413 7f40 	tst.w	r3, #768	; 0x300
 8004764:	d046      	beq.n	80047f4 <HAL_TIM_IRQHandler+0x146>
        HAL_TIM_IC_CaptureCallback(htim);
 8004766:	4620      	mov	r0, r4
 8004768:	f7ff ff9e 	bl	80046a8 <HAL_TIM_IC_CaptureCallback>
      htim->Channel = HAL_TIM_ACTIVE_CHANNEL_CLEARED;
 800476c:	2300      	movs	r3, #0
 800476e:	7723      	strb	r3, [r4, #28]
  if (__HAL_TIM_GET_FLAG(htim, TIM_FLAG_UPDATE) != RESET)
 8004770:	6823      	ldr	r3, [r4, #0]
 8004772:	691a      	ldr	r2, [r3, #16]
 8004774:	f012 0f01 	tst.w	r2, #1
 8004778:	d003      	beq.n	8004782 <HAL_TIM_IRQHandler+0xd4>
    if (__HAL_TIM_GET_IT_SOURCE(htim, TIM_IT_UPDATE) != RESET)
 800477a:	68da      	ldr	r2, [r3, #12]
 800477c:	f012 0f01 	tst.w	r2, #1
 8004780:	d13f      	bne.n	8004802 <HAL_TIM_IRQHandler+0x154>
  if (__HAL_TIM_GET_FLAG(htim, TIM_FLAG_BREAK) != RESET)
 8004782:	6823      	ldr	r3, [r4, #0]
 8004784:	691a      	ldr	r2, [r3, #16]
 8004786:	f012 0f80 	tst.w	r2, #128	; 0x80
 800478a:	d003      	beq.n	8004794 <HAL_TIM_IRQHandler+0xe6>
    if (__HAL_TIM_GET_IT_SOURCE(htim, TIM_IT_BREAK) != RESET)
 800478c:	68da      	ldr	r2, [r3, #12]
 800478e:	f012 0f80 	tst.w	r2, #128	; 0x80
 8004792:	d13d      	bne.n	8004810 <HAL_TIM_IRQHandler+0x162>
  if (__HAL_TIM_GET_FLAG(htim, TIM_FLAG_BREAK2) != RESET)
 8004794:	6823      	ldr	r3, [r4, #0]
 8004796:	691a      	ldr	r2, [r3, #16]
 8004798:	f412 7f80 	tst.w	r2, #256	; 0x100
 800479c:	d003      	beq.n	80047a6 <HAL_TIM_IRQHandler+0xf8>
    if (__HAL_TIM_GET_IT_SOURCE(htim, TIM_IT_BREAK) != RESET)
 800479e:	68da      	ldr	r2, [r3, #12]
 80047a0:	f012 0f80 	tst.w	r2, #128	; 0x80
 80047a4:	d13b      	bne.n	800481e <HAL_TIM_IRQHandler+0x170>
  if (__HAL_TIM_GET_FLAG(htim, TIM_FLAG_TRIGGER) != RESET)
 80047a6:	6823      	ldr	r3, [r4, #0]
 80047a8:	691a      	ldr	r2, [r3, #16]
 80047aa:	f012 0f40 	tst.w	r2, #64	; 0x40
 80047ae:	d003      	beq.n	80047b8 <HAL_TIM_IRQHandler+0x10a>
    if (__HAL_TIM_GET_IT_SOURCE(htim, TIM_IT_TRIGGER) != RESET)
 80047b0:	68da      	ldr	r2, [r3, #12]
 80047b2:	f012 0f40 	tst.w	r2, #64	; 0x40
 80047b6:	d139      	bne.n	800482c <HAL_TIM_IRQHandler+0x17e>
  if (__HAL_TIM_GET_FLAG(htim, TIM_FLAG_COM) != RESET)
 80047b8:	6823      	ldr	r3, [r4, #0]
 80047ba:	691a      	ldr	r2, [r3, #16]
 80047bc:	f012 0f20 	tst.w	r2, #32
 80047c0:	d003      	beq.n	80047ca <HAL_TIM_IRQHandler+0x11c>
    if (__HAL_TIM_GET_IT_SOURCE(htim, TIM_IT_COM) != RESET)
 80047c2:	68da      	ldr	r2, [r3, #12]
 80047c4:	f012 0f20 	tst.w	r2, #32
 80047c8:	d137      	bne.n	800483a <HAL_TIM_IRQHandler+0x18c>
}
 80047ca:	bd10      	pop	{r4, pc}
          HAL_TIM_OC_DelayElapsedCallback(htim);
 80047cc:	f7ff ff6b 	bl	80046a6 <HAL_TIM_OC_DelayElapsedCallback>
          HAL_TIM_PWM_PulseFinishedCallback(htim);
 80047d0:	4620      	mov	r0, r4
 80047d2:	f7ff ff6a 	bl	80046aa <HAL_TIM_PWM_PulseFinishedCallback>
 80047d6:	e781      	b.n	80046dc <HAL_TIM_IRQHandler+0x2e>
        HAL_TIM_OC_DelayElapsedCallback(htim);
 80047d8:	4620      	mov	r0, r4
 80047da:	f7ff ff64 	bl	80046a6 <HAL_TIM_OC_DelayElapsedCallback>
        HAL_TIM_PWM_PulseFinishedCallback(htim);
 80047de:	4620      	mov	r0, r4
 80047e0:	f7ff ff63 	bl	80046aa <HAL_TIM_PWM_PulseFinishedCallback>
 80047e4:	e792      	b.n	800470c <HAL_TIM_IRQHandler+0x5e>
        HAL_TIM_OC_DelayElapsedCallback(htim);
 80047e6:	4620      	mov	r0, r4
 80047e8:	f7ff ff5d 	bl	80046a6 <HAL_TIM_OC_DelayElapsedCallback>
        HAL_TIM_PWM_PulseFinishedCallback(htim);
 80047ec:	4620      	mov	r0, r4
 80047ee:	f7ff ff5c 	bl	80046aa <HAL_TIM_PWM_PulseFinishedCallback>
 80047f2:	e7a3      	b.n	800473c <HAL_TIM_IRQHandler+0x8e>
        HAL_TIM_OC_DelayElapsedCallback(htim);
 80047f4:	4620      	mov	r0, r4
 80047f6:	f7ff ff56 	bl	80046a6 <HAL_TIM_OC_DelayElapsedCallback>
        HAL_TIM_PWM_PulseFinishedCallback(htim);
 80047fa:	4620      	mov	r0, r4
 80047fc:	f7ff ff55 	bl	80046aa <HAL_TIM_PWM_PulseFinishedCallback>
 8004800:	e7b4      	b.n	800476c <HAL_TIM_IRQHandler+0xbe>
      __HAL_TIM_CLEAR_IT(htim, TIM_IT_UPDATE);
 8004802:	f06f 0201 	mvn.w	r2, #1
 8004806:	611a      	str	r2, [r3, #16]
      HAL_TIM_PeriodElapsedCallback(htim);
 8004808:	4620      	mov	r0, r4
 800480a:	f002 ffe9 	bl	80077e0 <HAL_TIM_PeriodElapsedCallback>
 800480e:	e7b8      	b.n	8004782 <HAL_TIM_IRQHandler+0xd4>
      __HAL_TIM_CLEAR_IT(htim, TIM_IT_BREAK);
 8004810:	f06f 0280 	mvn.w	r2, #128	; 0x80
 8004814:	611a      	str	r2, [r3, #16]
      HAL_TIMEx_BreakCallback(htim);
 8004816:	4620      	mov	r0, r4
 8004818:	f000 fa53 	bl	8004cc2 <HAL_TIMEx_BreakCallback>
 800481c:	e7ba      	b.n	8004794 <HAL_TIM_IRQHandler+0xe6>
      __HAL_TIM_CLEAR_FLAG(htim, TIM_FLAG_BREAK2);
 800481e:	f46f 7280 	mvn.w	r2, #256	; 0x100
 8004822:	611a      	str	r2, [r3, #16]
      HAL_TIMEx_Break2Callback(htim);
 8004824:	4620      	mov	r0, r4
 8004826:	f000 fa4d 	bl	8004cc4 <HAL_TIMEx_Break2Callback>
 800482a:	e7bc      	b.n	80047a6 <HAL_TIM_IRQHandler+0xf8>
      __HAL_TIM_CLEAR_IT(htim, TIM_IT_TRIGGER);
 800482c:	f06f 0240 	mvn.w	r2, #64	; 0x40
 8004830:	611a      	str	r2, [r3, #16]
      HAL_TIM_TriggerCallback(htim);
 8004832:	4620      	mov	r0, r4
 8004834:	f7ff ff3a 	bl	80046ac <HAL_TIM_TriggerCallback>
 8004838:	e7be      	b.n	80047b8 <HAL_TIM_IRQHandler+0x10a>
      __HAL_TIM_CLEAR_IT(htim, TIM_FLAG_COM);
 800483a:	f06f 0220 	mvn.w	r2, #32
 800483e:	611a      	str	r2, [r3, #16]
      HAL_TIMEx_CommutCallback(htim);
 8004840:	4620      	mov	r0, r4
 8004842:	f000 fa3d 	bl	8004cc0 <HAL_TIMEx_CommutCallback>
}
 8004846:	e7c0      	b.n	80047ca <HAL_TIM_IRQHandler+0x11c>

08004848 <TIM_Base_SetConfig>:
{
 8004848:	b470      	push	{r4, r5, r6}
  tmpcr1 = TIMx->CR1;
 800484a:	6803      	ldr	r3, [r0, #0]
  if (IS_TIM_COUNTER_MODE_SELECT_INSTANCE(TIMx))
 800484c:	4c37      	ldr	r4, [pc, #220]	; (800492c <TIM_Base_SetConfig+0xe4>)
 800484e:	42a0      	cmp	r0, r4
 8004850:	bf14      	ite	ne
 8004852:	2400      	movne	r4, #0
 8004854:	2401      	moveq	r4, #1
 8004856:	f1b0 4f80 	cmp.w	r0, #1073741824	; 0x40000000
 800485a:	bf14      	ite	ne
 800485c:	4622      	movne	r2, r4
 800485e:	f044 0201 	orreq.w	r2, r4, #1
 8004862:	b9aa      	cbnz	r2, 8004890 <TIM_Base_SetConfig+0x48>
 8004864:	4d32      	ldr	r5, [pc, #200]	; (8004930 <TIM_Base_SetConfig+0xe8>)
 8004866:	42a8      	cmp	r0, r5
 8004868:	bf14      	ite	ne
 800486a:	2500      	movne	r5, #0
 800486c:	2501      	moveq	r5, #1
 800486e:	4e31      	ldr	r6, [pc, #196]	; (8004934 <TIM_Base_SetConfig+0xec>)
 8004870:	42b0      	cmp	r0, r6
 8004872:	d00d      	beq.n	8004890 <TIM_Base_SetConfig+0x48>
 8004874:	b965      	cbnz	r5, 8004890 <TIM_Base_SetConfig+0x48>
 8004876:	f105 4580 	add.w	r5, r5, #1073741824	; 0x40000000
 800487a:	f505 3582 	add.w	r5, r5, #66560	; 0x10400
 800487e:	42a8      	cmp	r0, r5
 8004880:	bf14      	ite	ne
 8004882:	2500      	movne	r5, #0
 8004884:	2501      	moveq	r5, #1
 8004886:	f506 6600 	add.w	r6, r6, #2048	; 0x800
 800488a:	42b0      	cmp	r0, r6
 800488c:	d000      	beq.n	8004890 <TIM_Base_SetConfig+0x48>
 800488e:	b11d      	cbz	r5, 8004898 <TIM_Base_SetConfig+0x50>
    tmpcr1 &= ~(TIM_CR1_DIR | TIM_CR1_CMS);
 8004890:	f023 0370 	bic.w	r3, r3, #112	; 0x70
    tmpcr1 |= Structure->CounterMode;
 8004894:	684d      	ldr	r5, [r1, #4]
 8004896:	432b      	orrs	r3, r5
  if (IS_TIM_CLOCK_DIVISION_INSTANCE(TIMx))
 8004898:	bb12      	cbnz	r2, 80048e0 <TIM_Base_SetConfig+0x98>
 800489a:	4a25      	ldr	r2, [pc, #148]	; (8004930 <TIM_Base_SetConfig+0xe8>)
 800489c:	4290      	cmp	r0, r2
 800489e:	bf14      	ite	ne
 80048a0:	2200      	movne	r2, #0
 80048a2:	2201      	moveq	r2, #1
 80048a4:	4d23      	ldr	r5, [pc, #140]	; (8004934 <TIM_Base_SetConfig+0xec>)
 80048a6:	42a8      	cmp	r0, r5
 80048a8:	d01a      	beq.n	80048e0 <TIM_Base_SetConfig+0x98>
 80048aa:	b9ca      	cbnz	r2, 80048e0 <TIM_Base_SetConfig+0x98>
 80048ac:	f102 4280 	add.w	r2, r2, #1073741824	; 0x40000000
 80048b0:	f502 3282 	add.w	r2, r2, #66560	; 0x10400
 80048b4:	4290      	cmp	r0, r2
 80048b6:	bf14      	ite	ne
 80048b8:	2200      	movne	r2, #0
 80048ba:	2201      	moveq	r2, #1
 80048bc:	f505 6500 	add.w	r5, r5, #2048	; 0x800
 80048c0:	42a8      	cmp	r0, r5
 80048c2:	d00d      	beq.n	80048e0 <TIM_Base_SetConfig+0x98>
 80048c4:	b962      	cbnz	r2, 80048e0 <TIM_Base_SetConfig+0x98>
 80048c6:	4a1c      	ldr	r2, [pc, #112]	; (8004938 <TIM_Base_SetConfig+0xf0>)
 80048c8:	4290      	cmp	r0, r2
 80048ca:	bf14      	ite	ne
 80048cc:	2200      	movne	r2, #0
 80048ce:	2201      	moveq	r2, #1
 80048d0:	f505 359a 	add.w	r5, r5, #78848	; 0x13400
 80048d4:	42a8      	cmp	r0, r5
 80048d6:	d003      	beq.n	80048e0 <TIM_Base_SetConfig+0x98>
 80048d8:	b912      	cbnz	r2, 80048e0 <TIM_Base_SetConfig+0x98>
 80048da:	4a18      	ldr	r2, [pc, #96]	; (800493c <TIM_Base_SetConfig+0xf4>)
 80048dc:	4290      	cmp	r0, r2
 80048de:	d103      	bne.n	80048e8 <TIM_Base_SetConfig+0xa0>
    tmpcr1 &= ~TIM_CR1_CKD;
 80048e0:	f423 7340 	bic.w	r3, r3, #768	; 0x300
    tmpcr1 |= (uint32_t)Structure->ClockDivision;
 80048e4:	68ca      	ldr	r2, [r1, #12]
 80048e6:	4313      	orrs	r3, r2
  MODIFY_REG(tmpcr1, TIM_CR1_ARPE, Structure->AutoReloadPreload);
 80048e8:	f023 0380 	bic.w	r3, r3, #128	; 0x80
 80048ec:	694a      	ldr	r2, [r1, #20]
 80048ee:	4313      	orrs	r3, r2
  TIMx->CR1 = tmpcr1;
 80048f0:	6003      	str	r3, [r0, #0]
  TIMx->ARR = (uint32_t)Structure->Period ;
 80048f2:	688a      	ldr	r2, [r1, #8]
 80048f4:	62c2      	str	r2, [r0, #44]	; 0x2c
  TIMx->PSC = Structure->Prescaler;
 80048f6:	680a      	ldr	r2, [r1, #0]
 80048f8:	6282      	str	r2, [r0, #40]	; 0x28
  if (IS_TIM_REPETITION_COUNTER_INSTANCE(TIMx))
 80048fa:	4b11      	ldr	r3, [pc, #68]	; (8004940 <TIM_Base_SetConfig+0xf8>)
 80048fc:	4298      	cmp	r0, r3
 80048fe:	bf14      	ite	ne
 8004900:	4623      	movne	r3, r4
 8004902:	f044 0301 	orreq.w	r3, r4, #1
 8004906:	b95b      	cbnz	r3, 8004920 <TIM_Base_SetConfig+0xd8>
 8004908:	4b0b      	ldr	r3, [pc, #44]	; (8004938 <TIM_Base_SetConfig+0xf0>)
 800490a:	4298      	cmp	r0, r3
 800490c:	bf14      	ite	ne
 800490e:	2300      	movne	r3, #0
 8004910:	2301      	moveq	r3, #1
 8004912:	4a0c      	ldr	r2, [pc, #48]	; (8004944 <TIM_Base_SetConfig+0xfc>)
 8004914:	4290      	cmp	r0, r2
 8004916:	d003      	beq.n	8004920 <TIM_Base_SetConfig+0xd8>
 8004918:	b913      	cbnz	r3, 8004920 <TIM_Base_SetConfig+0xd8>
 800491a:	4b08      	ldr	r3, [pc, #32]	; (800493c <TIM_Base_SetConfig+0xf4>)
 800491c:	4298      	cmp	r0, r3
 800491e:	d101      	bne.n	8004924 <TIM_Base_SetConfig+0xdc>
    TIMx->RCR = Structure->RepetitionCounter;
 8004920:	690b      	ldr	r3, [r1, #16]
 8004922:	6303      	str	r3, [r0, #48]	; 0x30
  TIMx->EGR = TIM_EGR_UG;
 8004924:	2301      	movs	r3, #1
 8004926:	6143      	str	r3, [r0, #20]
}
 8004928:	bc70      	pop	{r4, r5, r6}
 800492a:	4770      	bx	lr
 800492c:	40010000 	.word	0x40010000
 8004930:	40000800 	.word	0x40000800
 8004934:	40000400 	.word	0x40000400
 8004938:	40014400 	.word	0x40014400
 800493c:	40014800 	.word	0x40014800
 8004940:	40010400 	.word	0x40010400
 8004944:	40014000 	.word	0x40014000

08004948 <HAL_TIM_Base_Init>:
  if (htim == NULL)
 8004948:	b360      	cbz	r0, 80049a4 <HAL_TIM_Base_Init+0x5c>
{
 800494a:	b510      	push	{r4, lr}
 800494c:	4604      	mov	r4, r0
  if (htim->State == HAL_TIM_STATE_RESET)
 800494e:	f890 303d 	ldrb.w	r3, [r0, #61]	; 0x3d
 8004952:	b313      	cbz	r3, 800499a <HAL_TIM_Base_Init+0x52>
  htim->State = HAL_TIM_STATE_BUSY;
 8004954:	2302      	movs	r3, #2
 8004956:	f884 303d 	strb.w	r3, [r4, #61]	; 0x3d
  TIM_Base_SetConfig(htim->Instance, &htim->Init);
 800495a:	4621      	mov	r1, r4
 800495c:	f851 0b04 	ldr.w	r0, [r1], #4
 8004960:	f7ff ff72 	bl	8004848 <TIM_Base_SetConfig>
  htim->DMABurstState = HAL_DMA_BURST_STATE_READY;
 8004964:	2301      	movs	r3, #1
 8004966:	f884 3048 	strb.w	r3, [r4, #72]	; 0x48
  TIM_CHANNEL_STATE_SET_ALL(htim, HAL_TIM_CHANNEL_STATE_READY);
 800496a:	f884 303e 	strb.w	r3, [r4, #62]	; 0x3e
 800496e:	f884 303f 	strb.w	r3, [r4, #63]	; 0x3f
 8004972:	f884 3040 	strb.w	r3, [r4, #64]	; 0x40
 8004976:	f884 3041 	strb.w	r3, [r4, #65]	; 0x41
 800497a:	f884 3042 	strb.w	r3, [r4, #66]	; 0x42
 800497e:	f884 3043 	strb.w	r3, [r4, #67]	; 0x43
  TIM_CHANNEL_N_STATE_SET_ALL(htim, HAL_TIM_CHANNEL_STATE_READY);
 8004982:	f884 3044 	strb.w	r3, [r4, #68]	; 0x44
 8004986:	f884 3045 	strb.w	r3, [r4, #69]	; 0x45
 800498a:	f884 3046 	strb.w	r3, [r4, #70]	; 0x46
 800498e:	f884 3047 	strb.w	r3, [r4, #71]	; 0x47
  htim->State = HAL_TIM_STATE_READY;
 8004992:	f884 303d 	strb.w	r3, [r4, #61]	; 0x3d
  return HAL_OK;
 8004996:	2000      	movs	r0, #0
}
 8004998:	bd10      	pop	{r4, pc}
    htim->Lock = HAL_UNLOCKED;
 800499a:	f880 303c 	strb.w	r3, [r0, #60]	; 0x3c
    HAL_TIM_Base_MspInit(htim);
 800499e:	f003 f887 	bl	8007ab0 <HAL_TIM_Base_MspInit>
 80049a2:	e7d7      	b.n	8004954 <HAL_TIM_Base_Init+0xc>
    return HAL_ERROR;
 80049a4:	2001      	movs	r0, #1
}
 80049a6:	4770      	bx	lr

080049a8 <HAL_TIM_OC_Init>:
  if (htim == NULL)
 80049a8:	b360      	cbz	r0, 8004a04 <HAL_TIM_OC_Init+0x5c>
{
 80049aa:	b510      	push	{r4, lr}
 80049ac:	4604      	mov	r4, r0
  if (htim->State == HAL_TIM_STATE_RESET)
 80049ae:	f890 303d 	ldrb.w	r3, [r0, #61]	; 0x3d
 80049b2:	b313      	cbz	r3, 80049fa <HAL_TIM_OC_Init+0x52>
  htim->State = HAL_TIM_STATE_BUSY;
 80049b4:	2302      	movs	r3, #2
 80049b6:	f884 303d 	strb.w	r3, [r4, #61]	; 0x3d
  TIM_Base_SetConfig(htim->Instance,  &htim->Init);
 80049ba:	4621      	mov	r1, r4
 80049bc:	f851 0b04 	ldr.w	r0, [r1], #4
 80049c0:	f7ff ff42 	bl	8004848 <TIM_Base_SetConfig>
  htim->DMABurstState = HAL_DMA_BURST_STATE_READY;
 80049c4:	2301      	movs	r3, #1
 80049c6:	f884 3048 	strb.w	r3, [r4, #72]	; 0x48
  TIM_CHANNEL_STATE_SET_ALL(htim, HAL_TIM_CHANNEL_STATE_READY);
 80049ca:	f884 303e 	strb.w	r3, [r4, #62]	; 0x3e
 80049ce:	f884 303f 	strb.w	r3, [r4, #63]	; 0x3f
 80049d2:	f884 3040 	strb.w	r3, [r4, #64]	; 0x40
 80049d6:	f884 3041 	strb.w	r3, [r4, #65]	; 0x41
 80049da:	f884 3042 	strb.w	r3, [r4, #66]	; 0x42
 80049de:	f884 3043 	strb.w	r3, [r4, #67]	; 0x43
  TIM_CHANNEL_N_STATE_SET_ALL(htim, HAL_TIM_CHANNEL_STATE_READY);
 80049e2:	f884 3044 	strb.w	r3, [r4, #68]	; 0x44
 80049e6:	f884 3045 	strb.w	r3, [r4, #69]	; 0x45
 80049ea:	f884 3046 	strb.w	r3, [r4, #70]	; 0x46
 80049ee:	f884 3047 	strb.w	r3, [r4, #71]	; 0x47
  htim->State = HAL_TIM_STATE_READY;
 80049f2:	f884 303d 	strb.w	r3, [r4, #61]	; 0x3d
  return HAL_OK;
 80049f6:	2000      	movs	r0, #0
}
 80049f8:	bd10      	pop	{r4, pc}
    htim->Lock = HAL_UNLOCKED;
 80049fa:	f880 303c 	strb.w	r3, [r0, #60]	; 0x3c
    HAL_TIM_OC_MspInit(htim);
 80049fe:	f7ff fe51 	bl	80046a4 <HAL_TIM_OC_MspInit>
 8004a02:	e7d7      	b.n	80049b4 <HAL_TIM_OC_Init+0xc>
    return HAL_ERROR;
 8004a04:	2001      	movs	r0, #1
}
 8004a06:	4770      	bx	lr

08004a08 <TIM_OC2_SetConfig>:
{
 8004a08:	b470      	push	{r4, r5, r6}
  TIMx->CCER &= ~TIM_CCER_CC2E;
 8004a0a:	6a03      	ldr	r3, [r0, #32]
 8004a0c:	f023 0310 	bic.w	r3, r3, #16
 8004a10:	6203      	str	r3, [r0, #32]
  tmpccer = TIMx->CCER;
 8004a12:	6a03      	ldr	r3, [r0, #32]
  tmpcr2 =  TIMx->CR2;
 8004a14:	6844      	ldr	r4, [r0, #4]
  tmpccmrx = TIMx->CCMR1;
 8004a16:	6985      	ldr	r5, [r0, #24]
  tmpccmrx &= ~TIM_CCMR1_CC2S;
 8004a18:	4a1a      	ldr	r2, [pc, #104]	; (8004a84 <TIM_OC2_SetConfig+0x7c>)
 8004a1a:	402a      	ands	r2, r5
  tmpccmrx |= (OC_Config->OCMode << 8U);
 8004a1c:	680e      	ldr	r6, [r1, #0]
 8004a1e:	ea42 2606 	orr.w	r6, r2, r6, lsl #8
  tmpccer &= ~TIM_CCER_CC2P;
 8004a22:	f023 0320 	bic.w	r3, r3, #32
  tmpccer |= (OC_Config->OCPolarity << 4U);
 8004a26:	688a      	ldr	r2, [r1, #8]
 8004a28:	ea43 1302 	orr.w	r3, r3, r2, lsl #4
  if (IS_TIM_CCXN_INSTANCE(TIMx, TIM_CHANNEL_2))
 8004a2c:	4a16      	ldr	r2, [pc, #88]	; (8004a88 <TIM_OC2_SetConfig+0x80>)
 8004a2e:	4d17      	ldr	r5, [pc, #92]	; (8004a8c <TIM_OC2_SetConfig+0x84>)
 8004a30:	42a8      	cmp	r0, r5
 8004a32:	bf18      	it	ne
 8004a34:	4290      	cmpne	r0, r2
 8004a36:	bf0c      	ite	eq
 8004a38:	2201      	moveq	r2, #1
 8004a3a:	2200      	movne	r2, #0
 8004a3c:	d106      	bne.n	8004a4c <TIM_OC2_SetConfig+0x44>
    tmpccer &= ~TIM_CCER_CC2NP;
 8004a3e:	f023 0380 	bic.w	r3, r3, #128	; 0x80
    tmpccer |= (OC_Config->OCNPolarity << 4U);
 8004a42:	68cd      	ldr	r5, [r1, #12]
 8004a44:	ea43 1305 	orr.w	r3, r3, r5, lsl #4
    tmpccer &= ~TIM_CCER_CC2NE;
 8004a48:	f023 0340 	bic.w	r3, r3, #64	; 0x40
  if (IS_TIM_BREAK_INSTANCE(TIMx))
 8004a4c:	b95a      	cbnz	r2, 8004a66 <TIM_OC2_SetConfig+0x5e>
 8004a4e:	4a10      	ldr	r2, [pc, #64]	; (8004a90 <TIM_OC2_SetConfig+0x88>)
 8004a50:	4290      	cmp	r0, r2
 8004a52:	bf14      	ite	ne
 8004a54:	2200      	movne	r2, #0
 8004a56:	2201      	moveq	r2, #1
 8004a58:	4d0e      	ldr	r5, [pc, #56]	; (8004a94 <TIM_OC2_SetConfig+0x8c>)
 8004a5a:	42a8      	cmp	r0, r5
 8004a5c:	d003      	beq.n	8004a66 <TIM_OC2_SetConfig+0x5e>
 8004a5e:	b912      	cbnz	r2, 8004a66 <TIM_OC2_SetConfig+0x5e>
 8004a60:	4a0d      	ldr	r2, [pc, #52]	; (8004a98 <TIM_OC2_SetConfig+0x90>)
 8004a62:	4290      	cmp	r0, r2
 8004a64:	d107      	bne.n	8004a76 <TIM_OC2_SetConfig+0x6e>
    tmpcr2 &= ~TIM_CR2_OIS2N;
 8004a66:	f424 6440 	bic.w	r4, r4, #3072	; 0xc00
    tmpcr2 |= (OC_Config->OCIdleState << 2U);
 8004a6a:	694a      	ldr	r2, [r1, #20]
 8004a6c:	ea44 0482 	orr.w	r4, r4, r2, lsl #2
    tmpcr2 |= (OC_Config->OCNIdleState << 2U);
 8004a70:	698a      	ldr	r2, [r1, #24]
 8004a72:	ea44 0482 	orr.w	r4, r4, r2, lsl #2
  TIMx->CR2 = tmpcr2;
 8004a76:	6044      	str	r4, [r0, #4]
  TIMx->CCMR1 = tmpccmrx;
 8004a78:	6186      	str	r6, [r0, #24]
  TIMx->CCR2 = OC_Config->Pulse;
 8004a7a:	684a      	ldr	r2, [r1, #4]
 8004a7c:	6382      	str	r2, [r0, #56]	; 0x38
  TIMx->CCER = tmpccer;
 8004a7e:	6203      	str	r3, [r0, #32]
}
 8004a80:	bc70      	pop	{r4, r5, r6}
 8004a82:	4770      	bx	lr
 8004a84:	feff8cff 	.word	0xfeff8cff
 8004a88:	40010000 	.word	0x40010000
 8004a8c:	40010400 	.word	0x40010400
 8004a90:	40014400 	.word	0x40014400
 8004a94:	40014000 	.word	0x40014000
 8004a98:	40014800 	.word	0x40014800

08004a9c <HAL_TIM_OC_ConfigChannel>:
  __HAL_LOCK(htim);
 8004a9c:	f890 303c 	ldrb.w	r3, [r0, #60]	; 0x3c
 8004aa0:	2b01      	cmp	r3, #1
 8004aa2:	d02e      	beq.n	8004b02 <HAL_TIM_OC_ConfigChannel+0x66>
{
 8004aa4:	b510      	push	{r4, lr}
 8004aa6:	4604      	mov	r4, r0
  __HAL_LOCK(htim);
 8004aa8:	2301      	movs	r3, #1
 8004aaa:	f880 303c 	strb.w	r3, [r0, #60]	; 0x3c
  switch (Channel)
 8004aae:	2a14      	cmp	r2, #20
 8004ab0:	d80f      	bhi.n	8004ad2 <HAL_TIM_OC_ConfigChannel+0x36>
 8004ab2:	e8df f002 	tbb	[pc, r2]
 8004ab6:	0e0b      	.short	0x0e0b
 8004ab8:	0e120e0e 	.word	0x0e120e0e
 8004abc:	0e160e0e 	.word	0x0e160e0e
 8004ac0:	0e1a0e0e 	.word	0x0e1a0e0e
 8004ac4:	0e1e0e0e 	.word	0x0e1e0e0e
 8004ac8:	0e0e      	.short	0x0e0e
 8004aca:	22          	.byte	0x22
 8004acb:	00          	.byte	0x00
      TIM_OC1_SetConfig(htim->Instance, sConfig);
 8004acc:	6800      	ldr	r0, [r0, #0]
 8004ace:	f7ff fc37 	bl	8004340 <TIM_OC1_SetConfig>
  __HAL_UNLOCK(htim);
 8004ad2:	2000      	movs	r0, #0
 8004ad4:	f884 003c 	strb.w	r0, [r4, #60]	; 0x3c
}
 8004ad8:	bd10      	pop	{r4, pc}
      TIM_OC2_SetConfig(htim->Instance, sConfig);
 8004ada:	6800      	ldr	r0, [r0, #0]
 8004adc:	f7ff ff94 	bl	8004a08 <TIM_OC2_SetConfig>
      break;
 8004ae0:	e7f7      	b.n	8004ad2 <HAL_TIM_OC_ConfigChannel+0x36>
      TIM_OC3_SetConfig(htim->Instance, sConfig);
 8004ae2:	6800      	ldr	r0, [r0, #0]
 8004ae4:	f7ff fc7e 	bl	80043e4 <TIM_OC3_SetConfig>
      break;
 8004ae8:	e7f3      	b.n	8004ad2 <HAL_TIM_OC_ConfigChannel+0x36>
      TIM_OC4_SetConfig(htim->Instance, sConfig);
 8004aea:	6800      	ldr	r0, [r0, #0]
 8004aec:	f7ff fcc2 	bl	8004474 <TIM_OC4_SetConfig>
      break;
 8004af0:	e7ef      	b.n	8004ad2 <HAL_TIM_OC_ConfigChannel+0x36>
      TIM_OC5_SetConfig(htim->Instance, sConfig);
 8004af2:	6800      	ldr	r0, [r0, #0]
 8004af4:	f7ff fcf6 	bl	80044e4 <TIM_OC5_SetConfig>
      break;
 8004af8:	e7eb      	b.n	8004ad2 <HAL_TIM_OC_ConfigChannel+0x36>
      TIM_OC6_SetConfig(htim->Instance, sConfig);
 8004afa:	6800      	ldr	r0, [r0, #0]
 8004afc:	f7ff fd2a 	bl	8004554 <TIM_OC6_SetConfig>
      break;
 8004b00:	e7e7      	b.n	8004ad2 <HAL_TIM_OC_ConfigChannel+0x36>
  __HAL_LOCK(htim);
 8004b02:	2002      	movs	r0, #2
}
 8004b04:	4770      	bx	lr

08004b06 <TIM_ETR_SetConfig>:
  *          This parameter must be a value between 0x00 and 0x0F
  * @retval None
  */
void TIM_ETR_SetConfig(TIM_TypeDef *TIMx, uint32_t TIM_ExtTRGPrescaler,
                       uint32_t TIM_ExtTRGPolarity, uint32_t ExtTRGFilter)
{
 8004b06:	b410      	push	{r4}
  uint32_t tmpsmcr;

  tmpsmcr = TIMx->SMCR;
 8004b08:	6884      	ldr	r4, [r0, #8]

  /* Reset the ETR Bits */
  tmpsmcr &= ~(TIM_SMCR_ETF | TIM_SMCR_ETPS | TIM_SMCR_ECE | TIM_SMCR_ETP);
 8004b0a:	f424 447f 	bic.w	r4, r4, #65280	; 0xff00

  /* Set the Prescaler, the Filter value and the Polarity */
  tmpsmcr |= (uint32_t)(TIM_ExtTRGPrescaler | (TIM_ExtTRGPolarity | (ExtTRGFilter << 8U)));
 8004b0e:	ea42 2203 	orr.w	r2, r2, r3, lsl #8
 8004b12:	430a      	orrs	r2, r1
 8004b14:	4322      	orrs	r2, r4

  /* Write to TIMx SMCR */
  TIMx->SMCR = tmpsmcr;
 8004b16:	6082      	str	r2, [r0, #8]
}
 8004b18:	f85d 4b04 	ldr.w	r4, [sp], #4
 8004b1c:	4770      	bx	lr
	...

08004b20 <HAL_TIM_ConfigClockSource>:
  __HAL_LOCK(htim);
 8004b20:	f890 303c 	ldrb.w	r3, [r0, #60]	; 0x3c
 8004b24:	2b01      	cmp	r3, #1
 8004b26:	d077      	beq.n	8004c18 <HAL_TIM_ConfigClockSource+0xf8>
{
 8004b28:	b510      	push	{r4, lr}
 8004b2a:	4604      	mov	r4, r0
  __HAL_LOCK(htim);
 8004b2c:	2301      	movs	r3, #1
 8004b2e:	f880 303c 	strb.w	r3, [r0, #60]	; 0x3c
  htim->State = HAL_TIM_STATE_BUSY;
 8004b32:	2302      	movs	r3, #2
 8004b34:	f880 303d 	strb.w	r3, [r0, #61]	; 0x3d
  tmpsmcr = htim->Instance->SMCR;
 8004b38:	6802      	ldr	r2, [r0, #0]
 8004b3a:	6890      	ldr	r0, [r2, #8]
  tmpsmcr &= ~(TIM_SMCR_ETF | TIM_SMCR_ETPS | TIM_SMCR_ECE | TIM_SMCR_ETP);
 8004b3c:	4b37      	ldr	r3, [pc, #220]	; (8004c1c <HAL_TIM_ConfigClockSource+0xfc>)
 8004b3e:	4003      	ands	r3, r0
  htim->Instance->SMCR = tmpsmcr;
 8004b40:	6093      	str	r3, [r2, #8]
  switch (sClockSourceConfig->ClockSource)
 8004b42:	680b      	ldr	r3, [r1, #0]
 8004b44:	2b60      	cmp	r3, #96	; 0x60
 8004b46:	d053      	beq.n	8004bf0 <HAL_TIM_ConfigClockSource+0xd0>
 8004b48:	d90e      	bls.n	8004b68 <HAL_TIM_ConfigClockSource+0x48>
 8004b4a:	f5b3 5f00 	cmp.w	r3, #8192	; 0x2000
 8004b4e:	d043      	beq.n	8004bd8 <HAL_TIM_ConfigClockSource+0xb8>
 8004b50:	d92d      	bls.n	8004bae <HAL_TIM_ConfigClockSource+0x8e>
 8004b52:	4a33      	ldr	r2, [pc, #204]	; (8004c20 <HAL_TIM_ConfigClockSource+0x100>)
 8004b54:	4293      	cmp	r3, r2
 8004b56:	d025      	beq.n	8004ba4 <HAL_TIM_ConfigClockSource+0x84>
 8004b58:	d937      	bls.n	8004bca <HAL_TIM_ConfigClockSource+0xaa>
 8004b5a:	4a32      	ldr	r2, [pc, #200]	; (8004c24 <HAL_TIM_ConfigClockSource+0x104>)
 8004b5c:	4293      	cmp	r3, r2
 8004b5e:	d021      	beq.n	8004ba4 <HAL_TIM_ConfigClockSource+0x84>
 8004b60:	3210      	adds	r2, #16
 8004b62:	4293      	cmp	r3, r2
 8004b64:	d01e      	beq.n	8004ba4 <HAL_TIM_ConfigClockSource+0x84>
 8004b66:	e013      	b.n	8004b90 <HAL_TIM_ConfigClockSource+0x70>
 8004b68:	2b40      	cmp	r3, #64	; 0x40
 8004b6a:	d04b      	beq.n	8004c04 <HAL_TIM_ConfigClockSource+0xe4>
 8004b6c:	d90b      	bls.n	8004b86 <HAL_TIM_ConfigClockSource+0x66>
 8004b6e:	2b50      	cmp	r3, #80	; 0x50
 8004b70:	d10e      	bne.n	8004b90 <HAL_TIM_ConfigClockSource+0x70>
      TIM_TI1_ConfigInputStage(htim->Instance,
 8004b72:	68ca      	ldr	r2, [r1, #12]
 8004b74:	6849      	ldr	r1, [r1, #4]
 8004b76:	6820      	ldr	r0, [r4, #0]
 8004b78:	f7ff fd24 	bl	80045c4 <TIM_TI1_ConfigInputStage>
      TIM_ITRx_SetConfig(htim->Instance, TIM_CLOCKSOURCE_TI1);
 8004b7c:	2150      	movs	r1, #80	; 0x50
 8004b7e:	6820      	ldr	r0, [r4, #0]
 8004b80:	f7ff fd46 	bl	8004610 <TIM_ITRx_SetConfig>
      break;
 8004b84:	e004      	b.n	8004b90 <HAL_TIM_ConfigClockSource+0x70>
  switch (sClockSourceConfig->ClockSource)
 8004b86:	2b20      	cmp	r3, #32
 8004b88:	d00c      	beq.n	8004ba4 <HAL_TIM_ConfigClockSource+0x84>
 8004b8a:	d908      	bls.n	8004b9e <HAL_TIM_ConfigClockSource+0x7e>
 8004b8c:	2b30      	cmp	r3, #48	; 0x30
 8004b8e:	d009      	beq.n	8004ba4 <HAL_TIM_ConfigClockSource+0x84>
  htim->State = HAL_TIM_STATE_READY;
 8004b90:	2301      	movs	r3, #1
 8004b92:	f884 303d 	strb.w	r3, [r4, #61]	; 0x3d
  __HAL_UNLOCK(htim);
 8004b96:	2000      	movs	r0, #0
 8004b98:	f884 003c 	strb.w	r0, [r4, #60]	; 0x3c
}
 8004b9c:	bd10      	pop	{r4, pc}
  switch (sClockSourceConfig->ClockSource)
 8004b9e:	b10b      	cbz	r3, 8004ba4 <HAL_TIM_ConfigClockSource+0x84>
 8004ba0:	2b10      	cmp	r3, #16
 8004ba2:	d1f5      	bne.n	8004b90 <HAL_TIM_ConfigClockSource+0x70>
      TIM_ITRx_SetConfig(htim->Instance, sClockSourceConfig->ClockSource);
 8004ba4:	4619      	mov	r1, r3
 8004ba6:	6820      	ldr	r0, [r4, #0]
 8004ba8:	f7ff fd32 	bl	8004610 <TIM_ITRx_SetConfig>
      break;
 8004bac:	e7f0      	b.n	8004b90 <HAL_TIM_ConfigClockSource+0x70>
  switch (sClockSourceConfig->ClockSource)
 8004bae:	2b70      	cmp	r3, #112	; 0x70
 8004bb0:	d1ee      	bne.n	8004b90 <HAL_TIM_ConfigClockSource+0x70>
      TIM_ETR_SetConfig(htim->Instance,
 8004bb2:	68cb      	ldr	r3, [r1, #12]
 8004bb4:	684a      	ldr	r2, [r1, #4]
 8004bb6:	6889      	ldr	r1, [r1, #8]
 8004bb8:	6820      	ldr	r0, [r4, #0]
 8004bba:	f7ff ffa4 	bl	8004b06 <TIM_ETR_SetConfig>
      tmpsmcr = htim->Instance->SMCR;
 8004bbe:	6822      	ldr	r2, [r4, #0]
 8004bc0:	6893      	ldr	r3, [r2, #8]
      tmpsmcr |= (TIM_SLAVEMODE_EXTERNAL1 | TIM_CLOCKSOURCE_ETRMODE1);
 8004bc2:	f043 0377 	orr.w	r3, r3, #119	; 0x77
      htim->Instance->SMCR = tmpsmcr;
 8004bc6:	6093      	str	r3, [r2, #8]
      break;
 8004bc8:	e7e2      	b.n	8004b90 <HAL_TIM_ConfigClockSource+0x70>
  switch (sClockSourceConfig->ClockSource)
 8004bca:	f5b3 1f80 	cmp.w	r3, #1048576	; 0x100000
 8004bce:	d0e9      	beq.n	8004ba4 <HAL_TIM_ConfigClockSource+0x84>
 8004bd0:	f1b3 1f10 	cmp.w	r3, #1048592	; 0x100010
 8004bd4:	d0e6      	beq.n	8004ba4 <HAL_TIM_ConfigClockSource+0x84>
 8004bd6:	e7db      	b.n	8004b90 <HAL_TIM_ConfigClockSource+0x70>
      TIM_ETR_SetConfig(htim->Instance,
 8004bd8:	68cb      	ldr	r3, [r1, #12]
 8004bda:	684a      	ldr	r2, [r1, #4]
 8004bdc:	6889      	ldr	r1, [r1, #8]
 8004bde:	6820      	ldr	r0, [r4, #0]
 8004be0:	f7ff ff91 	bl	8004b06 <TIM_ETR_SetConfig>
      htim->Instance->SMCR |= TIM_SMCR_ECE;
 8004be4:	6822      	ldr	r2, [r4, #0]
 8004be6:	6893      	ldr	r3, [r2, #8]
 8004be8:	f443 4380 	orr.w	r3, r3, #16384	; 0x4000
 8004bec:	6093      	str	r3, [r2, #8]
      break;
 8004bee:	e7cf      	b.n	8004b90 <HAL_TIM_ConfigClockSource+0x70>
      TIM_TI2_ConfigInputStage(htim->Instance,
 8004bf0:	68ca      	ldr	r2, [r1, #12]
 8004bf2:	6849      	ldr	r1, [r1, #4]
 8004bf4:	6820      	ldr	r0, [r4, #0]
 8004bf6:	f7ff fcf7 	bl	80045e8 <TIM_TI2_ConfigInputStage>
      TIM_ITRx_SetConfig(htim->Instance, TIM_CLOCKSOURCE_TI2);
 8004bfa:	2160      	movs	r1, #96	; 0x60
 8004bfc:	6820      	ldr	r0, [r4, #0]
 8004bfe:	f7ff fd07 	bl	8004610 <TIM_ITRx_SetConfig>
      break;
 8004c02:	e7c5      	b.n	8004b90 <HAL_TIM_ConfigClockSource+0x70>
      TIM_TI1_ConfigInputStage(htim->Instance,
 8004c04:	68ca      	ldr	r2, [r1, #12]
 8004c06:	6849      	ldr	r1, [r1, #4]
 8004c08:	6820      	ldr	r0, [r4, #0]
 8004c0a:	f7ff fcdb 	bl	80045c4 <TIM_TI1_ConfigInputStage>
      TIM_ITRx_SetConfig(htim->Instance, TIM_CLOCKSOURCE_TI1ED);
 8004c0e:	2140      	movs	r1, #64	; 0x40
 8004c10:	6820      	ldr	r0, [r4, #0]
 8004c12:	f7ff fcfd 	bl	8004610 <TIM_ITRx_SetConfig>
      break;
 8004c16:	e7bb      	b.n	8004b90 <HAL_TIM_ConfigClockSource+0x70>
  __HAL_LOCK(htim);
 8004c18:	2002      	movs	r0, #2
}
 8004c1a:	4770      	bx	lr
 8004c1c:	ffce0088 	.word	0xffce0088
 8004c20:	00100020 	.word	0x00100020
 8004c24:	00100030 	.word	0x00100030

08004c28 <HAL_TIMEx_MasterConfigSynchronization>:
  assert_param(IS_TIM_MASTER_INSTANCE(htim->Instance));
  assert_param(IS_TIM_TRGO_SOURCE(sMasterConfig->MasterOutputTrigger));
  assert_param(IS_TIM_MSM_STATE(sMasterConfig->MasterSlaveMode));

  /* Check input state */
  __HAL_LOCK(htim);
 8004c28:	f890 303c 	ldrb.w	r3, [r0, #60]	; 0x3c
 8004c2c:	2b01      	cmp	r3, #1
 8004c2e:	d041      	beq.n	8004cb4 <HAL_TIMEx_MasterConfigSynchronization+0x8c>
{
 8004c30:	b470      	push	{r4, r5, r6}
  __HAL_LOCK(htim);
 8004c32:	2301      	movs	r3, #1
 8004c34:	f880 303c 	strb.w	r3, [r0, #60]	; 0x3c

  /* Change the handler state */
  htim->State = HAL_TIM_STATE_BUSY;
 8004c38:	2302      	movs	r3, #2
 8004c3a:	f880 303d 	strb.w	r3, [r0, #61]	; 0x3d

  /* Get the TIMx CR2 register value */
  tmpcr2 = htim->Instance->CR2;
 8004c3e:	6803      	ldr	r3, [r0, #0]
 8004c40:	685a      	ldr	r2, [r3, #4]

  /* Get the TIMx SMCR register value */
  tmpsmcr = htim->Instance->SMCR;
 8004c42:	689d      	ldr	r5, [r3, #8]

  /* If the timer supports ADC synchronization through TRGO2, set the master mode selection 2 */
  if (IS_TIM_TRGO2_INSTANCE(htim->Instance))
 8004c44:	4e1c      	ldr	r6, [pc, #112]	; (8004cb8 <HAL_TIMEx_MasterConfigSynchronization+0x90>)
 8004c46:	4c1d      	ldr	r4, [pc, #116]	; (8004cbc <HAL_TIMEx_MasterConfigSynchronization+0x94>)
 8004c48:	42a3      	cmp	r3, r4
 8004c4a:	bf18      	it	ne
 8004c4c:	42b3      	cmpne	r3, r6
 8004c4e:	d103      	bne.n	8004c58 <HAL_TIMEx_MasterConfigSynchronization+0x30>
  {
    /* Check the parameters */
    assert_param(IS_TIM_TRGO2_SOURCE(sMasterConfig->MasterOutputTrigger2));

    /* Clear the MMS2 bits */
    tmpcr2 &= ~TIM_CR2_MMS2;
 8004c50:	f422 0270 	bic.w	r2, r2, #15728640	; 0xf00000
    /* Select the TRGO2 source*/
    tmpcr2 |= sMasterConfig->MasterOutputTrigger2;
 8004c54:	684c      	ldr	r4, [r1, #4]
 8004c56:	4322      	orrs	r2, r4
  }

  /* Reset the MMS Bits */
  tmpcr2 &= ~TIM_CR2_MMS;
 8004c58:	f022 0270 	bic.w	r2, r2, #112	; 0x70
  /* Select the TRGO source */
  tmpcr2 |=  sMasterConfig->MasterOutputTrigger;
 8004c5c:	680c      	ldr	r4, [r1, #0]
 8004c5e:	4322      	orrs	r2, r4

  /* Update TIMx CR2 */
  htim->Instance->CR2 = tmpcr2;
 8004c60:	605a      	str	r2, [r3, #4]

  if (IS_TIM_SLAVE_INSTANCE(htim->Instance))
 8004c62:	6803      	ldr	r3, [r0, #0]
 8004c64:	4a14      	ldr	r2, [pc, #80]	; (8004cb8 <HAL_TIMEx_MasterConfigSynchronization+0x90>)
 8004c66:	f1b3 4f80 	cmp.w	r3, #1073741824	; 0x40000000
 8004c6a:	bf18      	it	ne
 8004c6c:	4293      	cmpne	r3, r2
 8004c6e:	d013      	beq.n	8004c98 <HAL_TIMEx_MasterConfigSynchronization+0x70>
 8004c70:	f5a2 427c 	sub.w	r2, r2, #64512	; 0xfc00
 8004c74:	4293      	cmp	r3, r2
 8004c76:	d00f      	beq.n	8004c98 <HAL_TIMEx_MasterConfigSynchronization+0x70>
 8004c78:	f502 6280 	add.w	r2, r2, #1024	; 0x400
 8004c7c:	4293      	cmp	r3, r2
 8004c7e:	d00b      	beq.n	8004c98 <HAL_TIMEx_MasterConfigSynchronization+0x70>
 8004c80:	f502 6280 	add.w	r2, r2, #1024	; 0x400
 8004c84:	4293      	cmp	r3, r2
 8004c86:	d007      	beq.n	8004c98 <HAL_TIMEx_MasterConfigSynchronization+0x70>
 8004c88:	f502 4278 	add.w	r2, r2, #63488	; 0xf800
 8004c8c:	4293      	cmp	r3, r2
 8004c8e:	d003      	beq.n	8004c98 <HAL_TIMEx_MasterConfigSynchronization+0x70>
 8004c90:	f5a2 426c 	sub.w	r2, r2, #60416	; 0xec00
 8004c94:	4293      	cmp	r3, r2
 8004c96:	d104      	bne.n	8004ca2 <HAL_TIMEx_MasterConfigSynchronization+0x7a>
  {
    /* Reset the MSM Bit */
    tmpsmcr &= ~TIM_SMCR_MSM;
 8004c98:	f025 0580 	bic.w	r5, r5, #128	; 0x80
    /* Set master mode */
    tmpsmcr |= sMasterConfig->MasterSlaveMode;
 8004c9c:	688a      	ldr	r2, [r1, #8]
 8004c9e:	4315      	orrs	r5, r2

    /* Update TIMx SMCR */
    htim->Instance->SMCR = tmpsmcr;
 8004ca0:	609d      	str	r5, [r3, #8]
  }

  /* Change the htim state */
  htim->State = HAL_TIM_STATE_READY;
 8004ca2:	2301      	movs	r3, #1
 8004ca4:	f880 303d 	strb.w	r3, [r0, #61]	; 0x3d

  __HAL_UNLOCK(htim);
 8004ca8:	2300      	movs	r3, #0
 8004caa:	f880 303c 	strb.w	r3, [r0, #60]	; 0x3c

  return HAL_OK;
 8004cae:	4618      	mov	r0, r3
}
 8004cb0:	bc70      	pop	{r4, r5, r6}
 8004cb2:	4770      	bx	lr
  __HAL_LOCK(htim);
 8004cb4:	2002      	movs	r0, #2
}
 8004cb6:	4770      	bx	lr
 8004cb8:	40010000 	.word	0x40010000
 8004cbc:	40010400 	.word	0x40010400

08004cc0 <HAL_TIMEx_CommutCallback>:
  UNUSED(htim);

  /* NOTE : This function should not be modified, when the callback is needed,
            the HAL_TIMEx_CommutCallback could be implemented in the user file
   */
}
 8004cc0:	4770      	bx	lr

08004cc2 <HAL_TIMEx_BreakCallback>:
  UNUSED(htim);

  /* NOTE : This function should not be modified, when the callback is needed,
            the HAL_TIMEx_BreakCallback could be implemented in the user file
   */
}
 8004cc2:	4770      	bx	lr

08004cc4 <HAL_TIMEx_Break2Callback>:
  UNUSED(htim);

  /* NOTE : This function Should not be modified, when the callback is needed,
            the HAL_TIMEx_Break2Callback could be implemented in the user file
   */
}
 8004cc4:	4770      	bx	lr
	...

08004cc8 <UART_SetConfig>:
  * @brief Configure the UART peripheral.
  * @param huart UART handle.
  * @retval HAL status
  */
HAL_StatusTypeDef UART_SetConfig(UART_HandleTypeDef *huart)
{
 8004cc8:	e92d 41f0 	stmdb	sp!, {r4, r5, r6, r7, r8, lr}
 8004ccc:	b086      	sub	sp, #24
 8004cce:	4604      	mov	r4, r0
  uint32_t pclk;

  /* Check the parameters */
  assert_param(IS_UART_BAUDRATE(huart->Init.BaudRate));
  assert_param(IS_UART_WORD_LENGTH(huart->Init.WordLength));
  if (UART_INSTANCE_LOWPOWER(huart))
 8004cd0:	6801      	ldr	r1, [r0, #0]
  *  the UART Word Length, Parity, Mode and oversampling:
  *  set the M bits according to huart->Init.WordLength value
  *  set PCE and PS bits according to huart->Init.Parity value
  *  set TE and RE bits according to huart->Init.Mode value
  *  set OVER8 bit according to huart->Init.OverSampling value */
  tmpreg = (uint32_t)huart->Init.WordLength | huart->Init.Parity | huart->Init.Mode | huart->Init.OverSampling ;
 8004cd2:	6883      	ldr	r3, [r0, #8]
 8004cd4:	6902      	ldr	r2, [r0, #16]
 8004cd6:	4313      	orrs	r3, r2
 8004cd8:	6942      	ldr	r2, [r0, #20]
 8004cda:	4313      	orrs	r3, r2
 8004cdc:	69c2      	ldr	r2, [r0, #28]
 8004cde:	4313      	orrs	r3, r2
  tmpreg |= (uint32_t)huart->FifoMode;
 8004ce0:	6e42      	ldr	r2, [r0, #100]	; 0x64
 8004ce2:	4313      	orrs	r3, r2
  MODIFY_REG(huart->Instance->CR1, USART_CR1_FIELDS, tmpreg);
 8004ce4:	6808      	ldr	r0, [r1, #0]
 8004ce6:	4a88      	ldr	r2, [pc, #544]	; (8004f08 <UART_SetConfig+0x240>)
 8004ce8:	4002      	ands	r2, r0
 8004cea:	431a      	orrs	r2, r3
 8004cec:	600a      	str	r2, [r1, #0]

  /*-------------------------- USART CR2 Configuration -----------------------*/
  /* Configure the UART Stop Bits: Set STOP[13:12] bits according
  * to huart->Init.StopBits value */
  MODIFY_REG(huart->Instance->CR2, USART_CR2_STOP, huart->Init.StopBits);
 8004cee:	6822      	ldr	r2, [r4, #0]
 8004cf0:	6853      	ldr	r3, [r2, #4]
 8004cf2:	f423 5340 	bic.w	r3, r3, #12288	; 0x3000
 8004cf6:	68e1      	ldr	r1, [r4, #12]
 8004cf8:	430b      	orrs	r3, r1
 8004cfa:	6053      	str	r3, [r2, #4]
  /* Configure
  * - UART HardWare Flow Control: set CTSE and RTSE bits according
  *   to huart->Init.HwFlowCtl value
  * - one-bit sampling method versus three samples' majority rule according
  *   to huart->Init.OneBitSampling (not applicable to LPUART) */
  tmpreg = (uint32_t)huart->Init.HwFlowCtl;
 8004cfc:	69a1      	ldr	r1, [r4, #24]

  if (!(UART_INSTANCE_LOWPOWER(huart)))
 8004cfe:	6822      	ldr	r2, [r4, #0]
 8004d00:	4b82      	ldr	r3, [pc, #520]	; (8004f0c <UART_SetConfig+0x244>)
 8004d02:	429a      	cmp	r2, r3
 8004d04:	d001      	beq.n	8004d0a <UART_SetConfig+0x42>
  {
    tmpreg |= huart->Init.OneBitSampling;
 8004d06:	6a23      	ldr	r3, [r4, #32]
 8004d08:	4319      	orrs	r1, r3
  }
  MODIFY_REG(huart->Instance->CR3, USART_CR3_FIELDS, tmpreg);
 8004d0a:	6890      	ldr	r0, [r2, #8]
 8004d0c:	4b80      	ldr	r3, [pc, #512]	; (8004f10 <UART_SetConfig+0x248>)
 8004d0e:	4003      	ands	r3, r0
 8004d10:	430b      	orrs	r3, r1
 8004d12:	6093      	str	r3, [r2, #8]

  /*-------------------------- USART PRESC Configuration -----------------------*/
  /* Configure
  * - UART Clock Prescaler : set PRESCALER according to huart->Init.ClockPrescaler value */
  MODIFY_REG(huart->Instance->PRESC, USART_PRESC_PRESCALER, huart->Init.ClockPrescaler);
 8004d14:	6822      	ldr	r2, [r4, #0]
 8004d16:	6ad3      	ldr	r3, [r2, #44]	; 0x2c
 8004d18:	f023 030f 	bic.w	r3, r3, #15
 8004d1c:	6a61      	ldr	r1, [r4, #36]	; 0x24
 8004d1e:	430b      	orrs	r3, r1
 8004d20:	62d3      	str	r3, [r2, #44]	; 0x2c

  /*-------------------------- USART BRR Configuration -----------------------*/
  UART_GETCLOCKSOURCE(huart, clocksource);
 8004d22:	6822      	ldr	r2, [r4, #0]
 8004d24:	4b7b      	ldr	r3, [pc, #492]	; (8004f14 <UART_SetConfig+0x24c>)
 8004d26:	429a      	cmp	r2, r3
 8004d28:	d021      	beq.n	8004d6e <UART_SetConfig+0xa6>
 8004d2a:	4b7b      	ldr	r3, [pc, #492]	; (8004f18 <UART_SetConfig+0x250>)
 8004d2c:	429a      	cmp	r2, r3
 8004d2e:	f000 808c 	beq.w	8004e4a <UART_SetConfig+0x182>
 8004d32:	4b7a      	ldr	r3, [pc, #488]	; (8004f1c <UART_SetConfig+0x254>)
 8004d34:	429a      	cmp	r2, r3
 8004d36:	f000 80a2 	beq.w	8004e7e <UART_SetConfig+0x1b6>
 8004d3a:	4b79      	ldr	r3, [pc, #484]	; (8004f20 <UART_SetConfig+0x258>)
 8004d3c:	429a      	cmp	r2, r3
 8004d3e:	f000 80b5 	beq.w	8004eac <UART_SetConfig+0x1e4>
 8004d42:	4b78      	ldr	r3, [pc, #480]	; (8004f24 <UART_SetConfig+0x25c>)
 8004d44:	429a      	cmp	r2, r3
 8004d46:	f000 80c8 	beq.w	8004eda <UART_SetConfig+0x212>
 8004d4a:	4b77      	ldr	r3, [pc, #476]	; (8004f28 <UART_SetConfig+0x260>)
 8004d4c:	429a      	cmp	r2, r3
 8004d4e:	f000 80f3 	beq.w	8004f38 <UART_SetConfig+0x270>
 8004d52:	4b76      	ldr	r3, [pc, #472]	; (8004f2c <UART_SetConfig+0x264>)
 8004d54:	429a      	cmp	r2, r3
 8004d56:	f000 8118 	beq.w	8004f8a <UART_SetConfig+0x2c2>
 8004d5a:	4b75      	ldr	r3, [pc, #468]	; (8004f30 <UART_SetConfig+0x268>)
 8004d5c:	429a      	cmp	r2, r3
 8004d5e:	f000 812b 	beq.w	8004fb8 <UART_SetConfig+0x2f0>
 8004d62:	4b6a      	ldr	r3, [pc, #424]	; (8004f0c <UART_SetConfig+0x244>)
 8004d64:	429a      	cmp	r2, r3
 8004d66:	f000 813e 	beq.w	8004fe6 <UART_SetConfig+0x31e>
 8004d6a:	2380      	movs	r3, #128	; 0x80
 8004d6c:	e033      	b.n	8004dd6 <UART_SetConfig+0x10e>
 8004d6e:	4b71      	ldr	r3, [pc, #452]	; (8004f34 <UART_SetConfig+0x26c>)
 8004d70:	6d5b      	ldr	r3, [r3, #84]	; 0x54
 8004d72:	f003 0338 	and.w	r3, r3, #56	; 0x38
 8004d76:	2b28      	cmp	r3, #40	; 0x28
 8004d78:	d865      	bhi.n	8004e46 <UART_SetConfig+0x17e>
 8004d7a:	e8df f013 	tbh	[pc, r3, lsl #1]
 8004d7e:	0029      	.short	0x0029
 8004d80:	00640064 	.word	0x00640064
 8004d84:	00640064 	.word	0x00640064
 8004d88:	00640064 	.word	0x00640064
 8004d8c:	014c0064 	.word	0x014c0064
 8004d90:	00640064 	.word	0x00640064
 8004d94:	00640064 	.word	0x00640064
 8004d98:	00640064 	.word	0x00640064
 8004d9c:	002b0064 	.word	0x002b0064
 8004da0:	00640064 	.word	0x00640064
 8004da4:	00640064 	.word	0x00640064
 8004da8:	00640064 	.word	0x00640064
 8004dac:	005e0064 	.word	0x005e0064
 8004db0:	00640064 	.word	0x00640064
 8004db4:	00640064 	.word	0x00640064
 8004db8:	00640064 	.word	0x00640064
 8004dbc:	00600064 	.word	0x00600064
 8004dc0:	00640064 	.word	0x00640064
 8004dc4:	00640064 	.word	0x00640064
 8004dc8:	00640064 	.word	0x00640064
 8004dcc:	00620064 	.word	0x00620064
 8004dd0:	2301      	movs	r3, #1
 8004dd2:	e000      	b.n	8004dd6 <UART_SetConfig+0x10e>
 8004dd4:	2308      	movs	r3, #8

  /* Check LPUART instance */
  if (UART_INSTANCE_LOWPOWER(huart))
 8004dd6:	494d      	ldr	r1, [pc, #308]	; (8004f0c <UART_SetConfig+0x244>)
 8004dd8:	428a      	cmp	r2, r1
 8004dda:	f000 812e 	beq.w	800503a <UART_SetConfig+0x372>
        }
      } /* if ( (lpuart_ker_ck_pres < (3 * huart->Init.BaudRate) ) || (lpuart_ker_ck_pres > (4096 * huart->Init.BaudRate) )) */
    } /* if (pclk != 0) */
  }
  /* Check UART Over Sampling to set Baud Rate Register */
  else if (huart->Init.OverSampling == UART_OVERSAMPLING_8)
 8004dde:	69e0      	ldr	r0, [r4, #28]
 8004de0:	f5b0 4f00 	cmp.w	r0, #32768	; 0x8000
 8004de4:	f000 81b0 	beq.w	8005148 <UART_SetConfig+0x480>
      }
    }
  }
  else
  {
    switch (clocksource)
 8004de8:	2b20      	cmp	r3, #32
 8004dea:	f200 8209 	bhi.w	8005200 <UART_SetConfig+0x538>
 8004dee:	2b20      	cmp	r3, #32
 8004df0:	f200 825d 	bhi.w	80052ae <UART_SetConfig+0x5e6>
 8004df4:	e8df f013 	tbh	[pc, r3, lsl #1]
 8004df8:	0230022a 	.word	0x0230022a
 8004dfc:	025b025b 	.word	0x025b025b
 8004e00:	025b0233 	.word	0x025b0233
 8004e04:	025b025b 	.word	0x025b025b
 8004e08:	025b0238 	.word	0x025b0238
 8004e0c:	025b025b 	.word	0x025b025b
 8004e10:	025b025b 	.word	0x025b025b
 8004e14:	025b025b 	.word	0x025b025b
 8004e18:	025b023d 	.word	0x025b023d
 8004e1c:	025b025b 	.word	0x025b025b
 8004e20:	025b025b 	.word	0x025b025b
 8004e24:	025b025b 	.word	0x025b025b
 8004e28:	025b025b 	.word	0x025b025b
 8004e2c:	025b025b 	.word	0x025b025b
 8004e30:	025b025b 	.word	0x025b025b
 8004e34:	025b025b 	.word	0x025b025b
 8004e38:	0249      	.short	0x0249
  UART_GETCLOCKSOURCE(huart, clocksource);
 8004e3a:	2310      	movs	r3, #16
 8004e3c:	e7cb      	b.n	8004dd6 <UART_SetConfig+0x10e>
 8004e3e:	2320      	movs	r3, #32
 8004e40:	e7c9      	b.n	8004dd6 <UART_SetConfig+0x10e>
 8004e42:	2340      	movs	r3, #64	; 0x40
 8004e44:	e7c7      	b.n	8004dd6 <UART_SetConfig+0x10e>
 8004e46:	2380      	movs	r3, #128	; 0x80
 8004e48:	e7c5      	b.n	8004dd6 <UART_SetConfig+0x10e>
 8004e4a:	4b3a      	ldr	r3, [pc, #232]	; (8004f34 <UART_SetConfig+0x26c>)
 8004e4c:	6d5b      	ldr	r3, [r3, #84]	; 0x54
 8004e4e:	f003 0307 	and.w	r3, r3, #7
 8004e52:	2b05      	cmp	r3, #5
 8004e54:	d811      	bhi.n	8004e7a <UART_SetConfig+0x1b2>
 8004e56:	e8df f013 	tbh	[pc, r3, lsl #1]
 8004e5a:	0006      	.short	0x0006
 8004e5c:	000800e0 	.word	0x000800e0
 8004e60:	000c000a 	.word	0x000c000a
 8004e64:	000e      	.short	0x000e
 8004e66:	2300      	movs	r3, #0
 8004e68:	e7b5      	b.n	8004dd6 <UART_SetConfig+0x10e>
 8004e6a:	2308      	movs	r3, #8
 8004e6c:	e7b3      	b.n	8004dd6 <UART_SetConfig+0x10e>
 8004e6e:	2310      	movs	r3, #16
 8004e70:	e7b1      	b.n	8004dd6 <UART_SetConfig+0x10e>
 8004e72:	2320      	movs	r3, #32
 8004e74:	e7af      	b.n	8004dd6 <UART_SetConfig+0x10e>
 8004e76:	2340      	movs	r3, #64	; 0x40
 8004e78:	e7ad      	b.n	8004dd6 <UART_SetConfig+0x10e>
 8004e7a:	2380      	movs	r3, #128	; 0x80
 8004e7c:	e7ab      	b.n	8004dd6 <UART_SetConfig+0x10e>
 8004e7e:	4b2d      	ldr	r3, [pc, #180]	; (8004f34 <UART_SetConfig+0x26c>)
 8004e80:	6d5b      	ldr	r3, [r3, #84]	; 0x54
 8004e82:	f003 0307 	and.w	r3, r3, #7
 8004e86:	2b05      	cmp	r3, #5
 8004e88:	d80e      	bhi.n	8004ea8 <UART_SetConfig+0x1e0>
 8004e8a:	e8df f003 	tbb	[pc, r3]
 8004e8e:	c803      	.short	0xc803
 8004e90:	0b090705 	.word	0x0b090705
 8004e94:	2300      	movs	r3, #0
 8004e96:	e79e      	b.n	8004dd6 <UART_SetConfig+0x10e>
 8004e98:	2308      	movs	r3, #8
 8004e9a:	e79c      	b.n	8004dd6 <UART_SetConfig+0x10e>
 8004e9c:	2310      	movs	r3, #16
 8004e9e:	e79a      	b.n	8004dd6 <UART_SetConfig+0x10e>
 8004ea0:	2320      	movs	r3, #32
 8004ea2:	e798      	b.n	8004dd6 <UART_SetConfig+0x10e>
 8004ea4:	2340      	movs	r3, #64	; 0x40
 8004ea6:	e796      	b.n	8004dd6 <UART_SetConfig+0x10e>
 8004ea8:	2380      	movs	r3, #128	; 0x80
 8004eaa:	e794      	b.n	8004dd6 <UART_SetConfig+0x10e>
 8004eac:	4b21      	ldr	r3, [pc, #132]	; (8004f34 <UART_SetConfig+0x26c>)
 8004eae:	6d5b      	ldr	r3, [r3, #84]	; 0x54
 8004eb0:	f003 0307 	and.w	r3, r3, #7
 8004eb4:	2b05      	cmp	r3, #5
 8004eb6:	d80e      	bhi.n	8004ed6 <UART_SetConfig+0x20e>
 8004eb8:	e8df f003 	tbb	[pc, r3]
 8004ebc:	0705b303 	.word	0x0705b303
 8004ec0:	0b09      	.short	0x0b09
 8004ec2:	2300      	movs	r3, #0
 8004ec4:	e787      	b.n	8004dd6 <UART_SetConfig+0x10e>
 8004ec6:	2308      	movs	r3, #8
 8004ec8:	e785      	b.n	8004dd6 <UART_SetConfig+0x10e>
 8004eca:	2310      	movs	r3, #16
 8004ecc:	e783      	b.n	8004dd6 <UART_SetConfig+0x10e>
 8004ece:	2320      	movs	r3, #32
 8004ed0:	e781      	b.n	8004dd6 <UART_SetConfig+0x10e>
 8004ed2:	2340      	movs	r3, #64	; 0x40
 8004ed4:	e77f      	b.n	8004dd6 <UART_SetConfig+0x10e>
 8004ed6:	2380      	movs	r3, #128	; 0x80
 8004ed8:	e77d      	b.n	8004dd6 <UART_SetConfig+0x10e>
 8004eda:	4b16      	ldr	r3, [pc, #88]	; (8004f34 <UART_SetConfig+0x26c>)
 8004edc:	6d5b      	ldr	r3, [r3, #84]	; 0x54
 8004ede:	f003 0307 	and.w	r3, r3, #7
 8004ee2:	2b05      	cmp	r3, #5
 8004ee4:	d80e      	bhi.n	8004f04 <UART_SetConfig+0x23c>
 8004ee6:	e8df f003 	tbb	[pc, r3]
 8004eea:	9e03      	.short	0x9e03
 8004eec:	0b090705 	.word	0x0b090705
 8004ef0:	2300      	movs	r3, #0
 8004ef2:	e770      	b.n	8004dd6 <UART_SetConfig+0x10e>
 8004ef4:	2308      	movs	r3, #8
 8004ef6:	e76e      	b.n	8004dd6 <UART_SetConfig+0x10e>
 8004ef8:	2310      	movs	r3, #16
 8004efa:	e76c      	b.n	8004dd6 <UART_SetConfig+0x10e>
 8004efc:	2320      	movs	r3, #32
 8004efe:	e76a      	b.n	8004dd6 <UART_SetConfig+0x10e>
 8004f00:	2340      	movs	r3, #64	; 0x40
 8004f02:	e768      	b.n	8004dd6 <UART_SetConfig+0x10e>
 8004f04:	2380      	movs	r3, #128	; 0x80
 8004f06:	e766      	b.n	8004dd6 <UART_SetConfig+0x10e>
 8004f08:	cfff69f3 	.word	0xcfff69f3
 8004f0c:	58000c00 	.word	0x58000c00
 8004f10:	11fff4ff 	.word	0x11fff4ff
 8004f14:	40011000 	.word	0x40011000
 8004f18:	40004400 	.word	0x40004400
 8004f1c:	40004800 	.word	0x40004800
 8004f20:	40004c00 	.word	0x40004c00
 8004f24:	40005000 	.word	0x40005000
 8004f28:	40011400 	.word	0x40011400
 8004f2c:	40007800 	.word	0x40007800
 8004f30:	40007c00 	.word	0x40007c00
 8004f34:	58024400 	.word	0x58024400
 8004f38:	4b7e      	ldr	r3, [pc, #504]	; (8005134 <UART_SetConfig+0x46c>)
 8004f3a:	6d5b      	ldr	r3, [r3, #84]	; 0x54
 8004f3c:	f003 0338 	and.w	r3, r3, #56	; 0x38
 8004f40:	2b28      	cmp	r3, #40	; 0x28
 8004f42:	d820      	bhi.n	8004f86 <UART_SetConfig+0x2be>
 8004f44:	e8df f003 	tbb	[pc, r3]
 8004f48:	1f1f1f15 	.word	0x1f1f1f15
 8004f4c:	1f1f1f1f 	.word	0x1f1f1f1f
 8004f50:	1f1f1f71 	.word	0x1f1f1f71
 8004f54:	1f1f1f1f 	.word	0x1f1f1f1f
 8004f58:	1f1f1f17 	.word	0x1f1f1f17
 8004f5c:	1f1f1f1f 	.word	0x1f1f1f1f
 8004f60:	1f1f1f19 	.word	0x1f1f1f19
 8004f64:	1f1f1f1f 	.word	0x1f1f1f1f
 8004f68:	1f1f1f1b 	.word	0x1f1f1f1b
 8004f6c:	1f1f1f1f 	.word	0x1f1f1f1f
 8004f70:	1d          	.byte	0x1d
 8004f71:	00          	.byte	0x00
 8004f72:	2301      	movs	r3, #1
 8004f74:	e72f      	b.n	8004dd6 <UART_SetConfig+0x10e>
 8004f76:	2308      	movs	r3, #8
 8004f78:	e72d      	b.n	8004dd6 <UART_SetConfig+0x10e>
 8004f7a:	2310      	movs	r3, #16
 8004f7c:	e72b      	b.n	8004dd6 <UART_SetConfig+0x10e>
 8004f7e:	2320      	movs	r3, #32
 8004f80:	e729      	b.n	8004dd6 <UART_SetConfig+0x10e>
 8004f82:	2340      	movs	r3, #64	; 0x40
 8004f84:	e727      	b.n	8004dd6 <UART_SetConfig+0x10e>
 8004f86:	2380      	movs	r3, #128	; 0x80
 8004f88:	e725      	b.n	8004dd6 <UART_SetConfig+0x10e>
 8004f8a:	4b6a      	ldr	r3, [pc, #424]	; (8005134 <UART_SetConfig+0x46c>)
 8004f8c:	6d5b      	ldr	r3, [r3, #84]	; 0x54
 8004f8e:	f003 0307 	and.w	r3, r3, #7
 8004f92:	2b05      	cmp	r3, #5
 8004f94:	d80e      	bhi.n	8004fb4 <UART_SetConfig+0x2ec>
 8004f96:	e8df f003 	tbb	[pc, r3]
 8004f9a:	4a03      	.short	0x4a03
 8004f9c:	0b090705 	.word	0x0b090705
 8004fa0:	2300      	movs	r3, #0
 8004fa2:	e718      	b.n	8004dd6 <UART_SetConfig+0x10e>
 8004fa4:	2308      	movs	r3, #8
 8004fa6:	e716      	b.n	8004dd6 <UART_SetConfig+0x10e>
 8004fa8:	2310      	movs	r3, #16
 8004faa:	e714      	b.n	8004dd6 <UART_SetConfig+0x10e>
 8004fac:	2320      	movs	r3, #32
 8004fae:	e712      	b.n	8004dd6 <UART_SetConfig+0x10e>
 8004fb0:	2340      	movs	r3, #64	; 0x40
 8004fb2:	e710      	b.n	8004dd6 <UART_SetConfig+0x10e>
 8004fb4:	2380      	movs	r3, #128	; 0x80
 8004fb6:	e70e      	b.n	8004dd6 <UART_SetConfig+0x10e>
 8004fb8:	4b5e      	ldr	r3, [pc, #376]	; (8005134 <UART_SetConfig+0x46c>)
 8004fba:	6d5b      	ldr	r3, [r3, #84]	; 0x54
 8004fbc:	f003 0307 	and.w	r3, r3, #7
 8004fc0:	2b05      	cmp	r3, #5
 8004fc2:	d80e      	bhi.n	8004fe2 <UART_SetConfig+0x31a>
 8004fc4:	e8df f003 	tbb	[pc, r3]
 8004fc8:	07053503 	.word	0x07053503
 8004fcc:	0b09      	.short	0x0b09
 8004fce:	2300      	movs	r3, #0
 8004fd0:	e701      	b.n	8004dd6 <UART_SetConfig+0x10e>
 8004fd2:	2308      	movs	r3, #8
 8004fd4:	e6ff      	b.n	8004dd6 <UART_SetConfig+0x10e>
 8004fd6:	2310      	movs	r3, #16
 8004fd8:	e6fd      	b.n	8004dd6 <UART_SetConfig+0x10e>
 8004fda:	2320      	movs	r3, #32
 8004fdc:	e6fb      	b.n	8004dd6 <UART_SetConfig+0x10e>
 8004fde:	2340      	movs	r3, #64	; 0x40
 8004fe0:	e6f9      	b.n	8004dd6 <UART_SetConfig+0x10e>
 8004fe2:	2380      	movs	r3, #128	; 0x80
 8004fe4:	e6f7      	b.n	8004dd6 <UART_SetConfig+0x10e>
 8004fe6:	f503 330e 	add.w	r3, r3, #145408	; 0x23800
 8004fea:	6d9b      	ldr	r3, [r3, #88]	; 0x58
 8004fec:	f003 0307 	and.w	r3, r3, #7
 8004ff0:	2b05      	cmp	r3, #5
 8004ff2:	d80e      	bhi.n	8005012 <UART_SetConfig+0x34a>
 8004ff4:	e8df f003 	tbb	[pc, r3]
 8004ff8:	07051f03 	.word	0x07051f03
 8004ffc:	0b09      	.short	0x0b09
 8004ffe:	2302      	movs	r3, #2
 8005000:	e6e9      	b.n	8004dd6 <UART_SetConfig+0x10e>
 8005002:	2308      	movs	r3, #8
 8005004:	e6e7      	b.n	8004dd6 <UART_SetConfig+0x10e>
 8005006:	2310      	movs	r3, #16
 8005008:	e6e5      	b.n	8004dd6 <UART_SetConfig+0x10e>
 800500a:	2320      	movs	r3, #32
 800500c:	e6e3      	b.n	8004dd6 <UART_SetConfig+0x10e>
 800500e:	2340      	movs	r3, #64	; 0x40
 8005010:	e6e1      	b.n	8004dd6 <UART_SetConfig+0x10e>
 8005012:	2380      	movs	r3, #128	; 0x80
 8005014:	e6df      	b.n	8004dd6 <UART_SetConfig+0x10e>
 8005016:	2304      	movs	r3, #4
 8005018:	e6dd      	b.n	8004dd6 <UART_SetConfig+0x10e>
 800501a:	2304      	movs	r3, #4
 800501c:	e6db      	b.n	8004dd6 <UART_SetConfig+0x10e>
 800501e:	2304      	movs	r3, #4
 8005020:	e6d9      	b.n	8004dd6 <UART_SetConfig+0x10e>
 8005022:	2304      	movs	r3, #4
 8005024:	e6d7      	b.n	8004dd6 <UART_SetConfig+0x10e>
 8005026:	2304      	movs	r3, #4
 8005028:	e6d5      	b.n	8004dd6 <UART_SetConfig+0x10e>
 800502a:	2304      	movs	r3, #4
 800502c:	e6d3      	b.n	8004dd6 <UART_SetConfig+0x10e>
 800502e:	2304      	movs	r3, #4
 8005030:	e6d1      	b.n	8004dd6 <UART_SetConfig+0x10e>
 8005032:	2304      	movs	r3, #4
 8005034:	e6cf      	b.n	8004dd6 <UART_SetConfig+0x10e>
 8005036:	2304      	movs	r3, #4
 8005038:	e6cd      	b.n	8004dd6 <UART_SetConfig+0x10e>
    switch (clocksource)
 800503a:	2b20      	cmp	r3, #32
 800503c:	d827      	bhi.n	800508e <UART_SetConfig+0x3c6>
 800503e:	2b02      	cmp	r3, #2
 8005040:	f0c0 8127 	bcc.w	8005292 <UART_SetConfig+0x5ca>
 8005044:	3b02      	subs	r3, #2
 8005046:	2b1e      	cmp	r3, #30
 8005048:	f200 8125 	bhi.w	8005296 <UART_SetConfig+0x5ce>
 800504c:	e8df f013 	tbh	[pc, r3, lsl #1]
 8005050:	01230052 	.word	0x01230052
 8005054:	01230058 	.word	0x01230058
 8005058:	01230123 	.word	0x01230123
 800505c:	0123005d 	.word	0x0123005d
 8005060:	01230123 	.word	0x01230123
 8005064:	01230123 	.word	0x01230123
 8005068:	01230123 	.word	0x01230123
 800506c:	01230062 	.word	0x01230062
 8005070:	01230123 	.word	0x01230123
 8005074:	01230123 	.word	0x01230123
 8005078:	01230123 	.word	0x01230123
 800507c:	01230123 	.word	0x01230123
 8005080:	01230123 	.word	0x01230123
 8005084:	01230123 	.word	0x01230123
 8005088:	01230123 	.word	0x01230123
 800508c:	006e      	.short	0x006e
 800508e:	2b40      	cmp	r3, #64	; 0x40
 8005090:	d12e      	bne.n	80050f0 <UART_SetConfig+0x428>
        pclk = (uint32_t) LSE_VALUE;
 8005092:	f44f 4000 	mov.w	r0, #32768	; 0x8000
      lpuart_ker_ck_pres = (pclk / UARTPrescTable[huart->Init.ClockPrescaler]);
 8005096:	6a62      	ldr	r2, [r4, #36]	; 0x24
 8005098:	4b27      	ldr	r3, [pc, #156]	; (8005138 <UART_SetConfig+0x470>)
 800509a:	f833 2012 	ldrh.w	r2, [r3, r2, lsl #1]
 800509e:	fbb0 f3f2 	udiv	r3, r0, r2
      if ((lpuart_ker_ck_pres < (3U * huart->Init.BaudRate)) ||
 80050a2:	6865      	ldr	r5, [r4, #4]
 80050a4:	eb05 0145 	add.w	r1, r5, r5, lsl #1
 80050a8:	4299      	cmp	r1, r3
 80050aa:	f200 80f6 	bhi.w	800529a <UART_SetConfig+0x5d2>
 80050ae:	ebb3 3f05 	cmp.w	r3, r5, lsl #12
 80050b2:	f200 80f4 	bhi.w	800529e <UART_SetConfig+0x5d6>
        usartdiv = (uint32_t)(UART_DIV_LPUART(pclk, (uint64_t)huart->Init.BaudRate, huart->Init.ClockPrescaler));
 80050b6:	f04f 0800 	mov.w	r8, #0
 80050ba:	b292      	uxth	r2, r2
 80050bc:	2300      	movs	r3, #0
 80050be:	4641      	mov	r1, r8
 80050c0:	f7fb f95e 	bl	8000380 <__aeabi_uldivmod>
 80050c4:	020f      	lsls	r7, r1, #8
 80050c6:	ea47 6710 	orr.w	r7, r7, r0, lsr #24
 80050ca:	0206      	lsls	r6, r0, #8
 80050cc:	0868      	lsrs	r0, r5, #1
 80050ce:	462a      	mov	r2, r5
 80050d0:	4643      	mov	r3, r8
 80050d2:	1830      	adds	r0, r6, r0
 80050d4:	f147 0100 	adc.w	r1, r7, #0
 80050d8:	f7fb f952 	bl	8000380 <__aeabi_uldivmod>
        if ((usartdiv >= LPUART_BRR_MIN) && (usartdiv <= LPUART_BRR_MAX))
 80050dc:	f5a0 7240 	sub.w	r2, r0, #768	; 0x300
 80050e0:	4b16      	ldr	r3, [pc, #88]	; (800513c <UART_SetConfig+0x474>)
 80050e2:	429a      	cmp	r2, r3
 80050e4:	f200 80dd 	bhi.w	80052a2 <UART_SetConfig+0x5da>
          huart->Instance->BRR = usartdiv;
 80050e8:	6823      	ldr	r3, [r4, #0]
 80050ea:	60d8      	str	r0, [r3, #12]
 80050ec:	4640      	mov	r0, r8
 80050ee:	e0a2      	b.n	8005236 <UART_SetConfig+0x56e>
    switch (clocksource)
 80050f0:	2001      	movs	r0, #1
 80050f2:	e0a0      	b.n	8005236 <UART_SetConfig+0x56e>
        pclk = HAL_RCCEx_GetD3PCLK1Freq();
 80050f4:	f7fe fcf6 	bl	8003ae4 <HAL_RCCEx_GetD3PCLK1Freq>
    if (pclk != 0U)
 80050f8:	2800      	cmp	r0, #0
 80050fa:	d1cc      	bne.n	8005096 <UART_SetConfig+0x3ce>
 80050fc:	2000      	movs	r0, #0
 80050fe:	e09a      	b.n	8005236 <UART_SetConfig+0x56e>
        HAL_RCCEx_GetPLL2ClockFreq(&pll2_clocks);
 8005100:	a803      	add	r0, sp, #12
 8005102:	f7fe fd01 	bl	8003b08 <HAL_RCCEx_GetPLL2ClockFreq>
        pclk = pll2_clocks.PLL2_Q_Frequency;
 8005106:	9804      	ldr	r0, [sp, #16]
        break;
 8005108:	e7f6      	b.n	80050f8 <UART_SetConfig+0x430>
        HAL_RCCEx_GetPLL3ClockFreq(&pll3_clocks);
 800510a:	4668      	mov	r0, sp
 800510c:	f7fe fdfa 	bl	8003d04 <HAL_RCCEx_GetPLL3ClockFreq>
        pclk = pll3_clocks.PLL3_Q_Frequency;
 8005110:	9801      	ldr	r0, [sp, #4]
        break;
 8005112:	e7f1      	b.n	80050f8 <UART_SetConfig+0x430>
        if (__HAL_RCC_GET_FLAG(RCC_FLAG_HSIDIV) != 0U)
 8005114:	4b07      	ldr	r3, [pc, #28]	; (8005134 <UART_SetConfig+0x46c>)
 8005116:	681b      	ldr	r3, [r3, #0]
 8005118:	f013 0f20 	tst.w	r3, #32
 800511c:	d008      	beq.n	8005130 <UART_SetConfig+0x468>
          pclk = (uint32_t)(HSI_VALUE >> (__HAL_RCC_GET_HSI_DIVIDER() >> 3U));
 800511e:	4b05      	ldr	r3, [pc, #20]	; (8005134 <UART_SetConfig+0x46c>)
 8005120:	681b      	ldr	r3, [r3, #0]
 8005122:	f3c3 03c1 	ubfx	r3, r3, #3, #2
 8005126:	4806      	ldr	r0, [pc, #24]	; (8005140 <UART_SetConfig+0x478>)
 8005128:	40d8      	lsrs	r0, r3
 800512a:	e7e5      	b.n	80050f8 <UART_SetConfig+0x430>
    switch (clocksource)
 800512c:	4805      	ldr	r0, [pc, #20]	; (8005144 <UART_SetConfig+0x47c>)
 800512e:	e7b2      	b.n	8005096 <UART_SetConfig+0x3ce>
          pclk = (uint32_t) HSI_VALUE;
 8005130:	4803      	ldr	r0, [pc, #12]	; (8005140 <UART_SetConfig+0x478>)
 8005132:	e7b0      	b.n	8005096 <UART_SetConfig+0x3ce>
 8005134:	58024400 	.word	0x58024400
 8005138:	080092b4 	.word	0x080092b4
 800513c:	000ffcff 	.word	0x000ffcff
 8005140:	03d09000 	.word	0x03d09000
 8005144:	003d0900 	.word	0x003d0900
    switch (clocksource)
 8005148:	2b20      	cmp	r3, #32
 800514a:	d815      	bhi.n	8005178 <UART_SetConfig+0x4b0>
 800514c:	2b20      	cmp	r3, #32
 800514e:	f200 80aa 	bhi.w	80052a6 <UART_SetConfig+0x5de>
 8005152:	e8df f003 	tbb	[pc, r3]
 8005156:	3832      	.short	0x3832
 8005158:	a83ba8a8 	.word	0xa83ba8a8
 800515c:	a840a8a8 	.word	0xa840a8a8
 8005160:	a8a8a8a8 	.word	0xa8a8a8a8
 8005164:	a845a8a8 	.word	0xa845a8a8
 8005168:	a8a8a8a8 	.word	0xa8a8a8a8
 800516c:	a8a8a8a8 	.word	0xa8a8a8a8
 8005170:	a8a8a8a8 	.word	0xa8a8a8a8
 8005174:	a8a8      	.short	0xa8a8
 8005176:	51          	.byte	0x51
 8005177:	00          	.byte	0x00
 8005178:	2b40      	cmp	r3, #64	; 0x40
 800517a:	d11c      	bne.n	80051b6 <UART_SetConfig+0x4ee>
      usartdiv = (uint16_t)(UART_DIV_SAMPLING8(pclk, huart->Init.BaudRate, huart->Init.ClockPrescaler));
 800517c:	6a62      	ldr	r2, [r4, #36]	; 0x24
 800517e:	4b4e      	ldr	r3, [pc, #312]	; (80052b8 <UART_SetConfig+0x5f0>)
 8005180:	f833 3012 	ldrh.w	r3, [r3, r2, lsl #1]
 8005184:	fbb0 f0f3 	udiv	r0, r0, r3
 8005188:	6862      	ldr	r2, [r4, #4]
 800518a:	0853      	lsrs	r3, r2, #1
 800518c:	eb03 0040 	add.w	r0, r3, r0, lsl #1
 8005190:	fbb0 f0f2 	udiv	r0, r0, r2
 8005194:	b280      	uxth	r0, r0
      if ((usartdiv >= UART_BRR_MIN) && (usartdiv <= UART_BRR_MAX))
 8005196:	f1a0 0210 	sub.w	r2, r0, #16
 800519a:	f64f 73ef 	movw	r3, #65519	; 0xffef
 800519e:	429a      	cmp	r2, r3
 80051a0:	f200 8083 	bhi.w	80052aa <UART_SetConfig+0x5e2>
        brrtemp = (uint16_t)(usartdiv & 0xFFF0U);
 80051a4:	f020 030f 	bic.w	r3, r0, #15
        brrtemp |= (uint16_t)((usartdiv & (uint16_t)0x000FU) >> 1U);
 80051a8:	f3c0 0042 	ubfx	r0, r0, #1, #3
 80051ac:	4318      	orrs	r0, r3
        huart->Instance->BRR = brrtemp;
 80051ae:	6823      	ldr	r3, [r4, #0]
 80051b0:	60d8      	str	r0, [r3, #12]
 80051b2:	2000      	movs	r0, #0
 80051b4:	e03f      	b.n	8005236 <UART_SetConfig+0x56e>
    switch (clocksource)
 80051b6:	2001      	movs	r0, #1
 80051b8:	e03d      	b.n	8005236 <UART_SetConfig+0x56e>
        pclk = HAL_RCC_GetPCLK1Freq();
 80051ba:	f7fd fe63 	bl	8002e84 <HAL_RCC_GetPCLK1Freq>
    if (pclk != 0U)
 80051be:	2800      	cmp	r0, #0
 80051c0:	d1dc      	bne.n	800517c <UART_SetConfig+0x4b4>
 80051c2:	2000      	movs	r0, #0
 80051c4:	e037      	b.n	8005236 <UART_SetConfig+0x56e>
        pclk = HAL_RCC_GetPCLK2Freq();
 80051c6:	f7fd fe6f 	bl	8002ea8 <HAL_RCC_GetPCLK2Freq>
        break;
 80051ca:	e7f8      	b.n	80051be <UART_SetConfig+0x4f6>
        HAL_RCCEx_GetPLL2ClockFreq(&pll2_clocks);
 80051cc:	a803      	add	r0, sp, #12
 80051ce:	f7fe fc9b 	bl	8003b08 <HAL_RCCEx_GetPLL2ClockFreq>
        pclk = pll2_clocks.PLL2_Q_Frequency;
 80051d2:	9804      	ldr	r0, [sp, #16]
        break;
 80051d4:	e7f3      	b.n	80051be <UART_SetConfig+0x4f6>
        HAL_RCCEx_GetPLL3ClockFreq(&pll3_clocks);
 80051d6:	4668      	mov	r0, sp
 80051d8:	f7fe fd94 	bl	8003d04 <HAL_RCCEx_GetPLL3ClockFreq>
        pclk = pll3_clocks.PLL3_Q_Frequency;
 80051dc:	9801      	ldr	r0, [sp, #4]
        break;
 80051de:	e7ee      	b.n	80051be <UART_SetConfig+0x4f6>
        if (__HAL_RCC_GET_FLAG(RCC_FLAG_HSIDIV) != 0U)
 80051e0:	4b36      	ldr	r3, [pc, #216]	; (80052bc <UART_SetConfig+0x5f4>)
 80051e2:	681b      	ldr	r3, [r3, #0]
 80051e4:	f013 0f20 	tst.w	r3, #32
 80051e8:	d008      	beq.n	80051fc <UART_SetConfig+0x534>
          pclk = (uint32_t)(HSI_VALUE >> (__HAL_RCC_GET_HSI_DIVIDER() >> 3U));
 80051ea:	4b34      	ldr	r3, [pc, #208]	; (80052bc <UART_SetConfig+0x5f4>)
 80051ec:	681b      	ldr	r3, [r3, #0]
 80051ee:	f3c3 03c1 	ubfx	r3, r3, #3, #2
 80051f2:	4833      	ldr	r0, [pc, #204]	; (80052c0 <UART_SetConfig+0x5f8>)
 80051f4:	40d8      	lsrs	r0, r3
 80051f6:	e7e2      	b.n	80051be <UART_SetConfig+0x4f6>
    switch (clocksource)
 80051f8:	4832      	ldr	r0, [pc, #200]	; (80052c4 <UART_SetConfig+0x5fc>)
 80051fa:	e7bf      	b.n	800517c <UART_SetConfig+0x4b4>
          pclk = (uint32_t) HSI_VALUE;
 80051fc:	4830      	ldr	r0, [pc, #192]	; (80052c0 <UART_SetConfig+0x5f8>)
 80051fe:	e7bd      	b.n	800517c <UART_SetConfig+0x4b4>
    switch (clocksource)
 8005200:	2b40      	cmp	r3, #64	; 0x40
 8005202:	d117      	bne.n	8005234 <UART_SetConfig+0x56c>
        break;
      case UART_CLOCKSOURCE_CSI:
        pclk = (uint32_t) CSI_VALUE;
        break;
      case UART_CLOCKSOURCE_LSE:
        pclk = (uint32_t) LSE_VALUE;
 8005204:	f44f 4000 	mov.w	r0, #32768	; 0x8000
    }

    if (pclk != 0U)
    {
      /* USARTDIV must be greater than or equal to 0d16 */
      usartdiv = (uint16_t)(UART_DIV_SAMPLING16(pclk, huart->Init.BaudRate, huart->Init.ClockPrescaler));
 8005208:	6a62      	ldr	r2, [r4, #36]	; 0x24
 800520a:	4b2b      	ldr	r3, [pc, #172]	; (80052b8 <UART_SetConfig+0x5f0>)
 800520c:	f833 3012 	ldrh.w	r3, [r3, r2, lsl #1]
 8005210:	fbb0 f0f3 	udiv	r0, r0, r3
 8005214:	6863      	ldr	r3, [r4, #4]
 8005216:	eb00 0053 	add.w	r0, r0, r3, lsr #1
 800521a:	fbb0 f0f3 	udiv	r0, r0, r3
 800521e:	b280      	uxth	r0, r0
      if ((usartdiv >= UART_BRR_MIN) && (usartdiv <= UART_BRR_MAX))
 8005220:	f1a0 0210 	sub.w	r2, r0, #16
 8005224:	f64f 73ef 	movw	r3, #65519	; 0xffef
 8005228:	429a      	cmp	r2, r3
 800522a:	d842      	bhi.n	80052b2 <UART_SetConfig+0x5ea>
      {
        huart->Instance->BRR = usartdiv;
 800522c:	6823      	ldr	r3, [r4, #0]
 800522e:	60d8      	str	r0, [r3, #12]
 8005230:	2000      	movs	r0, #0
 8005232:	e000      	b.n	8005236 <UART_SetConfig+0x56e>
    switch (clocksource)
 8005234:	2001      	movs	r0, #1
      }
    }
  }

  /* Initialize the number of data to process during RX/TX ISR execution */
  huart->NbTxDataToProcess = 1;
 8005236:	2301      	movs	r3, #1
 8005238:	f8a4 306a 	strh.w	r3, [r4, #106]	; 0x6a
  huart->NbRxDataToProcess = 1;
 800523c:	f8a4 3068 	strh.w	r3, [r4, #104]	; 0x68

  /* Clear ISR function pointers */
  huart->RxISR = NULL;
 8005240:	2300      	movs	r3, #0
 8005242:	66e3      	str	r3, [r4, #108]	; 0x6c
  huart->TxISR = NULL;
 8005244:	6723      	str	r3, [r4, #112]	; 0x70

  return ret;
}
 8005246:	b006      	add	sp, #24
 8005248:	e8bd 81f0 	ldmia.w	sp!, {r4, r5, r6, r7, r8, pc}
        pclk = HAL_RCC_GetPCLK1Freq();
 800524c:	f7fd fe1a 	bl	8002e84 <HAL_RCC_GetPCLK1Freq>
    if (pclk != 0U)
 8005250:	2800      	cmp	r0, #0
 8005252:	d1d9      	bne.n	8005208 <UART_SetConfig+0x540>
 8005254:	2000      	movs	r0, #0
 8005256:	e7ee      	b.n	8005236 <UART_SetConfig+0x56e>
        pclk = HAL_RCC_GetPCLK2Freq();
 8005258:	f7fd fe26 	bl	8002ea8 <HAL_RCC_GetPCLK2Freq>
        break;
 800525c:	e7f8      	b.n	8005250 <UART_SetConfig+0x588>
        HAL_RCCEx_GetPLL2ClockFreq(&pll2_clocks);
 800525e:	a803      	add	r0, sp, #12
 8005260:	f7fe fc52 	bl	8003b08 <HAL_RCCEx_GetPLL2ClockFreq>
        pclk = pll2_clocks.PLL2_Q_Frequency;
 8005264:	9804      	ldr	r0, [sp, #16]
        break;
 8005266:	e7f3      	b.n	8005250 <UART_SetConfig+0x588>
        HAL_RCCEx_GetPLL3ClockFreq(&pll3_clocks);
 8005268:	4668      	mov	r0, sp
 800526a:	f7fe fd4b 	bl	8003d04 <HAL_RCCEx_GetPLL3ClockFreq>
        pclk = pll3_clocks.PLL3_Q_Frequency;
 800526e:	9801      	ldr	r0, [sp, #4]
        break;
 8005270:	e7ee      	b.n	8005250 <UART_SetConfig+0x588>
        if (__HAL_RCC_GET_FLAG(RCC_FLAG_HSIDIV) != 0U)
 8005272:	4b12      	ldr	r3, [pc, #72]	; (80052bc <UART_SetConfig+0x5f4>)
 8005274:	681b      	ldr	r3, [r3, #0]
 8005276:	f013 0f20 	tst.w	r3, #32
 800527a:	d008      	beq.n	800528e <UART_SetConfig+0x5c6>
          pclk = (uint32_t)(HSI_VALUE >> (__HAL_RCC_GET_HSI_DIVIDER() >> 3U));
 800527c:	4b0f      	ldr	r3, [pc, #60]	; (80052bc <UART_SetConfig+0x5f4>)
 800527e:	681b      	ldr	r3, [r3, #0]
 8005280:	f3c3 03c1 	ubfx	r3, r3, #3, #2
 8005284:	480e      	ldr	r0, [pc, #56]	; (80052c0 <UART_SetConfig+0x5f8>)
 8005286:	40d8      	lsrs	r0, r3
 8005288:	e7e2      	b.n	8005250 <UART_SetConfig+0x588>
    switch (clocksource)
 800528a:	480e      	ldr	r0, [pc, #56]	; (80052c4 <UART_SetConfig+0x5fc>)
 800528c:	e7bc      	b.n	8005208 <UART_SetConfig+0x540>
          pclk = (uint32_t) HSI_VALUE;
 800528e:	480c      	ldr	r0, [pc, #48]	; (80052c0 <UART_SetConfig+0x5f8>)
 8005290:	e7ba      	b.n	8005208 <UART_SetConfig+0x540>
    switch (clocksource)
 8005292:	2001      	movs	r0, #1
 8005294:	e7cf      	b.n	8005236 <UART_SetConfig+0x56e>
 8005296:	2001      	movs	r0, #1
 8005298:	e7cd      	b.n	8005236 <UART_SetConfig+0x56e>
        ret = HAL_ERROR;
 800529a:	2001      	movs	r0, #1
 800529c:	e7cb      	b.n	8005236 <UART_SetConfig+0x56e>
 800529e:	2001      	movs	r0, #1
 80052a0:	e7c9      	b.n	8005236 <UART_SetConfig+0x56e>
          ret = HAL_ERROR;
 80052a2:	2001      	movs	r0, #1
 80052a4:	e7c7      	b.n	8005236 <UART_SetConfig+0x56e>
    switch (clocksource)
 80052a6:	2001      	movs	r0, #1
 80052a8:	e7c5      	b.n	8005236 <UART_SetConfig+0x56e>
        ret = HAL_ERROR;
 80052aa:	2001      	movs	r0, #1
 80052ac:	e7c3      	b.n	8005236 <UART_SetConfig+0x56e>
    switch (clocksource)
 80052ae:	2001      	movs	r0, #1
 80052b0:	e7c1      	b.n	8005236 <UART_SetConfig+0x56e>
        ret = HAL_ERROR;
 80052b2:	2001      	movs	r0, #1
 80052b4:	e7bf      	b.n	8005236 <UART_SetConfig+0x56e>
 80052b6:	bf00      	nop
 80052b8:	080092b4 	.word	0x080092b4
 80052bc:	58024400 	.word	0x58024400
 80052c0:	03d09000 	.word	0x03d09000
 80052c4:	003d0900 	.word	0x003d0900

080052c8 <UART_AdvFeatureConfig>:
{
  /* Check whether the set of advanced features to configure is properly set */
  assert_param(IS_UART_ADVFEATURE_INIT(huart->AdvancedInit.AdvFeatureInit));

  /* if required, configure TX pin active level inversion */
  if (HAL_IS_BIT_SET(huart->AdvancedInit.AdvFeatureInit, UART_ADVFEATURE_TXINVERT_INIT))
 80052c8:	6a83      	ldr	r3, [r0, #40]	; 0x28
 80052ca:	f013 0f01 	tst.w	r3, #1
 80052ce:	d006      	beq.n	80052de <UART_AdvFeatureConfig+0x16>
  {
    assert_param(IS_UART_ADVFEATURE_TXINV(huart->AdvancedInit.TxPinLevelInvert));
    MODIFY_REG(huart->Instance->CR2, USART_CR2_TXINV, huart->AdvancedInit.TxPinLevelInvert);
 80052d0:	6802      	ldr	r2, [r0, #0]
 80052d2:	6853      	ldr	r3, [r2, #4]
 80052d4:	f423 3300 	bic.w	r3, r3, #131072	; 0x20000
 80052d8:	6ac1      	ldr	r1, [r0, #44]	; 0x2c
 80052da:	430b      	orrs	r3, r1
 80052dc:	6053      	str	r3, [r2, #4]
  }

  /* if required, configure RX pin active level inversion */
  if (HAL_IS_BIT_SET(huart->AdvancedInit.AdvFeatureInit, UART_ADVFEATURE_RXINVERT_INIT))
 80052de:	6a83      	ldr	r3, [r0, #40]	; 0x28
 80052e0:	f013 0f02 	tst.w	r3, #2
 80052e4:	d006      	beq.n	80052f4 <UART_AdvFeatureConfig+0x2c>
  {
    assert_param(IS_UART_ADVFEATURE_RXINV(huart->AdvancedInit.RxPinLevelInvert));
    MODIFY_REG(huart->Instance->CR2, USART_CR2_RXINV, huart->AdvancedInit.RxPinLevelInvert);
 80052e6:	6802      	ldr	r2, [r0, #0]
 80052e8:	6853      	ldr	r3, [r2, #4]
 80052ea:	f423 3380 	bic.w	r3, r3, #65536	; 0x10000
 80052ee:	6b01      	ldr	r1, [r0, #48]	; 0x30
 80052f0:	430b      	orrs	r3, r1
 80052f2:	6053      	str	r3, [r2, #4]
  }

  /* if required, configure data inversion */
  if (HAL_IS_BIT_SET(huart->AdvancedInit.AdvFeatureInit, UART_ADVFEATURE_DATAINVERT_INIT))
 80052f4:	6a83      	ldr	r3, [r0, #40]	; 0x28
 80052f6:	f013 0f04 	tst.w	r3, #4
 80052fa:	d006      	beq.n	800530a <UART_AdvFeatureConfig+0x42>
  {
    assert_param(IS_UART_ADVFEATURE_DATAINV(huart->AdvancedInit.DataInvert));
    MODIFY_REG(huart->Instance->CR2, USART_CR2_DATAINV, huart->AdvancedInit.DataInvert);
 80052fc:	6802      	ldr	r2, [r0, #0]
 80052fe:	6853      	ldr	r3, [r2, #4]
 8005300:	f423 2380 	bic.w	r3, r3, #262144	; 0x40000
 8005304:	6b41      	ldr	r1, [r0, #52]	; 0x34
 8005306:	430b      	orrs	r3, r1
 8005308:	6053      	str	r3, [r2, #4]
  }

  /* if required, configure RX/TX pins swap */
  if (HAL_IS_BIT_SET(huart->AdvancedInit.AdvFeatureInit, UART_ADVFEATURE_SWAP_INIT))
 800530a:	6a83      	ldr	r3, [r0, #40]	; 0x28
 800530c:	f013 0f08 	tst.w	r3, #8
 8005310:	d006      	beq.n	8005320 <UART_AdvFeatureConfig+0x58>
  {
    assert_param(IS_UART_ADVFEATURE_SWAP(huart->AdvancedInit.Swap));
    MODIFY_REG(huart->Instance->CR2, USART_CR2_SWAP, huart->AdvancedInit.Swap);
 8005312:	6802      	ldr	r2, [r0, #0]
 8005314:	6853      	ldr	r3, [r2, #4]
 8005316:	f423 4300 	bic.w	r3, r3, #32768	; 0x8000
 800531a:	6b81      	ldr	r1, [r0, #56]	; 0x38
 800531c:	430b      	orrs	r3, r1
 800531e:	6053      	str	r3, [r2, #4]
  }

  /* if required, configure RX overrun detection disabling */
  if (HAL_IS_BIT_SET(huart->AdvancedInit.AdvFeatureInit, UART_ADVFEATURE_RXOVERRUNDISABLE_INIT))
 8005320:	6a83      	ldr	r3, [r0, #40]	; 0x28
 8005322:	f013 0f10 	tst.w	r3, #16
 8005326:	d006      	beq.n	8005336 <UART_AdvFeatureConfig+0x6e>
  {
    assert_param(IS_UART_OVERRUN(huart->AdvancedInit.OverrunDisable));
    MODIFY_REG(huart->Instance->CR3, USART_CR3_OVRDIS, huart->AdvancedInit.OverrunDisable);
 8005328:	6802      	ldr	r2, [r0, #0]
 800532a:	6893      	ldr	r3, [r2, #8]
 800532c:	f423 5380 	bic.w	r3, r3, #4096	; 0x1000
 8005330:	6bc1      	ldr	r1, [r0, #60]	; 0x3c
 8005332:	430b      	orrs	r3, r1
 8005334:	6093      	str	r3, [r2, #8]
  }

  /* if required, configure DMA disabling on reception error */
  if (HAL_IS_BIT_SET(huart->AdvancedInit.AdvFeatureInit, UART_ADVFEATURE_DMADISABLEONERROR_INIT))
 8005336:	6a83      	ldr	r3, [r0, #40]	; 0x28
 8005338:	f013 0f20 	tst.w	r3, #32
 800533c:	d006      	beq.n	800534c <UART_AdvFeatureConfig+0x84>
  {
    assert_param(IS_UART_ADVFEATURE_DMAONRXERROR(huart->AdvancedInit.DMADisableonRxError));
    MODIFY_REG(huart->Instance->CR3, USART_CR3_DDRE, huart->AdvancedInit.DMADisableonRxError);
 800533e:	6802      	ldr	r2, [r0, #0]
 8005340:	6893      	ldr	r3, [r2, #8]
 8005342:	f423 5300 	bic.w	r3, r3, #8192	; 0x2000
 8005346:	6c01      	ldr	r1, [r0, #64]	; 0x40
 8005348:	430b      	orrs	r3, r1
 800534a:	6093      	str	r3, [r2, #8]
  }

  /* if required, configure auto Baud rate detection scheme */
  if (HAL_IS_BIT_SET(huart->AdvancedInit.AdvFeatureInit, UART_ADVFEATURE_AUTOBAUDRATE_INIT))
 800534c:	6a83      	ldr	r3, [r0, #40]	; 0x28
 800534e:	f013 0f40 	tst.w	r3, #64	; 0x40
 8005352:	d00a      	beq.n	800536a <UART_AdvFeatureConfig+0xa2>
  {
    assert_param(IS_USART_AUTOBAUDRATE_DETECTION_INSTANCE(huart->Instance));
    assert_param(IS_UART_ADVFEATURE_AUTOBAUDRATE(huart->AdvancedInit.AutoBaudRateEnable));
    MODIFY_REG(huart->Instance->CR2, USART_CR2_ABREN, huart->AdvancedInit.AutoBaudRateEnable);
 8005354:	6802      	ldr	r2, [r0, #0]
 8005356:	6853      	ldr	r3, [r2, #4]
 8005358:	f423 1380 	bic.w	r3, r3, #1048576	; 0x100000
 800535c:	6c41      	ldr	r1, [r0, #68]	; 0x44
 800535e:	430b      	orrs	r3, r1
 8005360:	6053      	str	r3, [r2, #4]
    /* set auto Baudrate detection parameters if detection is enabled */
    if (huart->AdvancedInit.AutoBaudRateEnable == UART_ADVFEATURE_AUTOBAUDRATE_ENABLE)
 8005362:	6c43      	ldr	r3, [r0, #68]	; 0x44
 8005364:	f5b3 1f80 	cmp.w	r3, #1048576	; 0x100000
 8005368:	d00b      	beq.n	8005382 <UART_AdvFeatureConfig+0xba>
      MODIFY_REG(huart->Instance->CR2, USART_CR2_ABRMODE, huart->AdvancedInit.AutoBaudRateMode);
    }
  }

  /* if required, configure MSB first on communication line */
  if (HAL_IS_BIT_SET(huart->AdvancedInit.AdvFeatureInit, UART_ADVFEATURE_MSBFIRST_INIT))
 800536a:	6a83      	ldr	r3, [r0, #40]	; 0x28
 800536c:	f013 0f80 	tst.w	r3, #128	; 0x80
 8005370:	d006      	beq.n	8005380 <UART_AdvFeatureConfig+0xb8>
  {
    assert_param(IS_UART_ADVFEATURE_MSBFIRST(huart->AdvancedInit.MSBFirst));
    MODIFY_REG(huart->Instance->CR2, USART_CR2_MSBFIRST, huart->AdvancedInit.MSBFirst);
 8005372:	6802      	ldr	r2, [r0, #0]
 8005374:	6853      	ldr	r3, [r2, #4]
 8005376:	f423 2300 	bic.w	r3, r3, #524288	; 0x80000
 800537a:	6cc1      	ldr	r1, [r0, #76]	; 0x4c
 800537c:	430b      	orrs	r3, r1
 800537e:	6053      	str	r3, [r2, #4]
  }
}
 8005380:	4770      	bx	lr
      MODIFY_REG(huart->Instance->CR2, USART_CR2_ABRMODE, huart->AdvancedInit.AutoBaudRateMode);
 8005382:	6802      	ldr	r2, [r0, #0]
 8005384:	6853      	ldr	r3, [r2, #4]
 8005386:	f423 03c0 	bic.w	r3, r3, #6291456	; 0x600000
 800538a:	6c81      	ldr	r1, [r0, #72]	; 0x48
 800538c:	430b      	orrs	r3, r1
 800538e:	6053      	str	r3, [r2, #4]
 8005390:	e7eb      	b.n	800536a <UART_AdvFeatureConfig+0xa2>

08005392 <UART_WaitOnFlagUntilTimeout>:
  * @param Timeout   Timeout duration
  * @retval HAL status
  */
HAL_StatusTypeDef UART_WaitOnFlagUntilTimeout(UART_HandleTypeDef *huart, uint32_t Flag, FlagStatus Status,
                                              uint32_t Tickstart, uint32_t Timeout)
{
 8005392:	e92d 43f8 	stmdb	sp!, {r3, r4, r5, r6, r7, r8, r9, lr}
 8005396:	4605      	mov	r5, r0
 8005398:	460f      	mov	r7, r1
 800539a:	4616      	mov	r6, r2
 800539c:	4699      	mov	r9, r3
 800539e:	f8dd 8020 	ldr.w	r8, [sp, #32]
  /* Wait until flag is set */
  while ((__HAL_UART_GET_FLAG(huart, Flag) ? SET : RESET) == Status)
 80053a2:	682c      	ldr	r4, [r5, #0]
 80053a4:	69e4      	ldr	r4, [r4, #28]
 80053a6:	ea37 0304 	bics.w	r3, r7, r4
 80053aa:	bf0c      	ite	eq
 80053ac:	2401      	moveq	r4, #1
 80053ae:	2400      	movne	r4, #0
 80053b0:	42b4      	cmp	r4, r6
 80053b2:	d141      	bne.n	8005438 <UART_WaitOnFlagUntilTimeout+0xa6>
  {
    /* Check for the Timeout */
    if (Timeout != HAL_MAX_DELAY)
 80053b4:	f1b8 3fff 	cmp.w	r8, #4294967295
 80053b8:	d0f3      	beq.n	80053a2 <UART_WaitOnFlagUntilTimeout+0x10>
    {
      if (((HAL_GetTick() - Tickstart) > Timeout) || (Timeout == 0U))
 80053ba:	f7fb f997 	bl	80006ec <HAL_GetTick>
 80053be:	eba0 0009 	sub.w	r0, r0, r9
 80053c2:	4540      	cmp	r0, r8
 80053c4:	d824      	bhi.n	8005410 <UART_WaitOnFlagUntilTimeout+0x7e>
 80053c6:	f1b8 0f00 	cmp.w	r8, #0
 80053ca:	d021      	beq.n	8005410 <UART_WaitOnFlagUntilTimeout+0x7e>
        __HAL_UNLOCK(huart);

        return HAL_TIMEOUT;
      }

      if (READ_BIT(huart->Instance->CR1, USART_CR1_RE) != 0U)
 80053cc:	682b      	ldr	r3, [r5, #0]
 80053ce:	681a      	ldr	r2, [r3, #0]
 80053d0:	f012 0f04 	tst.w	r2, #4
 80053d4:	d0e5      	beq.n	80053a2 <UART_WaitOnFlagUntilTimeout+0x10>
      {
        if (__HAL_UART_GET_FLAG(huart, UART_FLAG_RTOF) == SET)
 80053d6:	69da      	ldr	r2, [r3, #28]
 80053d8:	f412 6f00 	tst.w	r2, #2048	; 0x800
 80053dc:	d0e1      	beq.n	80053a2 <UART_WaitOnFlagUntilTimeout+0x10>
        {
          /* Clear Receiver Timeout flag*/
          __HAL_UART_CLEAR_FLAG(huart, UART_CLEAR_RTOF);
 80053de:	f44f 6200 	mov.w	r2, #2048	; 0x800
 80053e2:	621a      	str	r2, [r3, #32]

          /* Disable TXE, RXNE, PE and ERR (Frame error, noise error, overrun error) interrupts for the interrupt process */
          CLEAR_BIT(huart->Instance->CR1, (USART_CR1_RXNEIE_RXFNEIE | USART_CR1_PEIE | USART_CR1_TXEIE_TXFNFIE));
 80053e4:	682a      	ldr	r2, [r5, #0]
 80053e6:	6813      	ldr	r3, [r2, #0]
 80053e8:	f423 73d0 	bic.w	r3, r3, #416	; 0x1a0
 80053ec:	6013      	str	r3, [r2, #0]
          CLEAR_BIT(huart->Instance->CR3, USART_CR3_EIE);
 80053ee:	682a      	ldr	r2, [r5, #0]
 80053f0:	6893      	ldr	r3, [r2, #8]
 80053f2:	f023 0301 	bic.w	r3, r3, #1
 80053f6:	6093      	str	r3, [r2, #8]

          huart->gState = HAL_UART_STATE_READY;
 80053f8:	2320      	movs	r3, #32
 80053fa:	f8c5 3080 	str.w	r3, [r5, #128]	; 0x80
          huart->RxState = HAL_UART_STATE_READY;
 80053fe:	f8c5 3084 	str.w	r3, [r5, #132]	; 0x84
          huart->ErrorCode = HAL_UART_ERROR_RTO;
 8005402:	f8c5 3088 	str.w	r3, [r5, #136]	; 0x88

          /* Process Unlocked */
          __HAL_UNLOCK(huart);
 8005406:	2300      	movs	r3, #0
 8005408:	f885 307c 	strb.w	r3, [r5, #124]	; 0x7c

          return HAL_TIMEOUT;
 800540c:	2003      	movs	r0, #3
 800540e:	e014      	b.n	800543a <UART_WaitOnFlagUntilTimeout+0xa8>
        CLEAR_BIT(huart->Instance->CR1, (USART_CR1_RXNEIE_RXFNEIE | USART_CR1_PEIE | USART_CR1_TXEIE_TXFNFIE));
 8005410:	682a      	ldr	r2, [r5, #0]
 8005412:	6813      	ldr	r3, [r2, #0]
 8005414:	f423 73d0 	bic.w	r3, r3, #416	; 0x1a0
 8005418:	6013      	str	r3, [r2, #0]
        CLEAR_BIT(huart->Instance->CR3, USART_CR3_EIE);
 800541a:	682a      	ldr	r2, [r5, #0]
 800541c:	6893      	ldr	r3, [r2, #8]
 800541e:	f023 0301 	bic.w	r3, r3, #1
 8005422:	6093      	str	r3, [r2, #8]
        huart->gState = HAL_UART_STATE_READY;
 8005424:	2320      	movs	r3, #32
 8005426:	f8c5 3080 	str.w	r3, [r5, #128]	; 0x80
        huart->RxState = HAL_UART_STATE_READY;
 800542a:	f8c5 3084 	str.w	r3, [r5, #132]	; 0x84
        __HAL_UNLOCK(huart);
 800542e:	2300      	movs	r3, #0
 8005430:	f885 307c 	strb.w	r3, [r5, #124]	; 0x7c
        return HAL_TIMEOUT;
 8005434:	2003      	movs	r0, #3
 8005436:	e000      	b.n	800543a <UART_WaitOnFlagUntilTimeout+0xa8>
        }
      }
    }
  }
  return HAL_OK;
 8005438:	2000      	movs	r0, #0
}
 800543a:	e8bd 83f8 	ldmia.w	sp!, {r3, r4, r5, r6, r7, r8, r9, pc}

0800543e <UART_CheckIdleState>:
{
 800543e:	b530      	push	{r4, r5, lr}
 8005440:	b083      	sub	sp, #12
 8005442:	4604      	mov	r4, r0
  huart->ErrorCode = HAL_UART_ERROR_NONE;
 8005444:	2300      	movs	r3, #0
 8005446:	f8c0 3088 	str.w	r3, [r0, #136]	; 0x88
  tickstart = HAL_GetTick();
 800544a:	f7fb f94f 	bl	80006ec <HAL_GetTick>
 800544e:	4605      	mov	r5, r0
  if ((huart->Instance->CR1 & USART_CR1_TE) == USART_CR1_TE)
 8005450:	6823      	ldr	r3, [r4, #0]
 8005452:	681b      	ldr	r3, [r3, #0]
 8005454:	f013 0f08 	tst.w	r3, #8
 8005458:	d10e      	bne.n	8005478 <UART_CheckIdleState+0x3a>
  if ((huart->Instance->CR1 & USART_CR1_RE) == USART_CR1_RE)
 800545a:	6823      	ldr	r3, [r4, #0]
 800545c:	681b      	ldr	r3, [r3, #0]
 800545e:	f013 0f04 	tst.w	r3, #4
 8005462:	d117      	bne.n	8005494 <UART_CheckIdleState+0x56>
  huart->gState = HAL_UART_STATE_READY;
 8005464:	2320      	movs	r3, #32
 8005466:	f8c4 3080 	str.w	r3, [r4, #128]	; 0x80
  huart->RxState = HAL_UART_STATE_READY;
 800546a:	f8c4 3084 	str.w	r3, [r4, #132]	; 0x84
  __HAL_UNLOCK(huart);
 800546e:	2000      	movs	r0, #0
 8005470:	f884 007c 	strb.w	r0, [r4, #124]	; 0x7c
}
 8005474:	b003      	add	sp, #12
 8005476:	bd30      	pop	{r4, r5, pc}
    if (UART_WaitOnFlagUntilTimeout(huart, USART_ISR_TEACK, RESET, tickstart, HAL_UART_TIMEOUT_VALUE) != HAL_OK)
 8005478:	f06f 437e 	mvn.w	r3, #4261412864	; 0xfe000000
 800547c:	9300      	str	r3, [sp, #0]
 800547e:	4603      	mov	r3, r0
 8005480:	2200      	movs	r2, #0
 8005482:	f44f 1100 	mov.w	r1, #2097152	; 0x200000
 8005486:	4620      	mov	r0, r4
 8005488:	f7ff ff83 	bl	8005392 <UART_WaitOnFlagUntilTimeout>
 800548c:	2800      	cmp	r0, #0
 800548e:	d0e4      	beq.n	800545a <UART_CheckIdleState+0x1c>
      return HAL_TIMEOUT;
 8005490:	2003      	movs	r0, #3
 8005492:	e7ef      	b.n	8005474 <UART_CheckIdleState+0x36>
    if (UART_WaitOnFlagUntilTimeout(huart, USART_ISR_REACK, RESET, tickstart, HAL_UART_TIMEOUT_VALUE) != HAL_OK)
 8005494:	f06f 437e 	mvn.w	r3, #4261412864	; 0xfe000000
 8005498:	9300      	str	r3, [sp, #0]
 800549a:	462b      	mov	r3, r5
 800549c:	2200      	movs	r2, #0
 800549e:	f44f 0180 	mov.w	r1, #4194304	; 0x400000
 80054a2:	4620      	mov	r0, r4
 80054a4:	f7ff ff75 	bl	8005392 <UART_WaitOnFlagUntilTimeout>
 80054a8:	2800      	cmp	r0, #0
 80054aa:	d0db      	beq.n	8005464 <UART_CheckIdleState+0x26>
      return HAL_TIMEOUT;
 80054ac:	2003      	movs	r0, #3
 80054ae:	e7e1      	b.n	8005474 <UART_CheckIdleState+0x36>

080054b0 <HAL_LIN_Init>:
  if (huart == NULL)
 80054b0:	2800      	cmp	r0, #0
 80054b2:	d042      	beq.n	800553a <HAL_LIN_Init+0x8a>
{
 80054b4:	b538      	push	{r3, r4, r5, lr}
 80054b6:	460d      	mov	r5, r1
 80054b8:	4604      	mov	r4, r0
  if (huart->Init.OverSampling == UART_OVERSAMPLING_8)
 80054ba:	69c3      	ldr	r3, [r0, #28]
 80054bc:	f5b3 4f00 	cmp.w	r3, #32768	; 0x8000
 80054c0:	d03d      	beq.n	800553e <HAL_LIN_Init+0x8e>
  if (huart->Init.WordLength != UART_WORDLENGTH_8B)
 80054c2:	6883      	ldr	r3, [r0, #8]
 80054c4:	2b00      	cmp	r3, #0
 80054c6:	d13c      	bne.n	8005542 <HAL_LIN_Init+0x92>
  if (huart->gState == HAL_UART_STATE_RESET)
 80054c8:	f8d0 3080 	ldr.w	r3, [r0, #128]	; 0x80
 80054cc:	b363      	cbz	r3, 8005528 <HAL_LIN_Init+0x78>
  huart->gState = HAL_UART_STATE_BUSY;
 80054ce:	2324      	movs	r3, #36	; 0x24
 80054d0:	f8c4 3080 	str.w	r3, [r4, #128]	; 0x80
  __HAL_UART_DISABLE(huart);
 80054d4:	6822      	ldr	r2, [r4, #0]
 80054d6:	6813      	ldr	r3, [r2, #0]
 80054d8:	f023 0301 	bic.w	r3, r3, #1
 80054dc:	6013      	str	r3, [r2, #0]
  if (UART_SetConfig(huart) == HAL_ERROR)
 80054de:	4620      	mov	r0, r4
 80054e0:	f7ff fbf2 	bl	8004cc8 <UART_SetConfig>
 80054e4:	2801      	cmp	r0, #1
 80054e6:	d01e      	beq.n	8005526 <HAL_LIN_Init+0x76>
  if (huart->AdvancedInit.AdvFeatureInit != UART_ADVFEATURE_NO_INIT)
 80054e8:	6aa3      	ldr	r3, [r4, #40]	; 0x28
 80054ea:	bb13      	cbnz	r3, 8005532 <HAL_LIN_Init+0x82>
  CLEAR_BIT(huart->Instance->CR2, USART_CR2_CLKEN);
 80054ec:	6822      	ldr	r2, [r4, #0]
 80054ee:	6853      	ldr	r3, [r2, #4]
 80054f0:	f423 6300 	bic.w	r3, r3, #2048	; 0x800
 80054f4:	6053      	str	r3, [r2, #4]
  CLEAR_BIT(huart->Instance->CR3, (USART_CR3_HDSEL | USART_CR3_IREN | USART_CR3_SCEN));
 80054f6:	6822      	ldr	r2, [r4, #0]
 80054f8:	6893      	ldr	r3, [r2, #8]
 80054fa:	f023 032a 	bic.w	r3, r3, #42	; 0x2a
 80054fe:	6093      	str	r3, [r2, #8]
  SET_BIT(huart->Instance->CR2, USART_CR2_LINEN);
 8005500:	6822      	ldr	r2, [r4, #0]
 8005502:	6853      	ldr	r3, [r2, #4]
 8005504:	f443 4380 	orr.w	r3, r3, #16384	; 0x4000
 8005508:	6053      	str	r3, [r2, #4]
  MODIFY_REG(huart->Instance->CR2, USART_CR2_LBDL, BreakDetectLength);
 800550a:	6822      	ldr	r2, [r4, #0]
 800550c:	6853      	ldr	r3, [r2, #4]
 800550e:	f023 0320 	bic.w	r3, r3, #32
 8005512:	432b      	orrs	r3, r5
 8005514:	6053      	str	r3, [r2, #4]
  __HAL_UART_ENABLE(huart);
 8005516:	6822      	ldr	r2, [r4, #0]
 8005518:	6813      	ldr	r3, [r2, #0]
 800551a:	f043 0301 	orr.w	r3, r3, #1
 800551e:	6013      	str	r3, [r2, #0]
  return (UART_CheckIdleState(huart));
 8005520:	4620      	mov	r0, r4
 8005522:	f7ff ff8c 	bl	800543e <UART_CheckIdleState>
}
 8005526:	bd38      	pop	{r3, r4, r5, pc}
    huart->Lock = HAL_UNLOCKED;
 8005528:	f880 307c 	strb.w	r3, [r0, #124]	; 0x7c
    HAL_UART_MspInit(huart);
 800552c:	f002 fad8 	bl	8007ae0 <HAL_UART_MspInit>
 8005530:	e7cd      	b.n	80054ce <HAL_LIN_Init+0x1e>
    UART_AdvFeatureConfig(huart);
 8005532:	4620      	mov	r0, r4
 8005534:	f7ff fec8 	bl	80052c8 <UART_AdvFeatureConfig>
 8005538:	e7d8      	b.n	80054ec <HAL_LIN_Init+0x3c>
    return HAL_ERROR;
 800553a:	2001      	movs	r0, #1
}
 800553c:	4770      	bx	lr
    return HAL_ERROR;
 800553e:	2001      	movs	r0, #1
 8005540:	e7f1      	b.n	8005526 <HAL_LIN_Init+0x76>
    return HAL_ERROR;
 8005542:	2001      	movs	r0, #1
 8005544:	e7ef      	b.n	8005526 <HAL_LIN_Init+0x76>
	...

08005548 <UARTEx_SetNbDataToProcess>:
  *       the UART configuration registers.
  * @param huart UART handle.
  * @retval None
  */
static void UARTEx_SetNbDataToProcess(UART_HandleTypeDef *huart)
{
 8005548:	b084      	sub	sp, #16
 800554a:	4603      	mov	r3, r0
  uint8_t rx_fifo_depth;
  uint8_t tx_fifo_depth;
  uint8_t rx_fifo_threshold;
  uint8_t tx_fifo_threshold;
  uint8_t numerator[] = {1U, 1U, 1U, 3U, 7U, 1U, 0U, 0U};
 800554c:	4a18      	ldr	r2, [pc, #96]	; (80055b0 <UARTEx_SetNbDataToProcess+0x68>)
 800554e:	e892 0003 	ldmia.w	r2, {r0, r1}
 8005552:	aa04      	add	r2, sp, #16
 8005554:	e902 0003 	stmdb	r2, {r0, r1}
  uint8_t denominator[] = {8U, 4U, 2U, 4U, 8U, 1U, 1U, 1U};
 8005558:	4916      	ldr	r1, [pc, #88]	; (80055b4 <UARTEx_SetNbDataToProcess+0x6c>)
 800555a:	466a      	mov	r2, sp
 800555c:	c903      	ldmia	r1, {r0, r1}
 800555e:	e882 0003 	stmia.w	r2, {r0, r1}

  if (huart->FifoMode == UART_FIFOMODE_DISABLE)
 8005562:	6e5a      	ldr	r2, [r3, #100]	; 0x64
 8005564:	b932      	cbnz	r2, 8005574 <UARTEx_SetNbDataToProcess+0x2c>
  {
    huart->NbTxDataToProcess = 1U;
 8005566:	2201      	movs	r2, #1
 8005568:	f8a3 206a 	strh.w	r2, [r3, #106]	; 0x6a
    huart->NbRxDataToProcess = 1U;
 800556c:	f8a3 2068 	strh.w	r2, [r3, #104]	; 0x68
    rx_fifo_threshold = (uint8_t)(READ_BIT(huart->Instance->CR3, USART_CR3_RXFTCFG) >> USART_CR3_RXFTCFG_Pos);
    tx_fifo_threshold = (uint8_t)(READ_BIT(huart->Instance->CR3, USART_CR3_TXFTCFG) >> USART_CR3_TXFTCFG_Pos);
    huart->NbTxDataToProcess = ((uint16_t)tx_fifo_depth * numerator[tx_fifo_threshold]) / (uint16_t)denominator[tx_fifo_threshold];
    huart->NbRxDataToProcess = ((uint16_t)rx_fifo_depth * numerator[rx_fifo_threshold]) / (uint16_t)denominator[rx_fifo_threshold];
  }
}
 8005570:	b004      	add	sp, #16
 8005572:	4770      	bx	lr
    rx_fifo_threshold = (uint8_t)(READ_BIT(huart->Instance->CR3, USART_CR3_RXFTCFG) >> USART_CR3_RXFTCFG_Pos);
 8005574:	6819      	ldr	r1, [r3, #0]
 8005576:	688a      	ldr	r2, [r1, #8]
 8005578:	f3c2 6242 	ubfx	r2, r2, #25, #3
    tx_fifo_threshold = (uint8_t)(READ_BIT(huart->Instance->CR3, USART_CR3_TXFTCFG) >> USART_CR3_TXFTCFG_Pos);
 800557c:	6888      	ldr	r0, [r1, #8]
    huart->NbTxDataToProcess = ((uint16_t)tx_fifo_depth * numerator[tx_fifo_threshold]) / (uint16_t)denominator[tx_fifo_threshold];
 800557e:	a904      	add	r1, sp, #16
 8005580:	eb01 7050 	add.w	r0, r1, r0, lsr #29
 8005584:	f810 1c08 	ldrb.w	r1, [r0, #-8]
 8005588:	0109      	lsls	r1, r1, #4
 800558a:	f810 0c10 	ldrb.w	r0, [r0, #-16]
 800558e:	fb91 f1f0 	sdiv	r1, r1, r0
 8005592:	f8a3 106a 	strh.w	r1, [r3, #106]	; 0x6a
    huart->NbRxDataToProcess = ((uint16_t)rx_fifo_depth * numerator[rx_fifo_threshold]) / (uint16_t)denominator[rx_fifo_threshold];
 8005596:	a904      	add	r1, sp, #16
 8005598:	440a      	add	r2, r1
 800559a:	f812 1c08 	ldrb.w	r1, [r2, #-8]
 800559e:	0109      	lsls	r1, r1, #4
 80055a0:	f812 2c10 	ldrb.w	r2, [r2, #-16]
 80055a4:	fb91 f2f2 	sdiv	r2, r1, r2
 80055a8:	f8a3 2068 	strh.w	r2, [r3, #104]	; 0x68
}
 80055ac:	e7e0      	b.n	8005570 <UARTEx_SetNbDataToProcess+0x28>
 80055ae:	bf00      	nop
 80055b0:	080092cc 	.word	0x080092cc
 80055b4:	080092e4 	.word	0x080092e4

080055b8 <HAL_UARTEx_DisableFifoMode>:
  __HAL_LOCK(huart);
 80055b8:	f890 307c 	ldrb.w	r3, [r0, #124]	; 0x7c
 80055bc:	2b01      	cmp	r3, #1
 80055be:	d018      	beq.n	80055f2 <HAL_UARTEx_DisableFifoMode+0x3a>
 80055c0:	2301      	movs	r3, #1
 80055c2:	f880 307c 	strb.w	r3, [r0, #124]	; 0x7c
  huart->gState = HAL_UART_STATE_BUSY;
 80055c6:	2324      	movs	r3, #36	; 0x24
 80055c8:	f8c0 3080 	str.w	r3, [r0, #128]	; 0x80
  tmpcr1 = READ_REG(huart->Instance->CR1);
 80055cc:	6803      	ldr	r3, [r0, #0]
 80055ce:	681a      	ldr	r2, [r3, #0]
  __HAL_UART_DISABLE(huart);
 80055d0:	6819      	ldr	r1, [r3, #0]
 80055d2:	f021 0101 	bic.w	r1, r1, #1
 80055d6:	6019      	str	r1, [r3, #0]
  CLEAR_BIT(tmpcr1, USART_CR1_FIFOEN);
 80055d8:	f022 5200 	bic.w	r2, r2, #536870912	; 0x20000000
  huart->FifoMode = UART_FIFOMODE_DISABLE;
 80055dc:	2300      	movs	r3, #0
 80055de:	6643      	str	r3, [r0, #100]	; 0x64
  WRITE_REG(huart->Instance->CR1, tmpcr1);
 80055e0:	6801      	ldr	r1, [r0, #0]
 80055e2:	600a      	str	r2, [r1, #0]
  huart->gState = HAL_UART_STATE_READY;
 80055e4:	2220      	movs	r2, #32
 80055e6:	f8c0 2080 	str.w	r2, [r0, #128]	; 0x80
  __HAL_UNLOCK(huart);
 80055ea:	f880 307c 	strb.w	r3, [r0, #124]	; 0x7c
  return HAL_OK;
 80055ee:	4618      	mov	r0, r3
 80055f0:	4770      	bx	lr
  __HAL_LOCK(huart);
 80055f2:	2002      	movs	r0, #2
}
 80055f4:	4770      	bx	lr

080055f6 <HAL_UARTEx_SetTxFifoThreshold>:
{
 80055f6:	b538      	push	{r3, r4, r5, lr}
  __HAL_LOCK(huart);
 80055f8:	f890 307c 	ldrb.w	r3, [r0, #124]	; 0x7c
 80055fc:	2b01      	cmp	r3, #1
 80055fe:	d01d      	beq.n	800563c <HAL_UARTEx_SetTxFifoThreshold+0x46>
 8005600:	4604      	mov	r4, r0
 8005602:	2301      	movs	r3, #1
 8005604:	f880 307c 	strb.w	r3, [r0, #124]	; 0x7c
  huart->gState = HAL_UART_STATE_BUSY;
 8005608:	2324      	movs	r3, #36	; 0x24
 800560a:	f8c0 3080 	str.w	r3, [r0, #128]	; 0x80
  tmpcr1 = READ_REG(huart->Instance->CR1);
 800560e:	6803      	ldr	r3, [r0, #0]
 8005610:	681d      	ldr	r5, [r3, #0]
  __HAL_UART_DISABLE(huart);
 8005612:	681a      	ldr	r2, [r3, #0]
 8005614:	f022 0201 	bic.w	r2, r2, #1
 8005618:	601a      	str	r2, [r3, #0]
  MODIFY_REG(huart->Instance->CR3, USART_CR3_TXFTCFG, Threshold);
 800561a:	6802      	ldr	r2, [r0, #0]
 800561c:	6893      	ldr	r3, [r2, #8]
 800561e:	f023 4360 	bic.w	r3, r3, #3758096384	; 0xe0000000
 8005622:	4319      	orrs	r1, r3
 8005624:	6091      	str	r1, [r2, #8]
  UARTEx_SetNbDataToProcess(huart);
 8005626:	f7ff ff8f 	bl	8005548 <UARTEx_SetNbDataToProcess>
  WRITE_REG(huart->Instance->CR1, tmpcr1);
 800562a:	6823      	ldr	r3, [r4, #0]
 800562c:	601d      	str	r5, [r3, #0]
  huart->gState = HAL_UART_STATE_READY;
 800562e:	2320      	movs	r3, #32
 8005630:	f8c4 3080 	str.w	r3, [r4, #128]	; 0x80
  __HAL_UNLOCK(huart);
 8005634:	2000      	movs	r0, #0
 8005636:	f884 007c 	strb.w	r0, [r4, #124]	; 0x7c
}
 800563a:	bd38      	pop	{r3, r4, r5, pc}
  __HAL_LOCK(huart);
 800563c:	2002      	movs	r0, #2
 800563e:	e7fc      	b.n	800563a <HAL_UARTEx_SetTxFifoThreshold+0x44>

08005640 <HAL_UARTEx_SetRxFifoThreshold>:
{
 8005640:	b538      	push	{r3, r4, r5, lr}
  __HAL_LOCK(huart);
 8005642:	f890 307c 	ldrb.w	r3, [r0, #124]	; 0x7c
 8005646:	2b01      	cmp	r3, #1
 8005648:	d01d      	beq.n	8005686 <HAL_UARTEx_SetRxFifoThreshold+0x46>
 800564a:	4604      	mov	r4, r0
 800564c:	2301      	movs	r3, #1
 800564e:	f880 307c 	strb.w	r3, [r0, #124]	; 0x7c
  huart->gState = HAL_UART_STATE_BUSY;
 8005652:	2324      	movs	r3, #36	; 0x24
 8005654:	f8c0 3080 	str.w	r3, [r0, #128]	; 0x80
  tmpcr1 = READ_REG(huart->Instance->CR1);
 8005658:	6803      	ldr	r3, [r0, #0]
 800565a:	681d      	ldr	r5, [r3, #0]
  __HAL_UART_DISABLE(huart);
 800565c:	681a      	ldr	r2, [r3, #0]
 800565e:	f022 0201 	bic.w	r2, r2, #1
 8005662:	601a      	str	r2, [r3, #0]
  MODIFY_REG(huart->Instance->CR3, USART_CR3_RXFTCFG, Threshold);
 8005664:	6802      	ldr	r2, [r0, #0]
 8005666:	6893      	ldr	r3, [r2, #8]
 8005668:	f023 6360 	bic.w	r3, r3, #234881024	; 0xe000000
 800566c:	4319      	orrs	r1, r3
 800566e:	6091      	str	r1, [r2, #8]
  UARTEx_SetNbDataToProcess(huart);
 8005670:	f7ff ff6a 	bl	8005548 <UARTEx_SetNbDataToProcess>
  WRITE_REG(huart->Instance->CR1, tmpcr1);
 8005674:	6823      	ldr	r3, [r4, #0]
 8005676:	601d      	str	r5, [r3, #0]
  huart->gState = HAL_UART_STATE_READY;
 8005678:	2320      	movs	r3, #32
 800567a:	f8c4 3080 	str.w	r3, [r4, #128]	; 0x80
  __HAL_UNLOCK(huart);
 800567e:	2000      	movs	r0, #0
 8005680:	f884 007c 	strb.w	r0, [r4, #124]	; 0x7c
}
 8005684:	bd38      	pop	{r3, r4, r5, pc}
  __HAL_LOCK(huart);
 8005686:	2002      	movs	r0, #2
 8005688:	e7fc      	b.n	8005684 <HAL_UARTEx_SetRxFifoThreshold+0x44>
	...

0800568c <USB_CoreReset>:
  * @param  USBx  Selected device
  * @retval HAL status
  */
static HAL_StatusTypeDef USB_CoreReset(USB_OTG_GlobalTypeDef *USBx)
{
  uint32_t count = 0U;
 800568c:	2300      	movs	r3, #0

  /* Wait for AHB master IDLE state. */
  do
  {
    if (++count > 200000U)
 800568e:	3301      	adds	r3, #1
 8005690:	4a0c      	ldr	r2, [pc, #48]	; (80056c4 <USB_CoreReset+0x38>)
 8005692:	4293      	cmp	r3, r2
 8005694:	d811      	bhi.n	80056ba <USB_CoreReset+0x2e>
    {
      return HAL_TIMEOUT;
    }
  }
  while ((USBx->GRSTCTL & USB_OTG_GRSTCTL_AHBIDL) == 0U);
 8005696:	6902      	ldr	r2, [r0, #16]
 8005698:	2a00      	cmp	r2, #0
 800569a:	daf8      	bge.n	800568e <USB_CoreReset+0x2>

  /* Core Soft Reset */
  count = 0U;
  USBx->GRSTCTL |= USB_OTG_GRSTCTL_CSRST;
 800569c:	6903      	ldr	r3, [r0, #16]
 800569e:	f043 0301 	orr.w	r3, r3, #1
 80056a2:	6103      	str	r3, [r0, #16]
  count = 0U;
 80056a4:	2300      	movs	r3, #0

  do
  {
    if (++count > 200000U)
 80056a6:	3301      	adds	r3, #1
 80056a8:	4a06      	ldr	r2, [pc, #24]	; (80056c4 <USB_CoreReset+0x38>)
 80056aa:	4293      	cmp	r3, r2
 80056ac:	d807      	bhi.n	80056be <USB_CoreReset+0x32>
    {
      return HAL_TIMEOUT;
    }
  }
  while ((USBx->GRSTCTL & USB_OTG_GRSTCTL_CSRST) == USB_OTG_GRSTCTL_CSRST);
 80056ae:	6902      	ldr	r2, [r0, #16]
 80056b0:	f012 0f01 	tst.w	r2, #1
 80056b4:	d1f7      	bne.n	80056a6 <USB_CoreReset+0x1a>

  return HAL_OK;
 80056b6:	2000      	movs	r0, #0
 80056b8:	4770      	bx	lr
      return HAL_TIMEOUT;
 80056ba:	2003      	movs	r0, #3
 80056bc:	4770      	bx	lr
      return HAL_TIMEOUT;
 80056be:	2003      	movs	r0, #3
}
 80056c0:	4770      	bx	lr
 80056c2:	bf00      	nop
 80056c4:	00030d40 	.word	0x00030d40

080056c8 <USB_CoreInit>:
{
 80056c8:	b084      	sub	sp, #16
 80056ca:	b510      	push	{r4, lr}
 80056cc:	4604      	mov	r4, r0
 80056ce:	a803      	add	r0, sp, #12
 80056d0:	e880 000e 	stmia.w	r0, {r1, r2, r3}
  if (cfg.phy_itface == USB_OTG_ULPI_PHY)
 80056d4:	9b08      	ldr	r3, [sp, #32]
 80056d6:	2b01      	cmp	r3, #1
 80056d8:	d11d      	bne.n	8005716 <USB_CoreInit+0x4e>
    USBx->GCCFG &= ~(USB_OTG_GCCFG_PWRDWN);
 80056da:	6ba3      	ldr	r3, [r4, #56]	; 0x38
 80056dc:	f423 3380 	bic.w	r3, r3, #65536	; 0x10000
 80056e0:	63a3      	str	r3, [r4, #56]	; 0x38
    USBx->GUSBCFG &= ~(USB_OTG_GUSBCFG_TSDPS | USB_OTG_GUSBCFG_ULPIFSLS | USB_OTG_GUSBCFG_PHYSEL);
 80056e2:	68e2      	ldr	r2, [r4, #12]
 80056e4:	4b1a      	ldr	r3, [pc, #104]	; (8005750 <USB_CoreInit+0x88>)
 80056e6:	4013      	ands	r3, r2
 80056e8:	60e3      	str	r3, [r4, #12]
    USBx->GUSBCFG &= ~(USB_OTG_GUSBCFG_ULPIEVBUSD | USB_OTG_GUSBCFG_ULPIEVBUSI);
 80056ea:	68e3      	ldr	r3, [r4, #12]
 80056ec:	f423 1340 	bic.w	r3, r3, #3145728	; 0x300000
 80056f0:	60e3      	str	r3, [r4, #12]
    if (cfg.use_external_vbus == 1U)
 80056f2:	9b0f      	ldr	r3, [sp, #60]	; 0x3c
 80056f4:	2b01      	cmp	r3, #1
 80056f6:	d009      	beq.n	800570c <USB_CoreInit+0x44>
    ret = USB_CoreReset(USBx);
 80056f8:	4620      	mov	r0, r4
 80056fa:	f7ff ffc7 	bl	800568c <USB_CoreReset>
  if (cfg.dma_enable == 1U)
 80056fe:	9b06      	ldr	r3, [sp, #24]
 8005700:	2b01      	cmp	r3, #1
 8005702:	d01b      	beq.n	800573c <USB_CoreInit+0x74>
}
 8005704:	e8bd 4010 	ldmia.w	sp!, {r4, lr}
 8005708:	b004      	add	sp, #16
 800570a:	4770      	bx	lr
      USBx->GUSBCFG |= USB_OTG_GUSBCFG_ULPIEVBUSD;
 800570c:	68e3      	ldr	r3, [r4, #12]
 800570e:	f443 1380 	orr.w	r3, r3, #1048576	; 0x100000
 8005712:	60e3      	str	r3, [r4, #12]
 8005714:	e7f0      	b.n	80056f8 <USB_CoreInit+0x30>
    USBx->GUSBCFG |= USB_OTG_GUSBCFG_PHYSEL;
 8005716:	68e3      	ldr	r3, [r4, #12]
 8005718:	f043 0340 	orr.w	r3, r3, #64	; 0x40
 800571c:	60e3      	str	r3, [r4, #12]
    ret = USB_CoreReset(USBx);
 800571e:	4620      	mov	r0, r4
 8005720:	f7ff ffb4 	bl	800568c <USB_CoreReset>
    if (cfg.battery_charging_enable == 0U)
 8005724:	9b0c      	ldr	r3, [sp, #48]	; 0x30
 8005726:	b923      	cbnz	r3, 8005732 <USB_CoreInit+0x6a>
      USBx->GCCFG |= USB_OTG_GCCFG_PWRDWN;
 8005728:	6ba3      	ldr	r3, [r4, #56]	; 0x38
 800572a:	f443 3380 	orr.w	r3, r3, #65536	; 0x10000
 800572e:	63a3      	str	r3, [r4, #56]	; 0x38
 8005730:	e7e5      	b.n	80056fe <USB_CoreInit+0x36>
      USBx->GCCFG &= ~(USB_OTG_GCCFG_PWRDWN);
 8005732:	6ba3      	ldr	r3, [r4, #56]	; 0x38
 8005734:	f423 3380 	bic.w	r3, r3, #65536	; 0x10000
 8005738:	63a3      	str	r3, [r4, #56]	; 0x38
 800573a:	e7e0      	b.n	80056fe <USB_CoreInit+0x36>
    USBx->GAHBCFG |= USB_OTG_GAHBCFG_HBSTLEN_2;
 800573c:	68a3      	ldr	r3, [r4, #8]
 800573e:	f043 0306 	orr.w	r3, r3, #6
 8005742:	60a3      	str	r3, [r4, #8]
    USBx->GAHBCFG |= USB_OTG_GAHBCFG_DMAEN;
 8005744:	68a3      	ldr	r3, [r4, #8]
 8005746:	f043 0320 	orr.w	r3, r3, #32
 800574a:	60a3      	str	r3, [r4, #8]
 800574c:	e7da      	b.n	8005704 <USB_CoreInit+0x3c>
 800574e:	bf00      	nop
 8005750:	ffbdffbf 	.word	0xffbdffbf

08005754 <USB_SetTurnaroundTime>:
  if (speed == USBD_FS_SPEED)
 8005754:	2a02      	cmp	r2, #2
 8005756:	d00a      	beq.n	800576e <USB_SetTurnaroundTime+0x1a>
    UsbTrd = USBD_HS_TRDT_VALUE;
 8005758:	2109      	movs	r1, #9
  USBx->GUSBCFG &= ~USB_OTG_GUSBCFG_TRDT;
 800575a:	68c2      	ldr	r2, [r0, #12]
 800575c:	f422 5270 	bic.w	r2, r2, #15360	; 0x3c00
 8005760:	60c2      	str	r2, [r0, #12]
  USBx->GUSBCFG |= (uint32_t)((UsbTrd << 10) & USB_OTG_GUSBCFG_TRDT);
 8005762:	68c3      	ldr	r3, [r0, #12]
 8005764:	ea43 2381 	orr.w	r3, r3, r1, lsl #10
 8005768:	60c3      	str	r3, [r0, #12]
}
 800576a:	2000      	movs	r0, #0
 800576c:	4770      	bx	lr
    if ((hclk >= 14200000U) && (hclk < 15000000U))
 800576e:	4b20      	ldr	r3, [pc, #128]	; (80057f0 <USB_SetTurnaroundTime+0x9c>)
 8005770:	440b      	add	r3, r1
 8005772:	4a20      	ldr	r2, [pc, #128]	; (80057f4 <USB_SetTurnaroundTime+0xa0>)
 8005774:	4293      	cmp	r3, r2
 8005776:	d929      	bls.n	80057cc <USB_SetTurnaroundTime+0x78>
    else if ((hclk >= 15000000U) && (hclk < 16000000U))
 8005778:	4b1f      	ldr	r3, [pc, #124]	; (80057f8 <USB_SetTurnaroundTime+0xa4>)
 800577a:	440b      	add	r3, r1
 800577c:	4a1f      	ldr	r2, [pc, #124]	; (80057fc <USB_SetTurnaroundTime+0xa8>)
 800577e:	4293      	cmp	r3, r2
 8005780:	d926      	bls.n	80057d0 <USB_SetTurnaroundTime+0x7c>
    else if ((hclk >= 16000000U) && (hclk < 17200000U))
 8005782:	4b1f      	ldr	r3, [pc, #124]	; (8005800 <USB_SetTurnaroundTime+0xac>)
 8005784:	440b      	add	r3, r1
 8005786:	4a1f      	ldr	r2, [pc, #124]	; (8005804 <USB_SetTurnaroundTime+0xb0>)
 8005788:	4293      	cmp	r3, r2
 800578a:	d923      	bls.n	80057d4 <USB_SetTurnaroundTime+0x80>
    else if ((hclk >= 17200000U) && (hclk < 18500000U))
 800578c:	4b1e      	ldr	r3, [pc, #120]	; (8005808 <USB_SetTurnaroundTime+0xb4>)
 800578e:	440b      	add	r3, r1
 8005790:	4a1e      	ldr	r2, [pc, #120]	; (800580c <USB_SetTurnaroundTime+0xb8>)
 8005792:	4293      	cmp	r3, r2
 8005794:	d320      	bcc.n	80057d8 <USB_SetTurnaroundTime+0x84>
    else if ((hclk >= 18500000U) && (hclk < 20000000U))
 8005796:	4b1e      	ldr	r3, [pc, #120]	; (8005810 <USB_SetTurnaroundTime+0xbc>)
 8005798:	440b      	add	r3, r1
 800579a:	4a1e      	ldr	r2, [pc, #120]	; (8005814 <USB_SetTurnaroundTime+0xc0>)
 800579c:	4293      	cmp	r3, r2
 800579e:	d91d      	bls.n	80057dc <USB_SetTurnaroundTime+0x88>
    else if ((hclk >= 20000000U) && (hclk < 21800000U))
 80057a0:	4b1d      	ldr	r3, [pc, #116]	; (8005818 <USB_SetTurnaroundTime+0xc4>)
 80057a2:	440b      	add	r3, r1
 80057a4:	4a1d      	ldr	r2, [pc, #116]	; (800581c <USB_SetTurnaroundTime+0xc8>)
 80057a6:	4293      	cmp	r3, r2
 80057a8:	d31a      	bcc.n	80057e0 <USB_SetTurnaroundTime+0x8c>
    else if ((hclk >= 21800000U) && (hclk < 24000000U))
 80057aa:	4b1d      	ldr	r3, [pc, #116]	; (8005820 <USB_SetTurnaroundTime+0xcc>)
 80057ac:	440b      	add	r3, r1
 80057ae:	4a1d      	ldr	r2, [pc, #116]	; (8005824 <USB_SetTurnaroundTime+0xd0>)
 80057b0:	4293      	cmp	r3, r2
 80057b2:	d317      	bcc.n	80057e4 <USB_SetTurnaroundTime+0x90>
    else if ((hclk >= 24000000U) && (hclk < 27700000U))
 80057b4:	4b1c      	ldr	r3, [pc, #112]	; (8005828 <USB_SetTurnaroundTime+0xd4>)
 80057b6:	440b      	add	r3, r1
 80057b8:	4a1c      	ldr	r2, [pc, #112]	; (800582c <USB_SetTurnaroundTime+0xd8>)
 80057ba:	4293      	cmp	r3, r2
 80057bc:	d314      	bcc.n	80057e8 <USB_SetTurnaroundTime+0x94>
    else if ((hclk >= 27700000U) && (hclk < 32000000U))
 80057be:	4b1c      	ldr	r3, [pc, #112]	; (8005830 <USB_SetTurnaroundTime+0xdc>)
 80057c0:	440b      	add	r3, r1
 80057c2:	4a1c      	ldr	r2, [pc, #112]	; (8005834 <USB_SetTurnaroundTime+0xe0>)
 80057c4:	4293      	cmp	r3, r2
 80057c6:	d211      	bcs.n	80057ec <USB_SetTurnaroundTime+0x98>
      UsbTrd = 0x7U;
 80057c8:	2107      	movs	r1, #7
 80057ca:	e7c6      	b.n	800575a <USB_SetTurnaroundTime+0x6>
      UsbTrd = 0xFU;
 80057cc:	210f      	movs	r1, #15
 80057ce:	e7c4      	b.n	800575a <USB_SetTurnaroundTime+0x6>
      UsbTrd = 0xEU;
 80057d0:	210e      	movs	r1, #14
 80057d2:	e7c2      	b.n	800575a <USB_SetTurnaroundTime+0x6>
      UsbTrd = 0xDU;
 80057d4:	210d      	movs	r1, #13
 80057d6:	e7c0      	b.n	800575a <USB_SetTurnaroundTime+0x6>
      UsbTrd = 0xCU;
 80057d8:	210c      	movs	r1, #12
 80057da:	e7be      	b.n	800575a <USB_SetTurnaroundTime+0x6>
      UsbTrd = 0xBU;
 80057dc:	210b      	movs	r1, #11
 80057de:	e7bc      	b.n	800575a <USB_SetTurnaroundTime+0x6>
      UsbTrd = 0xAU;
 80057e0:	210a      	movs	r1, #10
 80057e2:	e7ba      	b.n	800575a <USB_SetTurnaroundTime+0x6>
      UsbTrd = 0x9U;
 80057e4:	2109      	movs	r1, #9
 80057e6:	e7b8      	b.n	800575a <USB_SetTurnaroundTime+0x6>
      UsbTrd = 0x8U;
 80057e8:	2108      	movs	r1, #8
 80057ea:	e7b6      	b.n	800575a <USB_SetTurnaroundTime+0x6>
      UsbTrd = 0x6U;
 80057ec:	2106      	movs	r1, #6
 80057ee:	e7b4      	b.n	800575a <USB_SetTurnaroundTime+0x6>
 80057f0:	ff275340 	.word	0xff275340
 80057f4:	000c34ff 	.word	0x000c34ff
 80057f8:	ff1b1e40 	.word	0xff1b1e40
 80057fc:	000f423f 	.word	0x000f423f
 8005800:	ff0bdc00 	.word	0xff0bdc00
 8005804:	00124f7f 	.word	0x00124f7f
 8005808:	fef98c80 	.word	0xfef98c80
 800580c:	0013d620 	.word	0x0013d620
 8005810:	fee5b660 	.word	0xfee5b660
 8005814:	0016e35f 	.word	0x0016e35f
 8005818:	feced300 	.word	0xfeced300
 800581c:	001b7740 	.word	0x001b7740
 8005820:	feb35bc0 	.word	0xfeb35bc0
 8005824:	002191c0 	.word	0x002191c0
 8005828:	fe91ca00 	.word	0xfe91ca00
 800582c:	00387520 	.word	0x00387520
 8005830:	fe5954e0 	.word	0xfe5954e0
 8005834:	00419ce0 	.word	0x00419ce0

08005838 <USB_EnableGlobalInt>:
  USBx->GAHBCFG |= USB_OTG_GAHBCFG_GINT;
 8005838:	6883      	ldr	r3, [r0, #8]
 800583a:	f043 0301 	orr.w	r3, r3, #1
 800583e:	6083      	str	r3, [r0, #8]
}
 8005840:	2000      	movs	r0, #0
 8005842:	4770      	bx	lr

08005844 <USB_DisableGlobalInt>:
  USBx->GAHBCFG &= ~USB_OTG_GAHBCFG_GINT;
 8005844:	6883      	ldr	r3, [r0, #8]
 8005846:	f023 0301 	bic.w	r3, r3, #1
 800584a:	6083      	str	r3, [r0, #8]
}
 800584c:	2000      	movs	r0, #0
 800584e:	4770      	bx	lr

08005850 <USB_SetCurrentMode>:
{
 8005850:	b508      	push	{r3, lr}
  USBx->GUSBCFG &= ~(USB_OTG_GUSBCFG_FHMOD | USB_OTG_GUSBCFG_FDMOD);
 8005852:	68c3      	ldr	r3, [r0, #12]
 8005854:	f023 43c0 	bic.w	r3, r3, #1610612736	; 0x60000000
 8005858:	60c3      	str	r3, [r0, #12]
  if (mode == USB_HOST_MODE)
 800585a:	2901      	cmp	r1, #1
 800585c:	d009      	beq.n	8005872 <USB_SetCurrentMode+0x22>
  else if (mode == USB_DEVICE_MODE)
 800585e:	b969      	cbnz	r1, 800587c <USB_SetCurrentMode+0x2c>
    USBx->GUSBCFG |= USB_OTG_GUSBCFG_FDMOD;
 8005860:	68c3      	ldr	r3, [r0, #12]
 8005862:	f043 4380 	orr.w	r3, r3, #1073741824	; 0x40000000
 8005866:	60c3      	str	r3, [r0, #12]
  HAL_Delay(50U);
 8005868:	2032      	movs	r0, #50	; 0x32
 800586a:	f7fa ff45 	bl	80006f8 <HAL_Delay>
  return HAL_OK;
 800586e:	2000      	movs	r0, #0
}
 8005870:	bd08      	pop	{r3, pc}
    USBx->GUSBCFG |= USB_OTG_GUSBCFG_FHMOD;
 8005872:	68c3      	ldr	r3, [r0, #12]
 8005874:	f043 5300 	orr.w	r3, r3, #536870912	; 0x20000000
 8005878:	60c3      	str	r3, [r0, #12]
 800587a:	e7f5      	b.n	8005868 <USB_SetCurrentMode+0x18>
    return HAL_ERROR;
 800587c:	2001      	movs	r0, #1
 800587e:	e7f7      	b.n	8005870 <USB_SetCurrentMode+0x20>

08005880 <USB_FlushTxFifo>:
  USBx->GRSTCTL = (USB_OTG_GRSTCTL_TXFFLSH | (num << 6));
 8005880:	0189      	lsls	r1, r1, #6
 8005882:	f041 0120 	orr.w	r1, r1, #32
 8005886:	6101      	str	r1, [r0, #16]
  uint32_t count = 0U;
 8005888:	2300      	movs	r3, #0
    if (++count > 200000U)
 800588a:	3301      	adds	r3, #1
 800588c:	4a05      	ldr	r2, [pc, #20]	; (80058a4 <USB_FlushTxFifo+0x24>)
 800588e:	4293      	cmp	r3, r2
 8005890:	d805      	bhi.n	800589e <USB_FlushTxFifo+0x1e>
  while ((USBx->GRSTCTL & USB_OTG_GRSTCTL_TXFFLSH) == USB_OTG_GRSTCTL_TXFFLSH);
 8005892:	6902      	ldr	r2, [r0, #16]
 8005894:	f012 0f20 	tst.w	r2, #32
 8005898:	d1f7      	bne.n	800588a <USB_FlushTxFifo+0xa>
  return HAL_OK;
 800589a:	2000      	movs	r0, #0
 800589c:	4770      	bx	lr
      return HAL_TIMEOUT;
 800589e:	2003      	movs	r0, #3
}
 80058a0:	4770      	bx	lr
 80058a2:	bf00      	nop
 80058a4:	00030d40 	.word	0x00030d40

080058a8 <USB_FlushRxFifo>:
  USBx->GRSTCTL = USB_OTG_GRSTCTL_RXFFLSH;
 80058a8:	2310      	movs	r3, #16
 80058aa:	6103      	str	r3, [r0, #16]
  uint32_t count = 0;
 80058ac:	2300      	movs	r3, #0
    if (++count > 200000U)
 80058ae:	3301      	adds	r3, #1
 80058b0:	4a05      	ldr	r2, [pc, #20]	; (80058c8 <USB_FlushRxFifo+0x20>)
 80058b2:	4293      	cmp	r3, r2
 80058b4:	d805      	bhi.n	80058c2 <USB_FlushRxFifo+0x1a>
  while ((USBx->GRSTCTL & USB_OTG_GRSTCTL_RXFFLSH) == USB_OTG_GRSTCTL_RXFFLSH);
 80058b6:	6902      	ldr	r2, [r0, #16]
 80058b8:	f012 0f10 	tst.w	r2, #16
 80058bc:	d1f7      	bne.n	80058ae <USB_FlushRxFifo+0x6>
  return HAL_OK;
 80058be:	2000      	movs	r0, #0
 80058c0:	4770      	bx	lr
      return HAL_TIMEOUT;
 80058c2:	2003      	movs	r0, #3
}
 80058c4:	4770      	bx	lr
 80058c6:	bf00      	nop
 80058c8:	00030d40 	.word	0x00030d40

080058cc <USB_SetDevSpeed>:
  USBx_DEVICE->DCFG |= speed;
 80058cc:	f8d0 3800 	ldr.w	r3, [r0, #2048]	; 0x800
 80058d0:	4319      	orrs	r1, r3
 80058d2:	f8c0 1800 	str.w	r1, [r0, #2048]	; 0x800
}
 80058d6:	2000      	movs	r0, #0
 80058d8:	4770      	bx	lr
	...

080058dc <USB_DevInit>:
{
 80058dc:	b084      	sub	sp, #16
 80058de:	e92d 43f8 	stmdb	sp!, {r3, r4, r5, r6, r7, r8, r9, lr}
 80058e2:	4604      	mov	r4, r0
 80058e4:	a809      	add	r0, sp, #36	; 0x24
 80058e6:	e880 000e 	stmia.w	r0, {r1, r2, r3}
  uint32_t USBx_BASE = (uint32_t)USBx;
 80058ea:	4625      	mov	r5, r4
  for (i = 0U; i < 15U; i++)
 80058ec:	2300      	movs	r3, #0
 80058ee:	e006      	b.n	80058fe <USB_DevInit+0x22>
    USBx->DIEPTXF[i] = 0U;
 80058f0:	f103 0240 	add.w	r2, r3, #64	; 0x40
 80058f4:	eb04 0282 	add.w	r2, r4, r2, lsl #2
 80058f8:	2100      	movs	r1, #0
 80058fa:	6051      	str	r1, [r2, #4]
  for (i = 0U; i < 15U; i++)
 80058fc:	3301      	adds	r3, #1
 80058fe:	2b0e      	cmp	r3, #14
 8005900:	d9f6      	bls.n	80058f0 <USB_DevInit+0x14>
  if (cfg.vbus_sensing_enable == 0U)
 8005902:	f8dd 804c 	ldr.w	r8, [sp, #76]	; 0x4c
 8005906:	f1b8 0f00 	cmp.w	r8, #0
 800590a:	d124      	bne.n	8005956 <USB_DevInit+0x7a>
    USBx_DEVICE->DCTL |= USB_OTG_DCTL_SDIS;
 800590c:	f8d4 3804 	ldr.w	r3, [r4, #2052]	; 0x804
 8005910:	f043 0302 	orr.w	r3, r3, #2
 8005914:	f8c4 3804 	str.w	r3, [r4, #2052]	; 0x804
    USBx->GCCFG &= ~USB_OTG_GCCFG_VBDEN;
 8005918:	6ba3      	ldr	r3, [r4, #56]	; 0x38
 800591a:	f423 1300 	bic.w	r3, r3, #2097152	; 0x200000
 800591e:	63a3      	str	r3, [r4, #56]	; 0x38
    USBx->GOTGCTL |= USB_OTG_GOTGCTL_BVALOEN;
 8005920:	6823      	ldr	r3, [r4, #0]
 8005922:	f043 0340 	orr.w	r3, r3, #64	; 0x40
 8005926:	6023      	str	r3, [r4, #0]
    USBx->GOTGCTL |= USB_OTG_GOTGCTL_BVALOVAL;
 8005928:	6823      	ldr	r3, [r4, #0]
 800592a:	f043 0380 	orr.w	r3, r3, #128	; 0x80
 800592e:	6023      	str	r3, [r4, #0]
  USBx_PCGCCTL = 0U;
 8005930:	2300      	movs	r3, #0
 8005932:	f8c4 3e00 	str.w	r3, [r4, #3584]	; 0xe00
  USBx_DEVICE->DCFG |= DCFG_FRAME_INTERVAL_80;
 8005936:	f504 6600 	add.w	r6, r4, #2048	; 0x800
 800593a:	f8d4 3800 	ldr.w	r3, [r4, #2048]	; 0x800
 800593e:	f8c4 3800 	str.w	r3, [r4, #2048]	; 0x800
  if (cfg.phy_itface == USB_OTG_ULPI_PHY)
 8005942:	9b0e      	ldr	r3, [sp, #56]	; 0x38
 8005944:	2b01      	cmp	r3, #1
 8005946:	d110      	bne.n	800596a <USB_DevInit+0x8e>
    if (cfg.speed == USBD_HS_SPEED)
 8005948:	9b0b      	ldr	r3, [sp, #44]	; 0x2c
 800594a:	b94b      	cbnz	r3, 8005960 <USB_DevInit+0x84>
      (void)USB_SetDevSpeed(USBx, USB_OTG_SPEED_HIGH);
 800594c:	2100      	movs	r1, #0
 800594e:	4620      	mov	r0, r4
 8005950:	f7ff ffbc 	bl	80058cc <USB_SetDevSpeed>
 8005954:	e00d      	b.n	8005972 <USB_DevInit+0x96>
    USBx->GCCFG |= USB_OTG_GCCFG_VBDEN;
 8005956:	6ba3      	ldr	r3, [r4, #56]	; 0x38
 8005958:	f443 1300 	orr.w	r3, r3, #2097152	; 0x200000
 800595c:	63a3      	str	r3, [r4, #56]	; 0x38
 800595e:	e7e7      	b.n	8005930 <USB_DevInit+0x54>
      (void)USB_SetDevSpeed(USBx, USB_OTG_SPEED_HIGH_IN_FULL);
 8005960:	2101      	movs	r1, #1
 8005962:	4620      	mov	r0, r4
 8005964:	f7ff ffb2 	bl	80058cc <USB_SetDevSpeed>
 8005968:	e003      	b.n	8005972 <USB_DevInit+0x96>
    (void)USB_SetDevSpeed(USBx, USB_OTG_SPEED_FULL);
 800596a:	2103      	movs	r1, #3
 800596c:	4620      	mov	r0, r4
 800596e:	f7ff ffad 	bl	80058cc <USB_SetDevSpeed>
  if (USB_FlushTxFifo(USBx, 0x10U) != HAL_OK) /* all Tx FIFOs */
 8005972:	2110      	movs	r1, #16
 8005974:	4620      	mov	r0, r4
 8005976:	f7ff ff83 	bl	8005880 <USB_FlushTxFifo>
 800597a:	4681      	mov	r9, r0
 800597c:	b108      	cbz	r0, 8005982 <USB_DevInit+0xa6>
    ret = HAL_ERROR;
 800597e:	f04f 0901 	mov.w	r9, #1
  if (USB_FlushRxFifo(USBx) != HAL_OK)
 8005982:	4620      	mov	r0, r4
 8005984:	f7ff ff90 	bl	80058a8 <USB_FlushRxFifo>
 8005988:	b108      	cbz	r0, 800598e <USB_DevInit+0xb2>
    ret = HAL_ERROR;
 800598a:	f04f 0901 	mov.w	r9, #1
  USBx_DEVICE->DIEPMSK = 0U;
 800598e:	2300      	movs	r3, #0
 8005990:	6133      	str	r3, [r6, #16]
  USBx_DEVICE->DOEPMSK = 0U;
 8005992:	6173      	str	r3, [r6, #20]
  USBx_DEVICE->DAINTMSK = 0U;
 8005994:	61f3      	str	r3, [r6, #28]
  for (i = 0U; i < cfg.dev_endpoints; i++)
 8005996:	e00a      	b.n	80059ae <USB_DevInit+0xd2>
      if (i == 0U)
 8005998:	b9c3      	cbnz	r3, 80059cc <USB_DevInit+0xf0>
        USBx_INEP(i)->DIEPCTL = USB_OTG_DIEPCTL_SNAK;
 800599a:	f04f 6000 	mov.w	r0, #134217728	; 0x8000000
 800599e:	f8c2 0900 	str.w	r0, [r2, #2304]	; 0x900
    USBx_INEP(i)->DIEPTSIZ = 0U;
 80059a2:	2200      	movs	r2, #0
 80059a4:	610a      	str	r2, [r1, #16]
    USBx_INEP(i)->DIEPINT  = 0xFB7FU;
 80059a6:	f64f 327f 	movw	r2, #64383	; 0xfb7f
 80059aa:	608a      	str	r2, [r1, #8]
  for (i = 0U; i < cfg.dev_endpoints; i++)
 80059ac:	3301      	adds	r3, #1
 80059ae:	9f09      	ldr	r7, [sp, #36]	; 0x24
 80059b0:	429f      	cmp	r7, r3
 80059b2:	d910      	bls.n	80059d6 <USB_DevInit+0xfa>
    if ((USBx_INEP(i)->DIEPCTL & USB_OTG_DIEPCTL_EPENA) == USB_OTG_DIEPCTL_EPENA)
 80059b4:	eb05 1243 	add.w	r2, r5, r3, lsl #5
 80059b8:	f502 6110 	add.w	r1, r2, #2304	; 0x900
 80059bc:	f8d2 0900 	ldr.w	r0, [r2, #2304]	; 0x900
 80059c0:	2800      	cmp	r0, #0
 80059c2:	dbe9      	blt.n	8005998 <USB_DevInit+0xbc>
      USBx_INEP(i)->DIEPCTL = 0U;
 80059c4:	2000      	movs	r0, #0
 80059c6:	f8c2 0900 	str.w	r0, [r2, #2304]	; 0x900
 80059ca:	e7ea      	b.n	80059a2 <USB_DevInit+0xc6>
        USBx_INEP(i)->DIEPCTL = USB_OTG_DIEPCTL_EPDIS | USB_OTG_DIEPCTL_SNAK;
 80059cc:	f04f 4090 	mov.w	r0, #1207959552	; 0x48000000
 80059d0:	f8c2 0900 	str.w	r0, [r2, #2304]	; 0x900
 80059d4:	e7e5      	b.n	80059a2 <USB_DevInit+0xc6>
  for (i = 0U; i < cfg.dev_endpoints; i++)
 80059d6:	2300      	movs	r3, #0
 80059d8:	e00a      	b.n	80059f0 <USB_DevInit+0x114>
      if (i == 0U)
 80059da:	b1bb      	cbz	r3, 8005a0c <USB_DevInit+0x130>
        USBx_OUTEP(i)->DOEPCTL = USB_OTG_DOEPCTL_EPDIS | USB_OTG_DOEPCTL_SNAK;
 80059dc:	f04f 4090 	mov.w	r0, #1207959552	; 0x48000000
 80059e0:	f8c2 0b00 	str.w	r0, [r2, #2816]	; 0xb00
    USBx_OUTEP(i)->DOEPTSIZ = 0U;
 80059e4:	2200      	movs	r2, #0
 80059e6:	610a      	str	r2, [r1, #16]
    USBx_OUTEP(i)->DOEPINT  = 0xFB7FU;
 80059e8:	f64f 327f 	movw	r2, #64383	; 0xfb7f
 80059ec:	608a      	str	r2, [r1, #8]
  for (i = 0U; i < cfg.dev_endpoints; i++)
 80059ee:	3301      	adds	r3, #1
 80059f0:	429f      	cmp	r7, r3
 80059f2:	d910      	bls.n	8005a16 <USB_DevInit+0x13a>
    if ((USBx_OUTEP(i)->DOEPCTL & USB_OTG_DOEPCTL_EPENA) == USB_OTG_DOEPCTL_EPENA)
 80059f4:	eb05 1243 	add.w	r2, r5, r3, lsl #5
 80059f8:	f502 6130 	add.w	r1, r2, #2816	; 0xb00
 80059fc:	f8d2 0b00 	ldr.w	r0, [r2, #2816]	; 0xb00
 8005a00:	2800      	cmp	r0, #0
 8005a02:	dbea      	blt.n	80059da <USB_DevInit+0xfe>
      USBx_OUTEP(i)->DOEPCTL = 0U;
 8005a04:	2000      	movs	r0, #0
 8005a06:	f8c2 0b00 	str.w	r0, [r2, #2816]	; 0xb00
 8005a0a:	e7eb      	b.n	80059e4 <USB_DevInit+0x108>
        USBx_OUTEP(i)->DOEPCTL = USB_OTG_DOEPCTL_SNAK;
 8005a0c:	f04f 6000 	mov.w	r0, #134217728	; 0x8000000
 8005a10:	f8c2 0b00 	str.w	r0, [r2, #2816]	; 0xb00
 8005a14:	e7e6      	b.n	80059e4 <USB_DevInit+0x108>
  USBx_DEVICE->DIEPMSK &= ~(USB_OTG_DIEPMSK_TXFURM);
 8005a16:	6933      	ldr	r3, [r6, #16]
 8005a18:	f423 7380 	bic.w	r3, r3, #256	; 0x100
 8005a1c:	6133      	str	r3, [r6, #16]
  USBx->GINTMSK = 0U;
 8005a1e:	2300      	movs	r3, #0
 8005a20:	61a3      	str	r3, [r4, #24]
  USBx->GINTSTS = 0xBFFFFFFFU;
 8005a22:	f06f 4380 	mvn.w	r3, #1073741824	; 0x40000000
 8005a26:	6163      	str	r3, [r4, #20]
  if (cfg.dma_enable == 0U)
 8005a28:	9b0c      	ldr	r3, [sp, #48]	; 0x30
 8005a2a:	b91b      	cbnz	r3, 8005a34 <USB_DevInit+0x158>
    USBx->GINTMSK |= USB_OTG_GINTMSK_RXFLVLM;
 8005a2c:	69a3      	ldr	r3, [r4, #24]
 8005a2e:	f043 0310 	orr.w	r3, r3, #16
 8005a32:	61a3      	str	r3, [r4, #24]
  USBx->GINTMSK |= USB_OTG_GINTMSK_USBSUSPM | USB_OTG_GINTMSK_USBRST |
 8005a34:	69a2      	ldr	r2, [r4, #24]
 8005a36:	4b0b      	ldr	r3, [pc, #44]	; (8005a64 <USB_DevInit+0x188>)
 8005a38:	4313      	orrs	r3, r2
 8005a3a:	61a3      	str	r3, [r4, #24]
  if (cfg.Sof_enable != 0U)
 8005a3c:	9b0f      	ldr	r3, [sp, #60]	; 0x3c
 8005a3e:	b11b      	cbz	r3, 8005a48 <USB_DevInit+0x16c>
    USBx->GINTMSK |= USB_OTG_GINTMSK_SOFM;
 8005a40:	69a3      	ldr	r3, [r4, #24]
 8005a42:	f043 0308 	orr.w	r3, r3, #8
 8005a46:	61a3      	str	r3, [r4, #24]
  if (cfg.vbus_sensing_enable == 1U)
 8005a48:	f1b8 0f01 	cmp.w	r8, #1
 8005a4c:	d004      	beq.n	8005a58 <USB_DevInit+0x17c>
}
 8005a4e:	4648      	mov	r0, r9
 8005a50:	e8bd 43f8 	ldmia.w	sp!, {r3, r4, r5, r6, r7, r8, r9, lr}
 8005a54:	b004      	add	sp, #16
 8005a56:	4770      	bx	lr
    USBx->GINTMSK |= (USB_OTG_GINTMSK_SRQIM | USB_OTG_GINTMSK_OTGINT);
 8005a58:	69a2      	ldr	r2, [r4, #24]
 8005a5a:	4b03      	ldr	r3, [pc, #12]	; (8005a68 <USB_DevInit+0x18c>)
 8005a5c:	4313      	orrs	r3, r2
 8005a5e:	61a3      	str	r3, [r4, #24]
 8005a60:	e7f5      	b.n	8005a4e <USB_DevInit+0x172>
 8005a62:	bf00      	nop
 8005a64:	803c3800 	.word	0x803c3800
 8005a68:	40000004 	.word	0x40000004

08005a6c <USB_GetDevSpeed>:
  uint32_t DevEnumSpeed = USBx_DEVICE->DSTS & USB_OTG_DSTS_ENUMSPD;
 8005a6c:	f8d0 3808 	ldr.w	r3, [r0, #2056]	; 0x808
  if (DevEnumSpeed == DSTS_ENUMSPD_HS_PHY_30MHZ_OR_60MHZ)
 8005a70:	f013 0306 	ands.w	r3, r3, #6
 8005a74:	d005      	beq.n	8005a82 <USB_GetDevSpeed+0x16>
  else if ((DevEnumSpeed == DSTS_ENUMSPD_FS_PHY_30MHZ_OR_60MHZ) ||
 8005a76:	2b06      	cmp	r3, #6
 8005a78:	bf18      	it	ne
 8005a7a:	2b02      	cmpne	r3, #2
 8005a7c:	d103      	bne.n	8005a86 <USB_GetDevSpeed+0x1a>
    speed = USBD_FS_SPEED;
 8005a7e:	2002      	movs	r0, #2
 8005a80:	4770      	bx	lr
    speed = USBD_HS_SPEED;
 8005a82:	2000      	movs	r0, #0
 8005a84:	4770      	bx	lr
    speed = 0xFU;
 8005a86:	200f      	movs	r0, #15
}
 8005a88:	4770      	bx	lr
	...

08005a8c <USB_ActivateEndpoint>:
{
 8005a8c:	b470      	push	{r4, r5, r6}
  uint32_t epnum = (uint32_t)ep->num;
 8005a8e:	780c      	ldrb	r4, [r1, #0]
  if (ep->is_in == 1U)
 8005a90:	784b      	ldrb	r3, [r1, #1]
 8005a92:	2b01      	cmp	r3, #1
 8005a94:	d020      	beq.n	8005ad8 <USB_ActivateEndpoint+0x4c>
    USBx_DEVICE->DAINTMSK |= USB_OTG_DAINTMSK_OEPM & ((uint32_t)(1UL << (ep->num & EP_ADDR_MSK)) << 16);
 8005a96:	f8d0 381c 	ldr.w	r3, [r0, #2076]	; 0x81c
 8005a9a:	f004 060f 	and.w	r6, r4, #15
 8005a9e:	2201      	movs	r2, #1
 8005aa0:	40b2      	lsls	r2, r6
 8005aa2:	ea43 4302 	orr.w	r3, r3, r2, lsl #16
 8005aa6:	f8c0 381c 	str.w	r3, [r0, #2076]	; 0x81c
    if (((USBx_OUTEP(epnum)->DOEPCTL) & USB_OTG_DOEPCTL_USBAEP) == 0U)
 8005aaa:	eb00 1044 	add.w	r0, r0, r4, lsl #5
 8005aae:	f8d0 3b00 	ldr.w	r3, [r0, #2816]	; 0xb00
 8005ab2:	f413 4f00 	tst.w	r3, #32768	; 0x8000
 8005ab6:	d10c      	bne.n	8005ad2 <USB_ActivateEndpoint+0x46>
      USBx_OUTEP(epnum)->DOEPCTL |= (ep->maxpacket & USB_OTG_DOEPCTL_MPSIZ) |
 8005ab8:	f8d0 2b00 	ldr.w	r2, [r0, #2816]	; 0xb00
 8005abc:	688b      	ldr	r3, [r1, #8]
 8005abe:	f3c3 030a 	ubfx	r3, r3, #0, #11
                                    ((uint32_t)ep->type << 18) |
 8005ac2:	78c9      	ldrb	r1, [r1, #3]
      USBx_OUTEP(epnum)->DOEPCTL |= (ep->maxpacket & USB_OTG_DOEPCTL_MPSIZ) |
 8005ac4:	ea43 4381 	orr.w	r3, r3, r1, lsl #18
 8005ac8:	4313      	orrs	r3, r2
 8005aca:	4a13      	ldr	r2, [pc, #76]	; (8005b18 <USB_ActivateEndpoint+0x8c>)
 8005acc:	431a      	orrs	r2, r3
 8005ace:	f8c0 2b00 	str.w	r2, [r0, #2816]	; 0xb00
}
 8005ad2:	2000      	movs	r0, #0
 8005ad4:	bc70      	pop	{r4, r5, r6}
 8005ad6:	4770      	bx	lr
    USBx_DEVICE->DAINTMSK |= USB_OTG_DAINTMSK_IEPM & (uint32_t)(1UL << (ep->num & EP_ADDR_MSK));
 8005ad8:	f8d0 281c 	ldr.w	r2, [r0, #2076]	; 0x81c
 8005adc:	f004 060f 	and.w	r6, r4, #15
 8005ae0:	40b3      	lsls	r3, r6
 8005ae2:	b29b      	uxth	r3, r3
 8005ae4:	4313      	orrs	r3, r2
 8005ae6:	f8c0 381c 	str.w	r3, [r0, #2076]	; 0x81c
    if ((USBx_INEP(epnum)->DIEPCTL & USB_OTG_DIEPCTL_USBAEP) == 0U)
 8005aea:	eb00 1044 	add.w	r0, r0, r4, lsl #5
 8005aee:	f8d0 3900 	ldr.w	r3, [r0, #2304]	; 0x900
 8005af2:	f413 4f00 	tst.w	r3, #32768	; 0x8000
 8005af6:	d1ec      	bne.n	8005ad2 <USB_ActivateEndpoint+0x46>
      USBx_INEP(epnum)->DIEPCTL |= (ep->maxpacket & USB_OTG_DIEPCTL_MPSIZ) |
 8005af8:	f8d0 2900 	ldr.w	r2, [r0, #2304]	; 0x900
 8005afc:	688b      	ldr	r3, [r1, #8]
 8005afe:	f3c3 030a 	ubfx	r3, r3, #0, #11
                                   ((uint32_t)ep->type << 18) | (epnum << 22) |
 8005b02:	78c9      	ldrb	r1, [r1, #3]
      USBx_INEP(epnum)->DIEPCTL |= (ep->maxpacket & USB_OTG_DIEPCTL_MPSIZ) |
 8005b04:	ea43 4381 	orr.w	r3, r3, r1, lsl #18
                                   ((uint32_t)ep->type << 18) | (epnum << 22) |
 8005b08:	ea43 5484 	orr.w	r4, r3, r4, lsl #22
      USBx_INEP(epnum)->DIEPCTL |= (ep->maxpacket & USB_OTG_DIEPCTL_MPSIZ) |
 8005b0c:	4314      	orrs	r4, r2
 8005b0e:	4b02      	ldr	r3, [pc, #8]	; (8005b18 <USB_ActivateEndpoint+0x8c>)
 8005b10:	4323      	orrs	r3, r4
 8005b12:	f8c0 3900 	str.w	r3, [r0, #2304]	; 0x900
 8005b16:	e7dc      	b.n	8005ad2 <USB_ActivateEndpoint+0x46>
 8005b18:	10008000 	.word	0x10008000

08005b1c <USB_DeactivateEndpoint>:
{
 8005b1c:	b430      	push	{r4, r5}
  uint32_t epnum = (uint32_t)ep->num;
 8005b1e:	780b      	ldrb	r3, [r1, #0]
  if (ep->is_in == 1U)
 8005b20:	784a      	ldrb	r2, [r1, #1]
 8005b22:	2a01      	cmp	r2, #1
 8005b24:	d024      	beq.n	8005b70 <USB_DeactivateEndpoint+0x54>
    if ((USBx_OUTEP(epnum)->DOEPCTL & USB_OTG_DOEPCTL_EPENA) == USB_OTG_DOEPCTL_EPENA)
 8005b26:	eb00 1343 	add.w	r3, r0, r3, lsl #5
 8005b2a:	f8d3 2b00 	ldr.w	r2, [r3, #2816]	; 0xb00
 8005b2e:	2a00      	cmp	r2, #0
 8005b30:	db50      	blt.n	8005bd4 <USB_DeactivateEndpoint+0xb8>
    USBx_DEVICE->DEACHMSK &= ~(USB_OTG_DAINTMSK_OEPM & ((uint32_t)(1UL << (ep->num & EP_ADDR_MSK)) << 16));
 8005b32:	f8d0 583c 	ldr.w	r5, [r0, #2108]	; 0x83c
 8005b36:	780a      	ldrb	r2, [r1, #0]
 8005b38:	f002 020f 	and.w	r2, r2, #15
 8005b3c:	2401      	movs	r4, #1
 8005b3e:	fa04 f202 	lsl.w	r2, r4, r2
 8005b42:	ea25 4202 	bic.w	r2, r5, r2, lsl #16
 8005b46:	f8c0 283c 	str.w	r2, [r0, #2108]	; 0x83c
    USBx_DEVICE->DAINTMSK &= ~(USB_OTG_DAINTMSK_OEPM & ((uint32_t)(1UL << (ep->num & EP_ADDR_MSK)) << 16));
 8005b4a:	f8d0 281c 	ldr.w	r2, [r0, #2076]	; 0x81c
 8005b4e:	7809      	ldrb	r1, [r1, #0]
 8005b50:	f001 010f 	and.w	r1, r1, #15
 8005b54:	408c      	lsls	r4, r1
 8005b56:	ea22 4404 	bic.w	r4, r2, r4, lsl #16
 8005b5a:	f8c0 481c 	str.w	r4, [r0, #2076]	; 0x81c
    USBx_OUTEP(epnum)->DOEPCTL &= ~(USB_OTG_DOEPCTL_USBAEP |
 8005b5e:	f8d3 1b00 	ldr.w	r1, [r3, #2816]	; 0xb00
 8005b62:	4a23      	ldr	r2, [pc, #140]	; (8005bf0 <USB_DeactivateEndpoint+0xd4>)
 8005b64:	400a      	ands	r2, r1
 8005b66:	f8c3 2b00 	str.w	r2, [r3, #2816]	; 0xb00
}
 8005b6a:	2000      	movs	r0, #0
 8005b6c:	bc30      	pop	{r4, r5}
 8005b6e:	4770      	bx	lr
    if ((USBx_INEP(epnum)->DIEPCTL & USB_OTG_DIEPCTL_EPENA) == USB_OTG_DIEPCTL_EPENA)
 8005b70:	eb00 1343 	add.w	r3, r0, r3, lsl #5
 8005b74:	f8d3 2900 	ldr.w	r2, [r3, #2304]	; 0x900
 8005b78:	2a00      	cmp	r2, #0
 8005b7a:	db1e      	blt.n	8005bba <USB_DeactivateEndpoint+0x9e>
    USBx_DEVICE->DEACHMSK &= ~(USB_OTG_DAINTMSK_IEPM & (uint32_t)(1UL << (ep->num & EP_ADDR_MSK)));
 8005b7c:	f8d0 583c 	ldr.w	r5, [r0, #2108]	; 0x83c
 8005b80:	780a      	ldrb	r2, [r1, #0]
 8005b82:	f002 020f 	and.w	r2, r2, #15
 8005b86:	2401      	movs	r4, #1
 8005b88:	fa04 f202 	lsl.w	r2, r4, r2
 8005b8c:	b292      	uxth	r2, r2
 8005b8e:	ea25 0202 	bic.w	r2, r5, r2
 8005b92:	f8c0 283c 	str.w	r2, [r0, #2108]	; 0x83c
    USBx_DEVICE->DAINTMSK &= ~(USB_OTG_DAINTMSK_IEPM & (uint32_t)(1UL << (ep->num & EP_ADDR_MSK)));
 8005b96:	f8d0 281c 	ldr.w	r2, [r0, #2076]	; 0x81c
 8005b9a:	7809      	ldrb	r1, [r1, #0]
 8005b9c:	f001 010f 	and.w	r1, r1, #15
 8005ba0:	408c      	lsls	r4, r1
 8005ba2:	b2a4      	uxth	r4, r4
 8005ba4:	ea22 0404 	bic.w	r4, r2, r4
 8005ba8:	f8c0 481c 	str.w	r4, [r0, #2076]	; 0x81c
    USBx_INEP(epnum)->DIEPCTL &= ~(USB_OTG_DIEPCTL_USBAEP |
 8005bac:	f8d3 1900 	ldr.w	r1, [r3, #2304]	; 0x900
 8005bb0:	4a10      	ldr	r2, [pc, #64]	; (8005bf4 <USB_DeactivateEndpoint+0xd8>)
 8005bb2:	400a      	ands	r2, r1
 8005bb4:	f8c3 2900 	str.w	r2, [r3, #2304]	; 0x900
 8005bb8:	e7d7      	b.n	8005b6a <USB_DeactivateEndpoint+0x4e>
      USBx_INEP(epnum)->DIEPCTL |= USB_OTG_DIEPCTL_SNAK;
 8005bba:	f8d3 2900 	ldr.w	r2, [r3, #2304]	; 0x900
 8005bbe:	f042 6200 	orr.w	r2, r2, #134217728	; 0x8000000
 8005bc2:	f8c3 2900 	str.w	r2, [r3, #2304]	; 0x900
      USBx_INEP(epnum)->DIEPCTL |= USB_OTG_DIEPCTL_EPDIS;
 8005bc6:	f8d3 2900 	ldr.w	r2, [r3, #2304]	; 0x900
 8005bca:	f042 4280 	orr.w	r2, r2, #1073741824	; 0x40000000
 8005bce:	f8c3 2900 	str.w	r2, [r3, #2304]	; 0x900
 8005bd2:	e7d3      	b.n	8005b7c <USB_DeactivateEndpoint+0x60>
      USBx_OUTEP(epnum)->DOEPCTL |= USB_OTG_DOEPCTL_SNAK;
 8005bd4:	f8d3 2b00 	ldr.w	r2, [r3, #2816]	; 0xb00
 8005bd8:	f042 6200 	orr.w	r2, r2, #134217728	; 0x8000000
 8005bdc:	f8c3 2b00 	str.w	r2, [r3, #2816]	; 0xb00
      USBx_OUTEP(epnum)->DOEPCTL |= USB_OTG_DOEPCTL_EPDIS;
 8005be0:	f8d3 2b00 	ldr.w	r2, [r3, #2816]	; 0xb00
 8005be4:	f042 4280 	orr.w	r2, r2, #1073741824	; 0x40000000
 8005be8:	f8c3 2b00 	str.w	r2, [r3, #2816]	; 0xb00
 8005bec:	e7a1      	b.n	8005b32 <USB_DeactivateEndpoint+0x16>
 8005bee:	bf00      	nop
 8005bf0:	eff37800 	.word	0xeff37800
 8005bf4:	ec337800 	.word	0xec337800

08005bf8 <USB_EP0StartXfer>:
{
 8005bf8:	b470      	push	{r4, r5, r6}
  uint32_t epnum = (uint32_t)ep->num;
 8005bfa:	780b      	ldrb	r3, [r1, #0]
  if (ep->is_in == 1U)
 8005bfc:	784c      	ldrb	r4, [r1, #1]
 8005bfe:	2c01      	cmp	r4, #1
 8005c00:	d024      	beq.n	8005c4c <USB_EP0StartXfer+0x54>
    USBx_OUTEP(epnum)->DOEPTSIZ &= ~(USB_OTG_DOEPTSIZ_XFRSIZ);
 8005c02:	eb00 1043 	add.w	r0, r0, r3, lsl #5
 8005c06:	f500 6330 	add.w	r3, r0, #2816	; 0xb00
 8005c0a:	691d      	ldr	r5, [r3, #16]
 8005c0c:	4c3e      	ldr	r4, [pc, #248]	; (8005d08 <USB_EP0StartXfer+0x110>)
 8005c0e:	402c      	ands	r4, r5
 8005c10:	611c      	str	r4, [r3, #16]
    USBx_OUTEP(epnum)->DOEPTSIZ &= ~(USB_OTG_DOEPTSIZ_PKTCNT);
 8005c12:	691d      	ldr	r5, [r3, #16]
 8005c14:	4c3d      	ldr	r4, [pc, #244]	; (8005d0c <USB_EP0StartXfer+0x114>)
 8005c16:	402c      	ands	r4, r5
 8005c18:	611c      	str	r4, [r3, #16]
    if (ep->xfer_len > 0U)
 8005c1a:	694c      	ldr	r4, [r1, #20]
 8005c1c:	b10c      	cbz	r4, 8005c22 <USB_EP0StartXfer+0x2a>
      ep->xfer_len = ep->maxpacket;
 8005c1e:	688c      	ldr	r4, [r1, #8]
 8005c20:	614c      	str	r4, [r1, #20]
    USBx_OUTEP(epnum)->DOEPTSIZ |= (USB_OTG_DOEPTSIZ_PKTCNT & (1U << 19));
 8005c22:	691c      	ldr	r4, [r3, #16]
 8005c24:	f444 2400 	orr.w	r4, r4, #524288	; 0x80000
 8005c28:	611c      	str	r4, [r3, #16]
    USBx_OUTEP(epnum)->DOEPTSIZ |= (USB_OTG_DOEPTSIZ_XFRSIZ & (ep->maxpacket));
 8005c2a:	691c      	ldr	r4, [r3, #16]
 8005c2c:	688d      	ldr	r5, [r1, #8]
 8005c2e:	f3c5 0512 	ubfx	r5, r5, #0, #19
 8005c32:	432c      	orrs	r4, r5
 8005c34:	611c      	str	r4, [r3, #16]
    if (dma == 1U)
 8005c36:	2a01      	cmp	r2, #1
 8005c38:	d061      	beq.n	8005cfe <USB_EP0StartXfer+0x106>
    USBx_OUTEP(epnum)->DOEPCTL |= (USB_OTG_DOEPCTL_CNAK | USB_OTG_DOEPCTL_EPENA);
 8005c3a:	f8d0 3b00 	ldr.w	r3, [r0, #2816]	; 0xb00
 8005c3e:	f043 4304 	orr.w	r3, r3, #2214592512	; 0x84000000
 8005c42:	f8c0 3b00 	str.w	r3, [r0, #2816]	; 0xb00
}
 8005c46:	2000      	movs	r0, #0
 8005c48:	bc70      	pop	{r4, r5, r6}
 8005c4a:	4770      	bx	lr
    if (ep->xfer_len == 0U)
 8005c4c:	694c      	ldr	r4, [r1, #20]
 8005c4e:	bb5c      	cbnz	r4, 8005ca8 <USB_EP0StartXfer+0xb0>
      USBx_INEP(epnum)->DIEPTSIZ &= ~(USB_OTG_DIEPTSIZ_PKTCNT);
 8005c50:	eb00 1443 	add.w	r4, r0, r3, lsl #5
 8005c54:	f8d4 6910 	ldr.w	r6, [r4, #2320]	; 0x910
 8005c58:	4d2c      	ldr	r5, [pc, #176]	; (8005d0c <USB_EP0StartXfer+0x114>)
 8005c5a:	4035      	ands	r5, r6
 8005c5c:	f8c4 5910 	str.w	r5, [r4, #2320]	; 0x910
      USBx_INEP(epnum)->DIEPTSIZ |= (USB_OTG_DIEPTSIZ_PKTCNT & (1U << 19));
 8005c60:	f8d4 5910 	ldr.w	r5, [r4, #2320]	; 0x910
 8005c64:	f445 2500 	orr.w	r5, r5, #524288	; 0x80000
 8005c68:	f8c4 5910 	str.w	r5, [r4, #2320]	; 0x910
      USBx_INEP(epnum)->DIEPTSIZ &= ~(USB_OTG_DIEPTSIZ_XFRSIZ);
 8005c6c:	f8d4 6910 	ldr.w	r6, [r4, #2320]	; 0x910
 8005c70:	4d25      	ldr	r5, [pc, #148]	; (8005d08 <USB_EP0StartXfer+0x110>)
 8005c72:	4035      	ands	r5, r6
 8005c74:	f8c4 5910 	str.w	r5, [r4, #2320]	; 0x910
    if (dma == 1U)
 8005c78:	2a01      	cmp	r2, #1
 8005c7a:	d031      	beq.n	8005ce0 <USB_EP0StartXfer+0xe8>
      USBx_INEP(epnum)->DIEPCTL |= (USB_OTG_DIEPCTL_CNAK | USB_OTG_DIEPCTL_EPENA);
 8005c7c:	eb00 1343 	add.w	r3, r0, r3, lsl #5
 8005c80:	f8d3 2900 	ldr.w	r2, [r3, #2304]	; 0x900
 8005c84:	f042 4204 	orr.w	r2, r2, #2214592512	; 0x84000000
 8005c88:	f8c3 2900 	str.w	r2, [r3, #2304]	; 0x900
      if (ep->xfer_len > 0U)
 8005c8c:	694b      	ldr	r3, [r1, #20]
 8005c8e:	2b00      	cmp	r3, #0
 8005c90:	d0d9      	beq.n	8005c46 <USB_EP0StartXfer+0x4e>
        USBx_DEVICE->DIEPEMPMSK |= 1UL << (ep->num & EP_ADDR_MSK);
 8005c92:	f8d0 3834 	ldr.w	r3, [r0, #2100]	; 0x834
 8005c96:	780a      	ldrb	r2, [r1, #0]
 8005c98:	f002 010f 	and.w	r1, r2, #15
 8005c9c:	2201      	movs	r2, #1
 8005c9e:	408a      	lsls	r2, r1
 8005ca0:	4313      	orrs	r3, r2
 8005ca2:	f8c0 3834 	str.w	r3, [r0, #2100]	; 0x834
 8005ca6:	e7ce      	b.n	8005c46 <USB_EP0StartXfer+0x4e>
      USBx_INEP(epnum)->DIEPTSIZ &= ~(USB_OTG_DIEPTSIZ_XFRSIZ);
 8005ca8:	eb00 1443 	add.w	r4, r0, r3, lsl #5
 8005cac:	f504 6410 	add.w	r4, r4, #2304	; 0x900
 8005cb0:	6926      	ldr	r6, [r4, #16]
 8005cb2:	4d15      	ldr	r5, [pc, #84]	; (8005d08 <USB_EP0StartXfer+0x110>)
 8005cb4:	4035      	ands	r5, r6
 8005cb6:	6125      	str	r5, [r4, #16]
      USBx_INEP(epnum)->DIEPTSIZ &= ~(USB_OTG_DIEPTSIZ_PKTCNT);
 8005cb8:	6926      	ldr	r6, [r4, #16]
 8005cba:	4d14      	ldr	r5, [pc, #80]	; (8005d0c <USB_EP0StartXfer+0x114>)
 8005cbc:	4035      	ands	r5, r6
 8005cbe:	6125      	str	r5, [r4, #16]
      if (ep->xfer_len > ep->maxpacket)
 8005cc0:	694e      	ldr	r6, [r1, #20]
 8005cc2:	688d      	ldr	r5, [r1, #8]
 8005cc4:	42ae      	cmp	r6, r5
 8005cc6:	d900      	bls.n	8005cca <USB_EP0StartXfer+0xd2>
        ep->xfer_len = ep->maxpacket;
 8005cc8:	614d      	str	r5, [r1, #20]
      USBx_INEP(epnum)->DIEPTSIZ |= (USB_OTG_DIEPTSIZ_PKTCNT & (1U << 19));
 8005cca:	6925      	ldr	r5, [r4, #16]
 8005ccc:	f445 2500 	orr.w	r5, r5, #524288	; 0x80000
 8005cd0:	6125      	str	r5, [r4, #16]
      USBx_INEP(epnum)->DIEPTSIZ |= (USB_OTG_DIEPTSIZ_XFRSIZ & ep->xfer_len);
 8005cd2:	6925      	ldr	r5, [r4, #16]
 8005cd4:	694e      	ldr	r6, [r1, #20]
 8005cd6:	f3c6 0612 	ubfx	r6, r6, #0, #19
 8005cda:	4335      	orrs	r5, r6
 8005cdc:	6125      	str	r5, [r4, #16]
 8005cde:	e7cb      	b.n	8005c78 <USB_EP0StartXfer+0x80>
      if ((uint32_t)ep->dma_addr != 0U)
 8005ce0:	690a      	ldr	r2, [r1, #16]
 8005ce2:	b11a      	cbz	r2, 8005cec <USB_EP0StartXfer+0xf4>
        USBx_INEP(epnum)->DIEPDMA = (uint32_t)(ep->dma_addr);
 8005ce4:	eb00 1143 	add.w	r1, r0, r3, lsl #5
 8005ce8:	f8c1 2914 	str.w	r2, [r1, #2324]	; 0x914
      USBx_INEP(epnum)->DIEPCTL |= (USB_OTG_DIEPCTL_CNAK | USB_OTG_DIEPCTL_EPENA);
 8005cec:	eb00 1043 	add.w	r0, r0, r3, lsl #5
 8005cf0:	f8d0 2900 	ldr.w	r2, [r0, #2304]	; 0x900
 8005cf4:	f042 4204 	orr.w	r2, r2, #2214592512	; 0x84000000
 8005cf8:	f8c0 2900 	str.w	r2, [r0, #2304]	; 0x900
 8005cfc:	e7a3      	b.n	8005c46 <USB_EP0StartXfer+0x4e>
      if ((uint32_t)ep->xfer_buff != 0U)
 8005cfe:	68ca      	ldr	r2, [r1, #12]
 8005d00:	2a00      	cmp	r2, #0
 8005d02:	d09a      	beq.n	8005c3a <USB_EP0StartXfer+0x42>
        USBx_OUTEP(epnum)->DOEPDMA = (uint32_t)(ep->xfer_buff);
 8005d04:	615a      	str	r2, [r3, #20]
 8005d06:	e798      	b.n	8005c3a <USB_EP0StartXfer+0x42>
 8005d08:	fff80000 	.word	0xfff80000
 8005d0c:	e007ffff 	.word	0xe007ffff

08005d10 <USB_WritePacket>:
{
 8005d10:	b470      	push	{r4, r5, r6}
 8005d12:	f89d 400c 	ldrb.w	r4, [sp, #12]
  if (dma == 0U)
 8005d16:	b964      	cbnz	r4, 8005d32 <USB_WritePacket+0x22>
    count32b = ((uint32_t)len + 3U) / 4U;
 8005d18:	3303      	adds	r3, #3
 8005d1a:	089d      	lsrs	r5, r3, #2
    for (i = 0U; i < count32b; i++)
 8005d1c:	42ac      	cmp	r4, r5
 8005d1e:	d208      	bcs.n	8005d32 <USB_WritePacket+0x22>
      USBx_DFIFO((uint32_t)ch_ep_num) = __UNALIGNED_UINT32_READ(pSrc);
 8005d20:	eb00 3302 	add.w	r3, r0, r2, lsl #12
 8005d24:	f503 5380 	add.w	r3, r3, #4096	; 0x1000
 8005d28:	f851 6b04 	ldr.w	r6, [r1], #4
 8005d2c:	601e      	str	r6, [r3, #0]
    for (i = 0U; i < count32b; i++)
 8005d2e:	3401      	adds	r4, #1
 8005d30:	e7f4      	b.n	8005d1c <USB_WritePacket+0xc>
}
 8005d32:	2000      	movs	r0, #0
 8005d34:	bc70      	pop	{r4, r5, r6}
 8005d36:	4770      	bx	lr

08005d38 <USB_EPStartXfer>:
{
 8005d38:	b5f0      	push	{r4, r5, r6, r7, lr}
 8005d3a:	b083      	sub	sp, #12
  uint32_t epnum = (uint32_t)ep->num;
 8005d3c:	780b      	ldrb	r3, [r1, #0]
  if (ep->is_in == 1U)
 8005d3e:	784c      	ldrb	r4, [r1, #1]
 8005d40:	2c01      	cmp	r4, #1
 8005d42:	d029      	beq.n	8005d98 <USB_EPStartXfer+0x60>
    USBx_OUTEP(epnum)->DOEPTSIZ &= ~(USB_OTG_DOEPTSIZ_XFRSIZ);
 8005d44:	eb00 1343 	add.w	r3, r0, r3, lsl #5
 8005d48:	f503 6430 	add.w	r4, r3, #2816	; 0xb00
 8005d4c:	6926      	ldr	r6, [r4, #16]
 8005d4e:	4d7c      	ldr	r5, [pc, #496]	; (8005f40 <USB_EPStartXfer+0x208>)
 8005d50:	4035      	ands	r5, r6
 8005d52:	6125      	str	r5, [r4, #16]
    USBx_OUTEP(epnum)->DOEPTSIZ &= ~(USB_OTG_DOEPTSIZ_PKTCNT);
 8005d54:	6926      	ldr	r6, [r4, #16]
 8005d56:	4d7b      	ldr	r5, [pc, #492]	; (8005f44 <USB_EPStartXfer+0x20c>)
 8005d58:	4035      	ands	r5, r6
 8005d5a:	6125      	str	r5, [r4, #16]
    if (ep->xfer_len == 0U)
 8005d5c:	694d      	ldr	r5, [r1, #20]
 8005d5e:	2d00      	cmp	r5, #0
 8005d60:	f040 80bf 	bne.w	8005ee2 <USB_EPStartXfer+0x1aa>
      USBx_OUTEP(epnum)->DOEPTSIZ |= (USB_OTG_DOEPTSIZ_XFRSIZ & ep->maxpacket);
 8005d64:	6925      	ldr	r5, [r4, #16]
 8005d66:	688e      	ldr	r6, [r1, #8]
 8005d68:	f3c6 0612 	ubfx	r6, r6, #0, #19
 8005d6c:	4335      	orrs	r5, r6
 8005d6e:	6125      	str	r5, [r4, #16]
      USBx_OUTEP(epnum)->DOEPTSIZ |= (USB_OTG_DOEPTSIZ_PKTCNT & (1U << 19));
 8005d70:	6925      	ldr	r5, [r4, #16]
 8005d72:	f445 2500 	orr.w	r5, r5, #524288	; 0x80000
 8005d76:	6125      	str	r5, [r4, #16]
    if (dma == 1U)
 8005d78:	2a01      	cmp	r2, #1
 8005d7a:	f000 80c7 	beq.w	8005f0c <USB_EPStartXfer+0x1d4>
    if (ep->type == EP_TYPE_ISOC)
 8005d7e:	78ca      	ldrb	r2, [r1, #3]
 8005d80:	2a01      	cmp	r2, #1
 8005d82:	f000 80c9 	beq.w	8005f18 <USB_EPStartXfer+0x1e0>
    USBx_OUTEP(epnum)->DOEPCTL |= (USB_OTG_DOEPCTL_CNAK | USB_OTG_DOEPCTL_EPENA);
 8005d86:	f8d3 2b00 	ldr.w	r2, [r3, #2816]	; 0xb00
 8005d8a:	f042 4204 	orr.w	r2, r2, #2214592512	; 0x84000000
 8005d8e:	f8c3 2b00 	str.w	r2, [r3, #2816]	; 0xb00
}
 8005d92:	2000      	movs	r0, #0
 8005d94:	b003      	add	sp, #12
 8005d96:	bdf0      	pop	{r4, r5, r6, r7, pc}
    if (ep->xfer_len == 0U)
 8005d98:	694c      	ldr	r4, [r1, #20]
 8005d9a:	bb74      	cbnz	r4, 8005dfa <USB_EPStartXfer+0xc2>
      USBx_INEP(epnum)->DIEPTSIZ &= ~(USB_OTG_DIEPTSIZ_PKTCNT);
 8005d9c:	eb00 1443 	add.w	r4, r0, r3, lsl #5
 8005da0:	f8d4 6910 	ldr.w	r6, [r4, #2320]	; 0x910
 8005da4:	4d67      	ldr	r5, [pc, #412]	; (8005f44 <USB_EPStartXfer+0x20c>)
 8005da6:	4035      	ands	r5, r6
 8005da8:	f8c4 5910 	str.w	r5, [r4, #2320]	; 0x910
      USBx_INEP(epnum)->DIEPTSIZ |= (USB_OTG_DIEPTSIZ_PKTCNT & (1U << 19));
 8005dac:	f8d4 5910 	ldr.w	r5, [r4, #2320]	; 0x910
 8005db0:	f445 2500 	orr.w	r5, r5, #524288	; 0x80000
 8005db4:	f8c4 5910 	str.w	r5, [r4, #2320]	; 0x910
      USBx_INEP(epnum)->DIEPTSIZ &= ~(USB_OTG_DIEPTSIZ_XFRSIZ);
 8005db8:	f8d4 6910 	ldr.w	r6, [r4, #2320]	; 0x910
 8005dbc:	4d60      	ldr	r5, [pc, #384]	; (8005f40 <USB_EPStartXfer+0x208>)
 8005dbe:	4035      	ands	r5, r6
 8005dc0:	f8c4 5910 	str.w	r5, [r4, #2320]	; 0x910
    if (dma == 1U)
 8005dc4:	2a01      	cmp	r2, #1
 8005dc6:	d04a      	beq.n	8005e5e <USB_EPStartXfer+0x126>
      USBx_INEP(epnum)->DIEPCTL |= (USB_OTG_DIEPCTL_CNAK | USB_OTG_DIEPCTL_EPENA);
 8005dc8:	eb00 1343 	add.w	r3, r0, r3, lsl #5
 8005dcc:	f8d3 4900 	ldr.w	r4, [r3, #2304]	; 0x900
 8005dd0:	f044 4404 	orr.w	r4, r4, #2214592512	; 0x84000000
 8005dd4:	f8c3 4900 	str.w	r4, [r3, #2304]	; 0x900
      if (ep->type != EP_TYPE_ISOC)
 8005dd8:	78cc      	ldrb	r4, [r1, #3]
 8005dda:	2c01      	cmp	r4, #1
 8005ddc:	d068      	beq.n	8005eb0 <USB_EPStartXfer+0x178>
        if (ep->xfer_len > 0U)
 8005dde:	694b      	ldr	r3, [r1, #20]
 8005de0:	2b00      	cmp	r3, #0
 8005de2:	d0d6      	beq.n	8005d92 <USB_EPStartXfer+0x5a>
          USBx_DEVICE->DIEPEMPMSK |= 1UL << (ep->num & EP_ADDR_MSK);
 8005de4:	f8d0 2834 	ldr.w	r2, [r0, #2100]	; 0x834
 8005de8:	7809      	ldrb	r1, [r1, #0]
 8005dea:	f001 040f 	and.w	r4, r1, #15
 8005dee:	2101      	movs	r1, #1
 8005df0:	40a1      	lsls	r1, r4
 8005df2:	430a      	orrs	r2, r1
 8005df4:	f8c0 2834 	str.w	r2, [r0, #2100]	; 0x834
 8005df8:	e7cb      	b.n	8005d92 <USB_EPStartXfer+0x5a>
      USBx_INEP(epnum)->DIEPTSIZ &= ~(USB_OTG_DIEPTSIZ_XFRSIZ);
 8005dfa:	eb00 1443 	add.w	r4, r0, r3, lsl #5
 8005dfe:	f8d4 6910 	ldr.w	r6, [r4, #2320]	; 0x910
 8005e02:	4d4f      	ldr	r5, [pc, #316]	; (8005f40 <USB_EPStartXfer+0x208>)
 8005e04:	4035      	ands	r5, r6
 8005e06:	f8c4 5910 	str.w	r5, [r4, #2320]	; 0x910
      USBx_INEP(epnum)->DIEPTSIZ &= ~(USB_OTG_DIEPTSIZ_PKTCNT);
 8005e0a:	f8d4 6910 	ldr.w	r6, [r4, #2320]	; 0x910
 8005e0e:	4d4d      	ldr	r5, [pc, #308]	; (8005f44 <USB_EPStartXfer+0x20c>)
 8005e10:	4035      	ands	r5, r6
 8005e12:	f8c4 5910 	str.w	r5, [r4, #2320]	; 0x910
      USBx_INEP(epnum)->DIEPTSIZ |= (USB_OTG_DIEPTSIZ_PKTCNT & (((ep->xfer_len + ep->maxpacket - 1U) / ep->maxpacket) << 19));
 8005e16:	f8d4 6910 	ldr.w	r6, [r4, #2320]	; 0x910
 8005e1a:	694d      	ldr	r5, [r1, #20]
 8005e1c:	688f      	ldr	r7, [r1, #8]
 8005e1e:	443d      	add	r5, r7
 8005e20:	3d01      	subs	r5, #1
 8005e22:	fbb5 f5f7 	udiv	r5, r5, r7
 8005e26:	4f48      	ldr	r7, [pc, #288]	; (8005f48 <USB_EPStartXfer+0x210>)
 8005e28:	ea07 45c5 	and.w	r5, r7, r5, lsl #19
 8005e2c:	4335      	orrs	r5, r6
 8005e2e:	f8c4 5910 	str.w	r5, [r4, #2320]	; 0x910
      USBx_INEP(epnum)->DIEPTSIZ |= (USB_OTG_DIEPTSIZ_XFRSIZ & ep->xfer_len);
 8005e32:	f8d4 5910 	ldr.w	r5, [r4, #2320]	; 0x910
 8005e36:	694e      	ldr	r6, [r1, #20]
 8005e38:	f3c6 0612 	ubfx	r6, r6, #0, #19
 8005e3c:	4335      	orrs	r5, r6
 8005e3e:	f8c4 5910 	str.w	r5, [r4, #2320]	; 0x910
      USBx_INEP(epnum)->DIEPTSIZ &= ~(USB_OTG_DIEPTSIZ_XFRSIZ);
 8005e42:	f504 6410 	add.w	r4, r4, #2304	; 0x900
      if (ep->type == EP_TYPE_ISOC)
 8005e46:	78cd      	ldrb	r5, [r1, #3]
 8005e48:	2d01      	cmp	r5, #1
 8005e4a:	d1bb      	bne.n	8005dc4 <USB_EPStartXfer+0x8c>
        USBx_INEP(epnum)->DIEPTSIZ &= ~(USB_OTG_DIEPTSIZ_MULCNT);
 8005e4c:	6925      	ldr	r5, [r4, #16]
 8005e4e:	f025 45c0 	bic.w	r5, r5, #1610612736	; 0x60000000
 8005e52:	6125      	str	r5, [r4, #16]
        USBx_INEP(epnum)->DIEPTSIZ |= (USB_OTG_DIEPTSIZ_MULCNT & (1U << 29));
 8005e54:	6925      	ldr	r5, [r4, #16]
 8005e56:	f045 5500 	orr.w	r5, r5, #536870912	; 0x20000000
 8005e5a:	6125      	str	r5, [r4, #16]
 8005e5c:	e7b2      	b.n	8005dc4 <USB_EPStartXfer+0x8c>
      if ((uint32_t)ep->dma_addr != 0U)
 8005e5e:	690a      	ldr	r2, [r1, #16]
 8005e60:	b11a      	cbz	r2, 8005e6a <USB_EPStartXfer+0x132>
        USBx_INEP(epnum)->DIEPDMA = (uint32_t)(ep->dma_addr);
 8005e62:	eb00 1443 	add.w	r4, r0, r3, lsl #5
 8005e66:	f8c4 2914 	str.w	r2, [r4, #2324]	; 0x914
      if (ep->type == EP_TYPE_ISOC)
 8005e6a:	78ca      	ldrb	r2, [r1, #3]
 8005e6c:	2a01      	cmp	r2, #1
 8005e6e:	d008      	beq.n	8005e82 <USB_EPStartXfer+0x14a>
      USBx_INEP(epnum)->DIEPCTL |= (USB_OTG_DIEPCTL_CNAK | USB_OTG_DIEPCTL_EPENA);
 8005e70:	eb00 1343 	add.w	r3, r0, r3, lsl #5
 8005e74:	f8d3 2900 	ldr.w	r2, [r3, #2304]	; 0x900
 8005e78:	f042 4204 	orr.w	r2, r2, #2214592512	; 0x84000000
 8005e7c:	f8c3 2900 	str.w	r2, [r3, #2304]	; 0x900
 8005e80:	e787      	b.n	8005d92 <USB_EPStartXfer+0x5a>
        if ((USBx_DEVICE->DSTS & (1U << 8)) == 0U)
 8005e82:	f8d0 2808 	ldr.w	r2, [r0, #2056]	; 0x808
 8005e86:	f412 7f80 	tst.w	r2, #256	; 0x100
 8005e8a:	d108      	bne.n	8005e9e <USB_EPStartXfer+0x166>
          USBx_INEP(epnum)->DIEPCTL |= USB_OTG_DIEPCTL_SODDFRM;
 8005e8c:	eb00 1143 	add.w	r1, r0, r3, lsl #5
 8005e90:	f8d1 2900 	ldr.w	r2, [r1, #2304]	; 0x900
 8005e94:	f042 5200 	orr.w	r2, r2, #536870912	; 0x20000000
 8005e98:	f8c1 2900 	str.w	r2, [r1, #2304]	; 0x900
 8005e9c:	e7e8      	b.n	8005e70 <USB_EPStartXfer+0x138>
          USBx_INEP(epnum)->DIEPCTL |= USB_OTG_DIEPCTL_SD0PID_SEVNFRM;
 8005e9e:	eb00 1143 	add.w	r1, r0, r3, lsl #5
 8005ea2:	f8d1 2900 	ldr.w	r2, [r1, #2304]	; 0x900
 8005ea6:	f042 5280 	orr.w	r2, r2, #268435456	; 0x10000000
 8005eaa:	f8c1 2900 	str.w	r2, [r1, #2304]	; 0x900
 8005eae:	e7df      	b.n	8005e70 <USB_EPStartXfer+0x138>
        if ((USBx_DEVICE->DSTS & (1U << 8)) == 0U)
 8005eb0:	f8d0 4808 	ldr.w	r4, [r0, #2056]	; 0x808
 8005eb4:	f414 7f80 	tst.w	r4, #256	; 0x100
 8005eb8:	d10c      	bne.n	8005ed4 <USB_EPStartXfer+0x19c>
          USBx_INEP(epnum)->DIEPCTL |= USB_OTG_DIEPCTL_SODDFRM;
 8005eba:	f8d3 4900 	ldr.w	r4, [r3, #2304]	; 0x900
 8005ebe:	f044 5400 	orr.w	r4, r4, #536870912	; 0x20000000
 8005ec2:	f8c3 4900 	str.w	r4, [r3, #2304]	; 0x900
        (void)USB_WritePacket(USBx, ep->xfer_buff, ep->num, (uint16_t)ep->xfer_len, dma);
 8005ec6:	9200      	str	r2, [sp, #0]
 8005ec8:	8a8b      	ldrh	r3, [r1, #20]
 8005eca:	780a      	ldrb	r2, [r1, #0]
 8005ecc:	68c9      	ldr	r1, [r1, #12]
 8005ece:	f7ff ff1f 	bl	8005d10 <USB_WritePacket>
 8005ed2:	e75e      	b.n	8005d92 <USB_EPStartXfer+0x5a>
          USBx_INEP(epnum)->DIEPCTL |= USB_OTG_DIEPCTL_SD0PID_SEVNFRM;
 8005ed4:	f8d3 4900 	ldr.w	r4, [r3, #2304]	; 0x900
 8005ed8:	f044 5480 	orr.w	r4, r4, #268435456	; 0x10000000
 8005edc:	f8c3 4900 	str.w	r4, [r3, #2304]	; 0x900
 8005ee0:	e7f1      	b.n	8005ec6 <USB_EPStartXfer+0x18e>
      pktcnt = (uint16_t)((ep->xfer_len + ep->maxpacket - 1U) / ep->maxpacket);
 8005ee2:	688e      	ldr	r6, [r1, #8]
 8005ee4:	4435      	add	r5, r6
 8005ee6:	3d01      	subs	r5, #1
 8005ee8:	fbb5 f5f6 	udiv	r5, r5, r6
      USBx_OUTEP(epnum)->DOEPTSIZ |= USB_OTG_DOEPTSIZ_PKTCNT & ((uint32_t)pktcnt << 19);
 8005eec:	6926      	ldr	r6, [r4, #16]
 8005eee:	4f16      	ldr	r7, [pc, #88]	; (8005f48 <USB_EPStartXfer+0x210>)
 8005ef0:	ea07 47c5 	and.w	r7, r7, r5, lsl #19
 8005ef4:	433e      	orrs	r6, r7
 8005ef6:	6126      	str	r6, [r4, #16]
      USBx_OUTEP(epnum)->DOEPTSIZ |= USB_OTG_DOEPTSIZ_XFRSIZ & (ep->maxpacket * pktcnt);
 8005ef8:	6927      	ldr	r7, [r4, #16]
 8005efa:	688e      	ldr	r6, [r1, #8]
 8005efc:	b2ad      	uxth	r5, r5
 8005efe:	fb06 f505 	mul.w	r5, r6, r5
 8005f02:	f3c5 0512 	ubfx	r5, r5, #0, #19
 8005f06:	433d      	orrs	r5, r7
 8005f08:	6125      	str	r5, [r4, #16]
 8005f0a:	e735      	b.n	8005d78 <USB_EPStartXfer+0x40>
      if ((uint32_t)ep->xfer_buff != 0U)
 8005f0c:	68ca      	ldr	r2, [r1, #12]
 8005f0e:	2a00      	cmp	r2, #0
 8005f10:	f43f af35 	beq.w	8005d7e <USB_EPStartXfer+0x46>
        USBx_OUTEP(epnum)->DOEPDMA = (uint32_t)(ep->xfer_buff);
 8005f14:	6162      	str	r2, [r4, #20]
 8005f16:	e732      	b.n	8005d7e <USB_EPStartXfer+0x46>
      if ((USBx_DEVICE->DSTS & (1U << 8)) == 0U)
 8005f18:	f8d0 2808 	ldr.w	r2, [r0, #2056]	; 0x808
 8005f1c:	f412 7f80 	tst.w	r2, #256	; 0x100
 8005f20:	d106      	bne.n	8005f30 <USB_EPStartXfer+0x1f8>
        USBx_OUTEP(epnum)->DOEPCTL |= USB_OTG_DOEPCTL_SODDFRM;
 8005f22:	f8d3 2b00 	ldr.w	r2, [r3, #2816]	; 0xb00
 8005f26:	f042 5200 	orr.w	r2, r2, #536870912	; 0x20000000
 8005f2a:	f8c3 2b00 	str.w	r2, [r3, #2816]	; 0xb00
 8005f2e:	e72a      	b.n	8005d86 <USB_EPStartXfer+0x4e>
        USBx_OUTEP(epnum)->DOEPCTL |= USB_OTG_DOEPCTL_SD0PID_SEVNFRM;
 8005f30:	f8d3 2b00 	ldr.w	r2, [r3, #2816]	; 0xb00
 8005f34:	f042 5280 	orr.w	r2, r2, #268435456	; 0x10000000
 8005f38:	f8c3 2b00 	str.w	r2, [r3, #2816]	; 0xb00
 8005f3c:	e723      	b.n	8005d86 <USB_EPStartXfer+0x4e>
 8005f3e:	bf00      	nop
 8005f40:	fff80000 	.word	0xfff80000
 8005f44:	e007ffff 	.word	0xe007ffff
 8005f48:	1ff80000 	.word	0x1ff80000

08005f4c <USB_ReadPacket>:
{
 8005f4c:	b410      	push	{r4}
  uint32_t count32b = ((uint32_t)len + 3U) / 4U;
 8005f4e:	3203      	adds	r2, #3
 8005f50:	0894      	lsrs	r4, r2, #2
  for (i = 0U; i < count32b; i++)
 8005f52:	2300      	movs	r3, #0
 8005f54:	42a3      	cmp	r3, r4
 8005f56:	d206      	bcs.n	8005f66 <USB_ReadPacket+0x1a>
    __UNALIGNED_UINT32_WRITE(pDest, USBx_DFIFO(0U));
 8005f58:	f500 5280 	add.w	r2, r0, #4096	; 0x1000
 8005f5c:	6812      	ldr	r2, [r2, #0]
 8005f5e:	f841 2b04 	str.w	r2, [r1], #4
  for (i = 0U; i < count32b; i++)
 8005f62:	3301      	adds	r3, #1
 8005f64:	e7f6      	b.n	8005f54 <USB_ReadPacket+0x8>
}
 8005f66:	4608      	mov	r0, r1
 8005f68:	f85d 4b04 	ldr.w	r4, [sp], #4
 8005f6c:	4770      	bx	lr

08005f6e <USB_EPSetStall>:
  uint32_t epnum = (uint32_t)ep->num;
 8005f6e:	780b      	ldrb	r3, [r1, #0]
  if (ep->is_in == 1U)
 8005f70:	784a      	ldrb	r2, [r1, #1]
 8005f72:	2a01      	cmp	r2, #1
 8005f74:	d014      	beq.n	8005fa0 <USB_EPSetStall+0x32>
    if (((USBx_OUTEP(epnum)->DOEPCTL & USB_OTG_DOEPCTL_EPENA) == 0U) && (epnum != 0U))
 8005f76:	eb00 1043 	add.w	r0, r0, r3, lsl #5
 8005f7a:	f8d0 2b00 	ldr.w	r2, [r0, #2816]	; 0xb00
 8005f7e:	2a00      	cmp	r2, #0
 8005f80:	db06      	blt.n	8005f90 <USB_EPSetStall+0x22>
 8005f82:	b12b      	cbz	r3, 8005f90 <USB_EPSetStall+0x22>
      USBx_OUTEP(epnum)->DOEPCTL &= ~(USB_OTG_DOEPCTL_EPDIS);
 8005f84:	f8d0 3b00 	ldr.w	r3, [r0, #2816]	; 0xb00
 8005f88:	f023 4380 	bic.w	r3, r3, #1073741824	; 0x40000000
 8005f8c:	f8c0 3b00 	str.w	r3, [r0, #2816]	; 0xb00
    USBx_OUTEP(epnum)->DOEPCTL |= USB_OTG_DOEPCTL_STALL;
 8005f90:	f8d0 3b00 	ldr.w	r3, [r0, #2816]	; 0xb00
 8005f94:	f443 1300 	orr.w	r3, r3, #2097152	; 0x200000
 8005f98:	f8c0 3b00 	str.w	r3, [r0, #2816]	; 0xb00
}
 8005f9c:	2000      	movs	r0, #0
 8005f9e:	4770      	bx	lr
    if (((USBx_INEP(epnum)->DIEPCTL & USB_OTG_DIEPCTL_EPENA) == 0U) && (epnum != 0U))
 8005fa0:	eb00 1043 	add.w	r0, r0, r3, lsl #5
 8005fa4:	f8d0 2900 	ldr.w	r2, [r0, #2304]	; 0x900
 8005fa8:	2a00      	cmp	r2, #0
 8005faa:	db06      	blt.n	8005fba <USB_EPSetStall+0x4c>
 8005fac:	b12b      	cbz	r3, 8005fba <USB_EPSetStall+0x4c>
      USBx_INEP(epnum)->DIEPCTL &= ~(USB_OTG_DIEPCTL_EPDIS);
 8005fae:	f8d0 3900 	ldr.w	r3, [r0, #2304]	; 0x900
 8005fb2:	f023 4380 	bic.w	r3, r3, #1073741824	; 0x40000000
 8005fb6:	f8c0 3900 	str.w	r3, [r0, #2304]	; 0x900
    USBx_INEP(epnum)->DIEPCTL |= USB_OTG_DIEPCTL_STALL;
 8005fba:	f8d0 3900 	ldr.w	r3, [r0, #2304]	; 0x900
 8005fbe:	f443 1300 	orr.w	r3, r3, #2097152	; 0x200000
 8005fc2:	f8c0 3900 	str.w	r3, [r0, #2304]	; 0x900
 8005fc6:	e7e9      	b.n	8005f9c <USB_EPSetStall+0x2e>

08005fc8 <USB_EPClearStall>:
  uint32_t epnum = (uint32_t)ep->num;
 8005fc8:	780b      	ldrb	r3, [r1, #0]
  if (ep->is_in == 1U)
 8005fca:	784a      	ldrb	r2, [r1, #1]
 8005fcc:	2a01      	cmp	r2, #1
 8005fce:	d00e      	beq.n	8005fee <USB_EPClearStall+0x26>
    USBx_OUTEP(epnum)->DOEPCTL &= ~USB_OTG_DOEPCTL_STALL;
 8005fd0:	eb00 1043 	add.w	r0, r0, r3, lsl #5
 8005fd4:	f8d0 3b00 	ldr.w	r3, [r0, #2816]	; 0xb00
 8005fd8:	f423 1300 	bic.w	r3, r3, #2097152	; 0x200000
 8005fdc:	f8c0 3b00 	str.w	r3, [r0, #2816]	; 0xb00
    if ((ep->type == EP_TYPE_INTR) || (ep->type == EP_TYPE_BULK))
 8005fe0:	78cb      	ldrb	r3, [r1, #3]
 8005fe2:	3b02      	subs	r3, #2
 8005fe4:	b2db      	uxtb	r3, r3
 8005fe6:	2b01      	cmp	r3, #1
 8005fe8:	d915      	bls.n	8006016 <USB_EPClearStall+0x4e>
}
 8005fea:	2000      	movs	r0, #0
 8005fec:	4770      	bx	lr
    USBx_INEP(epnum)->DIEPCTL &= ~USB_OTG_DIEPCTL_STALL;
 8005fee:	eb00 1043 	add.w	r0, r0, r3, lsl #5
 8005ff2:	f8d0 3900 	ldr.w	r3, [r0, #2304]	; 0x900
 8005ff6:	f423 1300 	bic.w	r3, r3, #2097152	; 0x200000
 8005ffa:	f8c0 3900 	str.w	r3, [r0, #2304]	; 0x900
    if ((ep->type == EP_TYPE_INTR) || (ep->type == EP_TYPE_BULK))
 8005ffe:	78cb      	ldrb	r3, [r1, #3]
 8006000:	3b02      	subs	r3, #2
 8006002:	b2db      	uxtb	r3, r3
 8006004:	2b01      	cmp	r3, #1
 8006006:	d8f0      	bhi.n	8005fea <USB_EPClearStall+0x22>
      USBx_INEP(epnum)->DIEPCTL |= USB_OTG_DIEPCTL_SD0PID_SEVNFRM; /* DATA0 */
 8006008:	f8d0 3900 	ldr.w	r3, [r0, #2304]	; 0x900
 800600c:	f043 5380 	orr.w	r3, r3, #268435456	; 0x10000000
 8006010:	f8c0 3900 	str.w	r3, [r0, #2304]	; 0x900
 8006014:	e7e9      	b.n	8005fea <USB_EPClearStall+0x22>
      USBx_OUTEP(epnum)->DOEPCTL |= USB_OTG_DOEPCTL_SD0PID_SEVNFRM; /* DATA0 */
 8006016:	f8d0 3b00 	ldr.w	r3, [r0, #2816]	; 0xb00
 800601a:	f043 5380 	orr.w	r3, r3, #268435456	; 0x10000000
 800601e:	f8c0 3b00 	str.w	r3, [r0, #2816]	; 0xb00
 8006022:	e7e2      	b.n	8005fea <USB_EPClearStall+0x22>

08006024 <USB_SetDevAddress>:
  USBx_DEVICE->DCFG &= ~(USB_OTG_DCFG_DAD);
 8006024:	f8d0 3800 	ldr.w	r3, [r0, #2048]	; 0x800
 8006028:	f423 63fe 	bic.w	r3, r3, #2032	; 0x7f0
 800602c:	f8c0 3800 	str.w	r3, [r0, #2048]	; 0x800
  USBx_DEVICE->DCFG |= ((uint32_t)address << 4) & USB_OTG_DCFG_DAD;
 8006030:	f8d0 3800 	ldr.w	r3, [r0, #2048]	; 0x800
 8006034:	0109      	lsls	r1, r1, #4
 8006036:	f401 61fe 	and.w	r1, r1, #2032	; 0x7f0
 800603a:	4319      	orrs	r1, r3
 800603c:	f8c0 1800 	str.w	r1, [r0, #2048]	; 0x800
}
 8006040:	2000      	movs	r0, #0
 8006042:	4770      	bx	lr

08006044 <USB_DevConnect>:
{
 8006044:	b508      	push	{r3, lr}
  USBx_DEVICE->DCTL &= ~USB_OTG_DCTL_SDIS;
 8006046:	f8d0 3804 	ldr.w	r3, [r0, #2052]	; 0x804
 800604a:	f023 0302 	bic.w	r3, r3, #2
 800604e:	f8c0 3804 	str.w	r3, [r0, #2052]	; 0x804
  HAL_Delay(3U);
 8006052:	2003      	movs	r0, #3
 8006054:	f7fa fb50 	bl	80006f8 <HAL_Delay>
}
 8006058:	2000      	movs	r0, #0
 800605a:	bd08      	pop	{r3, pc}

0800605c <USB_DevDisconnect>:
{
 800605c:	b508      	push	{r3, lr}
  USBx_DEVICE->DCTL |= USB_OTG_DCTL_SDIS;
 800605e:	f8d0 3804 	ldr.w	r3, [r0, #2052]	; 0x804
 8006062:	f043 0302 	orr.w	r3, r3, #2
 8006066:	f8c0 3804 	str.w	r3, [r0, #2052]	; 0x804
  HAL_Delay(3U);
 800606a:	2003      	movs	r0, #3
 800606c:	f7fa fb44 	bl	80006f8 <HAL_Delay>
}
 8006070:	2000      	movs	r0, #0
 8006072:	bd08      	pop	{r3, pc}

08006074 <USB_ReadInterrupts>:
  tmpreg = USBx->GINTSTS;
 8006074:	6942      	ldr	r2, [r0, #20]
  tmpreg &= USBx->GINTMSK;
 8006076:	6980      	ldr	r0, [r0, #24]
}
 8006078:	4010      	ands	r0, r2
 800607a:	4770      	bx	lr

0800607c <USB_ReadDevAllOutEpInterrupt>:
  tmpreg  = USBx_DEVICE->DAINT;
 800607c:	f8d0 3818 	ldr.w	r3, [r0, #2072]	; 0x818
 8006080:	f500 6000 	add.w	r0, r0, #2048	; 0x800
  tmpreg &= USBx_DEVICE->DAINTMSK;
 8006084:	69c0      	ldr	r0, [r0, #28]
 8006086:	4018      	ands	r0, r3
}
 8006088:	0c00      	lsrs	r0, r0, #16
 800608a:	4770      	bx	lr

0800608c <USB_ReadDevAllInEpInterrupt>:
  tmpreg  = USBx_DEVICE->DAINT;
 800608c:	f8d0 3818 	ldr.w	r3, [r0, #2072]	; 0x818
 8006090:	f500 6000 	add.w	r0, r0, #2048	; 0x800
  tmpreg &= USBx_DEVICE->DAINTMSK;
 8006094:	69c0      	ldr	r0, [r0, #28]
 8006096:	4018      	ands	r0, r3
}
 8006098:	b280      	uxth	r0, r0
 800609a:	4770      	bx	lr

0800609c <USB_ReadDevOutEPInterrupt>:
  tmpreg  = USBx_OUTEP((uint32_t)epnum)->DOEPINT;
 800609c:	eb00 1141 	add.w	r1, r0, r1, lsl #5
 80060a0:	f8d1 2b08 	ldr.w	r2, [r1, #2824]	; 0xb08
  tmpreg &= USBx_DEVICE->DOEPMSK;
 80060a4:	f500 6000 	add.w	r0, r0, #2048	; 0x800
 80060a8:	6940      	ldr	r0, [r0, #20]
}
 80060aa:	4010      	ands	r0, r2
 80060ac:	4770      	bx	lr

080060ae <USB_ReadDevInEPInterrupt>:
{
 80060ae:	b410      	push	{r4}
  msk = USBx_DEVICE->DIEPMSK;
 80060b0:	f8d0 4810 	ldr.w	r4, [r0, #2064]	; 0x810
  emp = USBx_DEVICE->DIEPEMPMSK;
 80060b4:	f8d0 3834 	ldr.w	r3, [r0, #2100]	; 0x834
  msk |= ((emp >> (epnum & EP_ADDR_MSK)) & 0x1U) << 7;
 80060b8:	f001 020f 	and.w	r2, r1, #15
 80060bc:	40d3      	lsrs	r3, r2
 80060be:	01db      	lsls	r3, r3, #7
 80060c0:	b2db      	uxtb	r3, r3
 80060c2:	4323      	orrs	r3, r4
  tmpreg = USBx_INEP((uint32_t)epnum)->DIEPINT & msk;
 80060c4:	eb00 1041 	add.w	r0, r0, r1, lsl #5
 80060c8:	f500 6010 	add.w	r0, r0, #2304	; 0x900
 80060cc:	6880      	ldr	r0, [r0, #8]
}
 80060ce:	4018      	ands	r0, r3
 80060d0:	f85d 4b04 	ldr.w	r4, [sp], #4
 80060d4:	4770      	bx	lr

080060d6 <USB_GetMode>:
  return ((USBx->GINTSTS) & 0x1U);
 80060d6:	6940      	ldr	r0, [r0, #20]
}
 80060d8:	f000 0001 	and.w	r0, r0, #1
 80060dc:	4770      	bx	lr
	...

080060e0 <USB_ActivateSetup>:
  USBx_INEP(0U)->DIEPCTL &= ~USB_OTG_DIEPCTL_MPSIZ;
 80060e0:	f8d0 2900 	ldr.w	r2, [r0, #2304]	; 0x900
 80060e4:	4b05      	ldr	r3, [pc, #20]	; (80060fc <USB_ActivateSetup+0x1c>)
 80060e6:	4013      	ands	r3, r2
 80060e8:	f8c0 3900 	str.w	r3, [r0, #2304]	; 0x900
  USBx_DEVICE->DCTL |= USB_OTG_DCTL_CGINAK;
 80060ec:	f8d0 3804 	ldr.w	r3, [r0, #2052]	; 0x804
 80060f0:	f443 7380 	orr.w	r3, r3, #256	; 0x100
 80060f4:	f8c0 3804 	str.w	r3, [r0, #2052]	; 0x804
}
 80060f8:	2000      	movs	r0, #0
 80060fa:	4770      	bx	lr
 80060fc:	fffff800 	.word	0xfffff800

08006100 <USB_EP0_OutStart>:
{
 8006100:	b410      	push	{r4}
  uint32_t gSNPSiD = *(__IO uint32_t *)(&USBx->CID + 0x1U);
 8006102:	6c04      	ldr	r4, [r0, #64]	; 0x40
  if (gSNPSiD > USB_OTG_CORE_ID_300A)
 8006104:	4b15      	ldr	r3, [pc, #84]	; (800615c <USB_EP0_OutStart+0x5c>)
 8006106:	429c      	cmp	r4, r3
 8006108:	d903      	bls.n	8006112 <USB_EP0_OutStart+0x12>
    if ((USBx_OUTEP(0U)->DOEPCTL & USB_OTG_DOEPCTL_EPENA) == USB_OTG_DOEPCTL_EPENA)
 800610a:	f8d0 3b00 	ldr.w	r3, [r0, #2816]	; 0xb00
 800610e:	2b00      	cmp	r3, #0
 8006110:	db16      	blt.n	8006140 <USB_EP0_OutStart+0x40>
  USBx_OUTEP(0U)->DOEPTSIZ = 0U;
 8006112:	2400      	movs	r4, #0
 8006114:	f8c0 4b10 	str.w	r4, [r0, #2832]	; 0xb10
  USBx_OUTEP(0U)->DOEPTSIZ |= (USB_OTG_DOEPTSIZ_PKTCNT & (1U << 19));
 8006118:	f8d0 4b10 	ldr.w	r4, [r0, #2832]	; 0xb10
 800611c:	f444 2400 	orr.w	r4, r4, #524288	; 0x80000
 8006120:	f8c0 4b10 	str.w	r4, [r0, #2832]	; 0xb10
  USBx_OUTEP(0U)->DOEPTSIZ |= (3U * 8U);
 8006124:	f8d0 4b10 	ldr.w	r4, [r0, #2832]	; 0xb10
 8006128:	f044 0418 	orr.w	r4, r4, #24
 800612c:	f8c0 4b10 	str.w	r4, [r0, #2832]	; 0xb10
  USBx_OUTEP(0U)->DOEPTSIZ |=  USB_OTG_DOEPTSIZ_STUPCNT;
 8006130:	f8d0 4b10 	ldr.w	r4, [r0, #2832]	; 0xb10
 8006134:	f044 44c0 	orr.w	r4, r4, #1610612736	; 0x60000000
 8006138:	f8c0 4b10 	str.w	r4, [r0, #2832]	; 0xb10
  if (dma == 1U)
 800613c:	2901      	cmp	r1, #1
 800613e:	d003      	beq.n	8006148 <USB_EP0_OutStart+0x48>
}
 8006140:	2000      	movs	r0, #0
 8006142:	f85d 4b04 	ldr.w	r4, [sp], #4
 8006146:	4770      	bx	lr
    USBx_OUTEP(0U)->DOEPDMA = (uint32_t)psetup;
 8006148:	f8c0 2b14 	str.w	r2, [r0, #2836]	; 0xb14
    USBx_OUTEP(0U)->DOEPCTL |= USB_OTG_DOEPCTL_EPENA | USB_OTG_DOEPCTL_USBAEP;
 800614c:	f8d0 3b00 	ldr.w	r3, [r0, #2816]	; 0xb00
 8006150:	f043 2380 	orr.w	r3, r3, #2147516416	; 0x80008000
 8006154:	f8c0 3b00 	str.w	r3, [r0, #2816]	; 0xb00
 8006158:	e7f2      	b.n	8006140 <USB_EP0_OutStart+0x40>
 800615a:	bf00      	nop
 800615c:	4f54300a 	.word	0x4f54300a

08006160 <USBD_CDC_EP0_RxReady>:
  *         Handle EP0 Rx Ready event
  * @param  pdev: device instance
  * @retval status
  */
static uint8_t USBD_CDC_EP0_RxReady(USBD_HandleTypeDef *pdev)
{
 8006160:	b510      	push	{r4, lr}
  USBD_CDC_HandleTypeDef *hcdc = (USBD_CDC_HandleTypeDef *)pdev->pClassData;
 8006162:	f8d0 42bc 	ldr.w	r4, [r0, #700]	; 0x2bc

  if ((pdev->pUserData != NULL) && (hcdc->CmdOpCode != 0xFFU))
 8006166:	f8d0 32c0 	ldr.w	r3, [r0, #704]	; 0x2c0
 800616a:	b15b      	cbz	r3, 8006184 <USBD_CDC_EP0_RxReady+0x24>
 800616c:	f894 0800 	ldrb.w	r0, [r4, #2048]	; 0x800
 8006170:	28ff      	cmp	r0, #255	; 0xff
 8006172:	d007      	beq.n	8006184 <USBD_CDC_EP0_RxReady+0x24>
  {
    ((USBD_CDC_ItfTypeDef *)pdev->pUserData)->Control(hcdc->CmdOpCode,
 8006174:	689b      	ldr	r3, [r3, #8]
 8006176:	f894 2801 	ldrb.w	r2, [r4, #2049]	; 0x801
 800617a:	4621      	mov	r1, r4
 800617c:	4798      	blx	r3
                                                      (uint8_t *)hcdc->data,
                                                      (uint16_t)hcdc->CmdLength);
    hcdc->CmdOpCode = 0xFFU;
 800617e:	23ff      	movs	r3, #255	; 0xff
 8006180:	f884 3800 	strb.w	r3, [r4, #2048]	; 0x800

  }

  return (uint8_t)USBD_OK;
}
 8006184:	2000      	movs	r0, #0
 8006186:	bd10      	pop	{r4, pc}

08006188 <USBD_CDC_GetFSCfgDesc>:
  * @param  length : pointer data length
  * @retval pointer to descriptor buffer
  */
static uint8_t *USBD_CDC_GetFSCfgDesc(uint16_t *length)
{
  *length = (uint16_t)sizeof(USBD_CDC_CfgFSDesc);
 8006188:	2343      	movs	r3, #67	; 0x43
 800618a:	8003      	strh	r3, [r0, #0]

  return USBD_CDC_CfgFSDesc;
}
 800618c:	4800      	ldr	r0, [pc, #0]	; (8006190 <USBD_CDC_GetFSCfgDesc+0x8>)
 800618e:	4770      	bx	lr
 8006190:	20000008 	.word	0x20000008

08006194 <USBD_CDC_GetHSCfgDesc>:
  * @param  length : pointer data length
  * @retval pointer to descriptor buffer
  */
static uint8_t *USBD_CDC_GetHSCfgDesc(uint16_t *length)
{
  *length = (uint16_t)sizeof(USBD_CDC_CfgHSDesc);
 8006194:	2343      	movs	r3, #67	; 0x43
 8006196:	8003      	strh	r3, [r0, #0]

  return USBD_CDC_CfgHSDesc;
}
 8006198:	4800      	ldr	r0, [pc, #0]	; (800619c <USBD_CDC_GetHSCfgDesc+0x8>)
 800619a:	4770      	bx	lr
 800619c:	2000004c 	.word	0x2000004c

080061a0 <USBD_CDC_GetOtherSpeedCfgDesc>:
  * @param  length : pointer data length
  * @retval pointer to descriptor buffer
  */
static uint8_t *USBD_CDC_GetOtherSpeedCfgDesc(uint16_t *length)
{
  *length = (uint16_t)sizeof(USBD_CDC_OtherSpeedCfgDesc);
 80061a0:	2343      	movs	r3, #67	; 0x43
 80061a2:	8003      	strh	r3, [r0, #0]

  return USBD_CDC_OtherSpeedCfgDesc;
}
 80061a4:	4800      	ldr	r0, [pc, #0]	; (80061a8 <USBD_CDC_GetOtherSpeedCfgDesc+0x8>)
 80061a6:	4770      	bx	lr
 80061a8:	20000090 	.word	0x20000090

080061ac <USBD_CDC_GetDeviceQualifierDescriptor>:
* @param  length : pointer data length
* @retval pointer to descriptor buffer
*/
uint8_t *USBD_CDC_GetDeviceQualifierDescriptor(uint16_t *length)
{
  *length = (uint16_t)sizeof(USBD_CDC_DeviceQualifierDesc);
 80061ac:	230a      	movs	r3, #10
 80061ae:	8003      	strh	r3, [r0, #0]

  return USBD_CDC_DeviceQualifierDesc;
}
 80061b0:	4800      	ldr	r0, [pc, #0]	; (80061b4 <USBD_CDC_GetDeviceQualifierDescriptor+0x8>)
 80061b2:	4770      	bx	lr
 80061b4:	200000d4 	.word	0x200000d4

080061b8 <USBD_CDC_DataOut>:
{
 80061b8:	b538      	push	{r3, r4, r5, lr}
  USBD_CDC_HandleTypeDef *hcdc = (USBD_CDC_HandleTypeDef *)pdev->pClassData;
 80061ba:	f8d0 52bc 	ldr.w	r5, [r0, #700]	; 0x2bc
  if (pdev->pClassData == NULL)
 80061be:	b175      	cbz	r5, 80061de <USBD_CDC_DataOut+0x26>
 80061c0:	4604      	mov	r4, r0
  hcdc->RxLength = USBD_LL_GetRxDataSize(pdev, epnum);
 80061c2:	f001 ff2a 	bl	800801a <USBD_LL_GetRxDataSize>
 80061c6:	f8c5 080c 	str.w	r0, [r5, #2060]	; 0x80c
  ((USBD_CDC_ItfTypeDef *)pdev->pUserData)->Receive(hcdc->RxBuffer, &hcdc->RxLength);
 80061ca:	f8d4 32c0 	ldr.w	r3, [r4, #704]	; 0x2c0
 80061ce:	68db      	ldr	r3, [r3, #12]
 80061d0:	f605 010c 	addw	r1, r5, #2060	; 0x80c
 80061d4:	f8d5 0804 	ldr.w	r0, [r5, #2052]	; 0x804
 80061d8:	4798      	blx	r3
  return (uint8_t)USBD_OK;
 80061da:	2000      	movs	r0, #0
}
 80061dc:	bd38      	pop	{r3, r4, r5, pc}
    return (uint8_t)USBD_FAIL;
 80061de:	2003      	movs	r0, #3
 80061e0:	e7fc      	b.n	80061dc <USBD_CDC_DataOut+0x24>

080061e2 <USBD_CDC_DataIn>:
{
 80061e2:	b538      	push	{r3, r4, r5, lr}
  PCD_HandleTypeDef *hpcd = pdev->pData;
 80061e4:	f8d0 42c4 	ldr.w	r4, [r0, #708]	; 0x2c4
  if (pdev->pClassData == NULL)
 80061e8:	f8d0 32bc 	ldr.w	r3, [r0, #700]	; 0x2bc
 80061ec:	b34b      	cbz	r3, 8006242 <USBD_CDC_DataIn+0x60>
  if ((pdev->ep_in[epnum].total_length > 0U) &&
 80061ee:	eb01 0281 	add.w	r2, r1, r1, lsl #2
 80061f2:	eb00 0282 	add.w	r2, r0, r2, lsl #2
 80061f6:	6992      	ldr	r2, [r2, #24]
 80061f8:	b14a      	cbz	r2, 800620e <USBD_CDC_DataIn+0x2c>
      ((pdev->ep_in[epnum].total_length % hpcd->IN_ep[epnum].maxpacket) == 0U))
 80061fa:	ebc1 05c1 	rsb	r5, r1, r1, lsl #3
 80061fe:	eb04 0485 	add.w	r4, r4, r5, lsl #2
 8006202:	6c65      	ldr	r5, [r4, #68]	; 0x44
 8006204:	fbb2 f4f5 	udiv	r4, r2, r5
 8006208:	fb05 2214 	mls	r2, r5, r4, r2
  if ((pdev->ep_in[epnum].total_length > 0U) &&
 800620c:	b16a      	cbz	r2, 800622a <USBD_CDC_DataIn+0x48>
    hcdc->TxState = 0U;
 800620e:	2400      	movs	r4, #0
 8006210:	f8c3 4814 	str.w	r4, [r3, #2068]	; 0x814
    ((USBD_CDC_ItfTypeDef *)pdev->pUserData)->TransmitCplt(hcdc->TxBuffer, &hcdc->TxLength, epnum);
 8006214:	f8d0 22c0 	ldr.w	r2, [r0, #704]	; 0x2c0
 8006218:	6915      	ldr	r5, [r2, #16]
 800621a:	460a      	mov	r2, r1
 800621c:	f503 6101 	add.w	r1, r3, #2064	; 0x810
 8006220:	f8d3 0808 	ldr.w	r0, [r3, #2056]	; 0x808
 8006224:	47a8      	blx	r5
  return (uint8_t)USBD_OK;
 8006226:	4620      	mov	r0, r4
}
 8006228:	bd38      	pop	{r3, r4, r5, pc}
    pdev->ep_in[epnum].total_length = 0U;
 800622a:	eb01 0381 	add.w	r3, r1, r1, lsl #2
 800622e:	eb00 0383 	add.w	r3, r0, r3, lsl #2
 8006232:	2400      	movs	r4, #0
 8006234:	619c      	str	r4, [r3, #24]
    (void)USBD_LL_Transmit(pdev, epnum, NULL, 0U);
 8006236:	4623      	mov	r3, r4
 8006238:	4622      	mov	r2, r4
 800623a:	f001 ff31 	bl	80080a0 <USBD_LL_Transmit>
  return (uint8_t)USBD_OK;
 800623e:	4620      	mov	r0, r4
    (void)USBD_LL_Transmit(pdev, epnum, NULL, 0U);
 8006240:	e7f2      	b.n	8006228 <USBD_CDC_DataIn+0x46>
    return (uint8_t)USBD_FAIL;
 8006242:	2003      	movs	r0, #3
 8006244:	e7f0      	b.n	8006228 <USBD_CDC_DataIn+0x46>

08006246 <USBD_CDC_Setup>:
{
 8006246:	b5f0      	push	{r4, r5, r6, r7, lr}
 8006248:	b083      	sub	sp, #12
 800624a:	4606      	mov	r6, r0
 800624c:	460c      	mov	r4, r1
  USBD_CDC_HandleTypeDef *hcdc = (USBD_CDC_HandleTypeDef *)pdev->pClassData;
 800624e:	f8d0 72bc 	ldr.w	r7, [r0, #700]	; 0x2bc
  uint8_t ifalt = 0U;
 8006252:	2300      	movs	r3, #0
 8006254:	f88d 3007 	strb.w	r3, [sp, #7]
  uint16_t status_info = 0U;
 8006258:	f8ad 3004 	strh.w	r3, [sp, #4]
  switch (req->bmRequest & USB_REQ_TYPE_MASK)
 800625c:	780b      	ldrb	r3, [r1, #0]
 800625e:	f013 0560 	ands.w	r5, r3, #96	; 0x60
 8006262:	d027      	beq.n	80062b4 <USBD_CDC_Setup+0x6e>
 8006264:	2d20      	cmp	r5, #32
 8006266:	d158      	bne.n	800631a <USBD_CDC_Setup+0xd4>
    if (req->wLength != 0U)
 8006268:	88ca      	ldrh	r2, [r1, #6]
 800626a:	b1da      	cbz	r2, 80062a4 <USBD_CDC_Setup+0x5e>
      if ((req->bmRequest & 0x80U) != 0U)
 800626c:	f013 0f80 	tst.w	r3, #128	; 0x80
 8006270:	d00c      	beq.n	800628c <USBD_CDC_Setup+0x46>
        ((USBD_CDC_ItfTypeDef *)pdev->pUserData)->Control(req->bRequest,
 8006272:	f8d0 32c0 	ldr.w	r3, [r0, #704]	; 0x2c0
 8006276:	689b      	ldr	r3, [r3, #8]
 8006278:	4639      	mov	r1, r7
 800627a:	7860      	ldrb	r0, [r4, #1]
 800627c:	4798      	blx	r3
          (void)USBD_CtlSendData(pdev, (uint8_t *)hcdc->data, req->wLength);
 800627e:	88e2      	ldrh	r2, [r4, #6]
 8006280:	4639      	mov	r1, r7
 8006282:	4630      	mov	r0, r6
 8006284:	f000 fdfc 	bl	8006e80 <USBD_CtlSendData>
  USBD_StatusTypeDef ret = USBD_OK;
 8006288:	2500      	movs	r5, #0
 800628a:	e049      	b.n	8006320 <USBD_CDC_Setup+0xda>
        hcdc->CmdOpCode = req->bRequest;
 800628c:	784b      	ldrb	r3, [r1, #1]
 800628e:	f887 3800 	strb.w	r3, [r7, #2048]	; 0x800
        hcdc->CmdLength = (uint8_t)req->wLength;
 8006292:	798b      	ldrb	r3, [r1, #6]
 8006294:	f887 3801 	strb.w	r3, [r7, #2049]	; 0x801
        (void)USBD_CtlPrepareRx(pdev, (uint8_t *)hcdc->data, req->wLength);
 8006298:	88ca      	ldrh	r2, [r1, #6]
 800629a:	4639      	mov	r1, r7
 800629c:	f000 fe05 	bl	8006eaa <USBD_CtlPrepareRx>
  USBD_StatusTypeDef ret = USBD_OK;
 80062a0:	2500      	movs	r5, #0
 80062a2:	e03d      	b.n	8006320 <USBD_CDC_Setup+0xda>
      ((USBD_CDC_ItfTypeDef *)pdev->pUserData)->Control(req->bRequest,
 80062a4:	f8d0 32c0 	ldr.w	r3, [r0, #704]	; 0x2c0
 80062a8:	689b      	ldr	r3, [r3, #8]
 80062aa:	2200      	movs	r2, #0
 80062ac:	7848      	ldrb	r0, [r1, #1]
 80062ae:	4798      	blx	r3
  USBD_StatusTypeDef ret = USBD_OK;
 80062b0:	2500      	movs	r5, #0
 80062b2:	e035      	b.n	8006320 <USBD_CDC_Setup+0xda>
    switch (req->bRequest)
 80062b4:	784f      	ldrb	r7, [r1, #1]
 80062b6:	2f0b      	cmp	r7, #11
 80062b8:	d82b      	bhi.n	8006312 <USBD_CDC_Setup+0xcc>
 80062ba:	e8df f007 	tbb	[pc, r7]
 80062be:	3106      	.short	0x3106
 80062c0:	2a2a2a2a 	.word	0x2a2a2a2a
 80062c4:	2a2a2a2a 	.word	0x2a2a2a2a
 80062c8:	2214      	.short	0x2214
      if (pdev->dev_state == USBD_STATE_CONFIGURED)
 80062ca:	f890 329c 	ldrb.w	r3, [r0, #668]	; 0x29c
 80062ce:	2b03      	cmp	r3, #3
 80062d0:	d003      	beq.n	80062da <USBD_CDC_Setup+0x94>
        USBD_CtlError(pdev, req);
 80062d2:	f000 fa9e 	bl	8006812 <USBD_CtlError>
        ret = USBD_FAIL;
 80062d6:	2503      	movs	r5, #3
 80062d8:	e022      	b.n	8006320 <USBD_CDC_Setup+0xda>
        (void)USBD_CtlSendData(pdev, (uint8_t *)&status_info, 2U);
 80062da:	2202      	movs	r2, #2
 80062dc:	a901      	add	r1, sp, #4
 80062de:	f000 fdcf 	bl	8006e80 <USBD_CtlSendData>
  USBD_StatusTypeDef ret = USBD_OK;
 80062e2:	463d      	mov	r5, r7
 80062e4:	e01c      	b.n	8006320 <USBD_CDC_Setup+0xda>
      if (pdev->dev_state == USBD_STATE_CONFIGURED)
 80062e6:	f890 329c 	ldrb.w	r3, [r0, #668]	; 0x29c
 80062ea:	2b03      	cmp	r3, #3
 80062ec:	d003      	beq.n	80062f6 <USBD_CDC_Setup+0xb0>
        USBD_CtlError(pdev, req);
 80062ee:	f000 fa90 	bl	8006812 <USBD_CtlError>
        ret = USBD_FAIL;
 80062f2:	2503      	movs	r5, #3
 80062f4:	e014      	b.n	8006320 <USBD_CDC_Setup+0xda>
        (void)USBD_CtlSendData(pdev, &ifalt, 1U);
 80062f6:	2201      	movs	r2, #1
 80062f8:	f10d 0107 	add.w	r1, sp, #7
 80062fc:	f000 fdc0 	bl	8006e80 <USBD_CtlSendData>
 8006300:	e00e      	b.n	8006320 <USBD_CDC_Setup+0xda>
      if (pdev->dev_state != USBD_STATE_CONFIGURED)
 8006302:	f890 329c 	ldrb.w	r3, [r0, #668]	; 0x29c
 8006306:	2b03      	cmp	r3, #3
 8006308:	d00a      	beq.n	8006320 <USBD_CDC_Setup+0xda>
        USBD_CtlError(pdev, req);
 800630a:	f000 fa82 	bl	8006812 <USBD_CtlError>
        ret = USBD_FAIL;
 800630e:	2503      	movs	r5, #3
 8006310:	e006      	b.n	8006320 <USBD_CDC_Setup+0xda>
      USBD_CtlError(pdev, req);
 8006312:	f000 fa7e 	bl	8006812 <USBD_CtlError>
      ret = USBD_FAIL;
 8006316:	2503      	movs	r5, #3
      break;
 8006318:	e002      	b.n	8006320 <USBD_CDC_Setup+0xda>
    USBD_CtlError(pdev, req);
 800631a:	f000 fa7a 	bl	8006812 <USBD_CtlError>
    ret = USBD_FAIL;
 800631e:	2503      	movs	r5, #3
}
 8006320:	4628      	mov	r0, r5
 8006322:	b003      	add	sp, #12
 8006324:	bdf0      	pop	{r4, r5, r6, r7, pc}

08006326 <USBD_CDC_DeInit>:
{
 8006326:	b538      	push	{r3, r4, r5, lr}
 8006328:	4604      	mov	r4, r0
  (void)USBD_LL_CloseEP(pdev, CDC_IN_EP);
 800632a:	2181      	movs	r1, #129	; 0x81
 800632c:	f001 fe98 	bl	8008060 <USBD_LL_CloseEP>
  pdev->ep_in[CDC_IN_EP & 0xFU].is_used = 0U;
 8006330:	2500      	movs	r5, #0
 8006332:	8725      	strh	r5, [r4, #56]	; 0x38
  (void)USBD_LL_CloseEP(pdev, CDC_OUT_EP);
 8006334:	2101      	movs	r1, #1
 8006336:	4620      	mov	r0, r4
 8006338:	f001 fe92 	bl	8008060 <USBD_LL_CloseEP>
  pdev->ep_out[CDC_OUT_EP & 0xFU].is_used = 0U;
 800633c:	f8a4 5178 	strh.w	r5, [r4, #376]	; 0x178
  (void)USBD_LL_CloseEP(pdev, CDC_CMD_EP);
 8006340:	2182      	movs	r1, #130	; 0x82
 8006342:	4620      	mov	r0, r4
 8006344:	f001 fe8c 	bl	8008060 <USBD_LL_CloseEP>
  pdev->ep_in[CDC_CMD_EP & 0xFU].is_used = 0U;
 8006348:	f8a4 504c 	strh.w	r5, [r4, #76]	; 0x4c
  pdev->ep_in[CDC_CMD_EP & 0xFU].bInterval = 0U;
 800634c:	f8a4 504e 	strh.w	r5, [r4, #78]	; 0x4e
  if (pdev->pClassData != NULL)
 8006350:	f8d4 32bc 	ldr.w	r3, [r4, #700]	; 0x2bc
 8006354:	b14b      	cbz	r3, 800636a <USBD_CDC_DeInit+0x44>
    ((USBD_CDC_ItfTypeDef *)pdev->pUserData)->DeInit();
 8006356:	f8d4 32c0 	ldr.w	r3, [r4, #704]	; 0x2c0
 800635a:	685b      	ldr	r3, [r3, #4]
 800635c:	4798      	blx	r3
    (void)USBD_free(pdev->pClassData);
 800635e:	f8d4 02bc 	ldr.w	r0, [r4, #700]	; 0x2bc
 8006362:	f001 ff9b 	bl	800829c <free>
    pdev->pClassData = NULL;
 8006366:	f8c4 52bc 	str.w	r5, [r4, #700]	; 0x2bc
}
 800636a:	2000      	movs	r0, #0
 800636c:	bd38      	pop	{r3, r4, r5, pc}

0800636e <USBD_CDC_Init>:
{
 800636e:	b570      	push	{r4, r5, r6, lr}
 8006370:	4604      	mov	r4, r0
  hcdc = USBD_malloc(sizeof(USBD_CDC_HandleTypeDef));
 8006372:	f640 001c 	movw	r0, #2076	; 0x81c
 8006376:	f001 ff89 	bl	800828c <malloc>
  if (hcdc == NULL)
 800637a:	b3b8      	cbz	r0, 80063ec <USBD_CDC_Init+0x7e>
 800637c:	4606      	mov	r6, r0
  pdev->pClassData = (void *)hcdc;
 800637e:	f8c4 02bc 	str.w	r0, [r4, #700]	; 0x2bc
  if (pdev->dev_speed == USBD_SPEED_HIGH)
 8006382:	7c23      	ldrb	r3, [r4, #16]
 8006384:	bbbb      	cbnz	r3, 80063f6 <USBD_CDC_Init+0x88>
    (void)USBD_LL_OpenEP(pdev, CDC_IN_EP, USBD_EP_TYPE_BULK,
 8006386:	f44f 6300 	mov.w	r3, #2048	; 0x800
 800638a:	2202      	movs	r2, #2
 800638c:	2181      	movs	r1, #129	; 0x81
 800638e:	4620      	mov	r0, r4
 8006390:	f001 fe5b 	bl	800804a <USBD_LL_OpenEP>
     pdev->ep_in[CDC_IN_EP & 0xFU].is_used = 1U;
 8006394:	2501      	movs	r5, #1
 8006396:	8725      	strh	r5, [r4, #56]	; 0x38
     (void)USBD_LL_OpenEP(pdev, CDC_OUT_EP, USBD_EP_TYPE_BULK,
 8006398:	f44f 6300 	mov.w	r3, #2048	; 0x800
 800639c:	2202      	movs	r2, #2
 800639e:	4629      	mov	r1, r5
 80063a0:	4620      	mov	r0, r4
 80063a2:	f001 fe52 	bl	800804a <USBD_LL_OpenEP>
      pdev->ep_out[CDC_OUT_EP & 0xFU].is_used = 1U;
 80063a6:	f8a4 5178 	strh.w	r5, [r4, #376]	; 0x178
      pdev->ep_in[CDC_CMD_EP & 0xFU].bInterval = CDC_HS_BINTERVAL;
 80063aa:	2310      	movs	r3, #16
 80063ac:	f8a4 304e 	strh.w	r3, [r4, #78]	; 0x4e
  (void)USBD_LL_OpenEP(pdev, CDC_CMD_EP, USBD_EP_TYPE_INTR, CDC_CMD_PACKET_SIZE);
 80063b0:	2308      	movs	r3, #8
 80063b2:	2203      	movs	r2, #3
 80063b4:	2182      	movs	r1, #130	; 0x82
 80063b6:	4620      	mov	r0, r4
 80063b8:	f001 fe47 	bl	800804a <USBD_LL_OpenEP>
  pdev->ep_in[CDC_CMD_EP & 0xFU].is_used = 1U;
 80063bc:	2301      	movs	r3, #1
 80063be:	f8a4 304c 	strh.w	r3, [r4, #76]	; 0x4c
  ((USBD_CDC_ItfTypeDef *)pdev->pUserData)->Init();
 80063c2:	f8d4 32c0 	ldr.w	r3, [r4, #704]	; 0x2c0
 80063c6:	681b      	ldr	r3, [r3, #0]
 80063c8:	4798      	blx	r3
  hcdc->TxState = 0U;
 80063ca:	2300      	movs	r3, #0
 80063cc:	f8c6 3814 	str.w	r3, [r6, #2068]	; 0x814
  hcdc->RxState = 0U;
 80063d0:	f8c6 3818 	str.w	r3, [r6, #2072]	; 0x818
  if (pdev->dev_speed == USBD_SPEED_HIGH)
 80063d4:	7c25      	ldrb	r5, [r4, #16]
 80063d6:	bb15      	cbnz	r5, 800641e <USBD_CDC_Init+0xb0>
    (void)USBD_LL_PrepareReceive(pdev, CDC_OUT_EP, hcdc->RxBuffer,
 80063d8:	f44f 6300 	mov.w	r3, #2048	; 0x800
 80063dc:	f8d6 2804 	ldr.w	r2, [r6, #2052]	; 0x804
 80063e0:	2101      	movs	r1, #1
 80063e2:	4620      	mov	r0, r4
 80063e4:	f001 fe64 	bl	80080b0 <USBD_LL_PrepareReceive>
}
 80063e8:	4628      	mov	r0, r5
 80063ea:	bd70      	pop	{r4, r5, r6, pc}
    pdev->pClassData = NULL;
 80063ec:	2300      	movs	r3, #0
 80063ee:	f8c4 32bc 	str.w	r3, [r4, #700]	; 0x2bc
    return (uint8_t)USBD_EMEM;
 80063f2:	2502      	movs	r5, #2
 80063f4:	e7f8      	b.n	80063e8 <USBD_CDC_Init+0x7a>
    (void)USBD_LL_OpenEP(pdev, CDC_IN_EP, USBD_EP_TYPE_BULK,
 80063f6:	2340      	movs	r3, #64	; 0x40
 80063f8:	2202      	movs	r2, #2
 80063fa:	2181      	movs	r1, #129	; 0x81
 80063fc:	4620      	mov	r0, r4
 80063fe:	f001 fe24 	bl	800804a <USBD_LL_OpenEP>
     pdev->ep_in[CDC_IN_EP & 0xFU].is_used = 1U;
 8006402:	2501      	movs	r5, #1
 8006404:	8725      	strh	r5, [r4, #56]	; 0x38
     (void)USBD_LL_OpenEP(pdev, CDC_OUT_EP, USBD_EP_TYPE_BULK,
 8006406:	2340      	movs	r3, #64	; 0x40
 8006408:	2202      	movs	r2, #2
 800640a:	4629      	mov	r1, r5
 800640c:	4620      	mov	r0, r4
 800640e:	f001 fe1c 	bl	800804a <USBD_LL_OpenEP>
      pdev->ep_out[CDC_OUT_EP & 0xFU].is_used = 1U;
 8006412:	f8a4 5178 	strh.w	r5, [r4, #376]	; 0x178
      pdev->ep_in[CDC_CMD_EP & 0xFU].bInterval = CDC_FS_BINTERVAL;
 8006416:	2310      	movs	r3, #16
 8006418:	f8a4 304e 	strh.w	r3, [r4, #78]	; 0x4e
 800641c:	e7c8      	b.n	80063b0 <USBD_CDC_Init+0x42>
    (void)USBD_LL_PrepareReceive(pdev, CDC_OUT_EP, hcdc->RxBuffer,
 800641e:	2340      	movs	r3, #64	; 0x40
 8006420:	f8d6 2804 	ldr.w	r2, [r6, #2052]	; 0x804
 8006424:	2101      	movs	r1, #1
 8006426:	4620      	mov	r0, r4
 8006428:	f001 fe42 	bl	80080b0 <USBD_LL_PrepareReceive>
  return (uint8_t)USBD_OK;
 800642c:	2500      	movs	r5, #0
 800642e:	e7db      	b.n	80063e8 <USBD_CDC_Init+0x7a>

08006430 <USBD_CDC_RegisterInterface>:
  * @retval status
  */
uint8_t USBD_CDC_RegisterInterface(USBD_HandleTypeDef *pdev,
                                   USBD_CDC_ItfTypeDef *fops)
{
  if (fops == NULL)
 8006430:	b119      	cbz	r1, 800643a <USBD_CDC_RegisterInterface+0xa>
  {
    return (uint8_t)USBD_FAIL;
  }

  pdev->pUserData = fops;
 8006432:	f8c0 12c0 	str.w	r1, [r0, #704]	; 0x2c0

  return (uint8_t)USBD_OK;
 8006436:	2000      	movs	r0, #0
 8006438:	4770      	bx	lr
    return (uint8_t)USBD_FAIL;
 800643a:	2003      	movs	r0, #3
}
 800643c:	4770      	bx	lr

0800643e <USBD_CDC_SetTxBuffer>:
  * @retval status
  */
uint8_t USBD_CDC_SetTxBuffer(USBD_HandleTypeDef *pdev,
                             uint8_t *pbuff, uint32_t length)
{
  USBD_CDC_HandleTypeDef *hcdc = (USBD_CDC_HandleTypeDef *)pdev->pClassData;
 800643e:	f8d0 32bc 	ldr.w	r3, [r0, #700]	; 0x2bc

  hcdc->TxBuffer = pbuff;
 8006442:	f8c3 1808 	str.w	r1, [r3, #2056]	; 0x808
  hcdc->TxLength = length;
 8006446:	f8c3 2810 	str.w	r2, [r3, #2064]	; 0x810

  return (uint8_t)USBD_OK;
}
 800644a:	2000      	movs	r0, #0
 800644c:	4770      	bx	lr

0800644e <USBD_CDC_SetRxBuffer>:
  * @param  pbuff: Rx Buffer
  * @retval status
  */
uint8_t USBD_CDC_SetRxBuffer(USBD_HandleTypeDef *pdev, uint8_t *pbuff)
{
  USBD_CDC_HandleTypeDef *hcdc = (USBD_CDC_HandleTypeDef *)pdev->pClassData;
 800644e:	f8d0 32bc 	ldr.w	r3, [r0, #700]	; 0x2bc

  hcdc->RxBuffer = pbuff;
 8006452:	f8c3 1804 	str.w	r1, [r3, #2052]	; 0x804

  return (uint8_t)USBD_OK;
}
 8006456:	2000      	movs	r0, #0
 8006458:	4770      	bx	lr

0800645a <USBD_CDC_TransmitPacket>:
  * @param  pdev: device instance
  * @retval status
  */
uint8_t USBD_CDC_TransmitPacket(USBD_HandleTypeDef *pdev)
{
  USBD_CDC_HandleTypeDef *hcdc = (USBD_CDC_HandleTypeDef *)pdev->pClassData;
 800645a:	f8d0 22bc 	ldr.w	r2, [r0, #700]	; 0x2bc
  USBD_StatusTypeDef ret = USBD_BUSY;

  if (pdev->pClassData == NULL)
 800645e:	b1a2      	cbz	r2, 800648a <USBD_CDC_TransmitPacket+0x30>
{
 8006460:	b508      	push	{r3, lr}
  {
    return (uint8_t)USBD_FAIL;
  }

  if (hcdc->TxState == 0U)
 8006462:	f8d2 3814 	ldr.w	r3, [r2, #2068]	; 0x814
 8006466:	b10b      	cbz	r3, 800646c <USBD_CDC_TransmitPacket+0x12>
  USBD_StatusTypeDef ret = USBD_BUSY;
 8006468:	2001      	movs	r0, #1

    ret = USBD_OK;
  }

  return (uint8_t)ret;
}
 800646a:	bd08      	pop	{r3, pc}
    hcdc->TxState = 1U;
 800646c:	2301      	movs	r3, #1
 800646e:	f8c2 3814 	str.w	r3, [r2, #2068]	; 0x814
    pdev->ep_in[CDC_IN_EP & 0xFU].total_length = hcdc->TxLength;
 8006472:	f8d2 3810 	ldr.w	r3, [r2, #2064]	; 0x810
 8006476:	62c3      	str	r3, [r0, #44]	; 0x2c
    (void)USBD_LL_Transmit(pdev, CDC_IN_EP, hcdc->TxBuffer, hcdc->TxLength);
 8006478:	f8d2 3810 	ldr.w	r3, [r2, #2064]	; 0x810
 800647c:	f8d2 2808 	ldr.w	r2, [r2, #2056]	; 0x808
 8006480:	2181      	movs	r1, #129	; 0x81
 8006482:	f001 fe0d 	bl	80080a0 <USBD_LL_Transmit>
    ret = USBD_OK;
 8006486:	2000      	movs	r0, #0
 8006488:	e7ef      	b.n	800646a <USBD_CDC_TransmitPacket+0x10>
    return (uint8_t)USBD_FAIL;
 800648a:	2003      	movs	r0, #3
}
 800648c:	4770      	bx	lr

0800648e <USBD_CDC_ReceivePacket>:
  *         prepare OUT Endpoint for reception
  * @param  pdev: device instance
  * @retval status
  */
uint8_t USBD_CDC_ReceivePacket(USBD_HandleTypeDef *pdev)
{
 800648e:	b510      	push	{r4, lr}
  USBD_CDC_HandleTypeDef *hcdc = (USBD_CDC_HandleTypeDef *)pdev->pClassData;
 8006490:	f8d0 22bc 	ldr.w	r2, [r0, #700]	; 0x2bc

  if (pdev->pClassData == NULL)
 8006494:	b192      	cbz	r2, 80064bc <USBD_CDC_ReceivePacket+0x2e>
  {
    return (uint8_t)USBD_FAIL;
  }

  if (pdev->dev_speed == USBD_SPEED_HIGH)
 8006496:	7c04      	ldrb	r4, [r0, #16]
 8006498:	b944      	cbnz	r4, 80064ac <USBD_CDC_ReceivePacket+0x1e>
  {
    /* Prepare Out endpoint to receive next packet */
    (void)USBD_LL_PrepareReceive(pdev, CDC_OUT_EP, hcdc->RxBuffer,
 800649a:	f44f 6300 	mov.w	r3, #2048	; 0x800
 800649e:	f8d2 2804 	ldr.w	r2, [r2, #2052]	; 0x804
 80064a2:	2101      	movs	r1, #1
 80064a4:	f001 fe04 	bl	80080b0 <USBD_LL_PrepareReceive>
    (void)USBD_LL_PrepareReceive(pdev, CDC_OUT_EP, hcdc->RxBuffer,
                                 CDC_DATA_FS_OUT_PACKET_SIZE);
  }

  return (uint8_t)USBD_OK;
}
 80064a8:	4620      	mov	r0, r4
 80064aa:	bd10      	pop	{r4, pc}
    (void)USBD_LL_PrepareReceive(pdev, CDC_OUT_EP, hcdc->RxBuffer,
 80064ac:	2340      	movs	r3, #64	; 0x40
 80064ae:	f8d2 2804 	ldr.w	r2, [r2, #2052]	; 0x804
 80064b2:	2101      	movs	r1, #1
 80064b4:	f001 fdfc 	bl	80080b0 <USBD_LL_PrepareReceive>
  return (uint8_t)USBD_OK;
 80064b8:	2400      	movs	r4, #0
 80064ba:	e7f5      	b.n	80064a8 <USBD_CDC_ReceivePacket+0x1a>
    return (uint8_t)USBD_FAIL;
 80064bc:	2403      	movs	r4, #3
 80064be:	e7f3      	b.n	80064a8 <USBD_CDC_ReceivePacket+0x1a>

080064c0 <USBD_Init>:
* @param  id: Low level core index
* @retval None
*/
USBD_StatusTypeDef USBD_Init(USBD_HandleTypeDef *pdev,
                             USBD_DescriptorsTypeDef *pdesc, uint8_t id)
{
 80064c0:	b508      	push	{r3, lr}
  USBD_StatusTypeDef ret;

  /* Check whether the USB Host handle is valid */
  if (pdev == NULL)
 80064c2:	b1b8      	cbz	r0, 80064f4 <USBD_Init+0x34>
 80064c4:	4603      	mov	r3, r0
#endif
    return USBD_FAIL;
  }

  /* Unlink previous class */
  if (pdev->pClass != NULL)
 80064c6:	f8d0 02b8 	ldr.w	r0, [r0, #696]	; 0x2b8
 80064ca:	b110      	cbz	r0, 80064d2 <USBD_Init+0x12>
  {
    pdev->pClass = NULL;
 80064cc:	2000      	movs	r0, #0
 80064ce:	f8c3 02b8 	str.w	r0, [r3, #696]	; 0x2b8
  }

  if (pdev->pConfDesc != NULL)
 80064d2:	f8d3 02cc 	ldr.w	r0, [r3, #716]	; 0x2cc
 80064d6:	b110      	cbz	r0, 80064de <USBD_Init+0x1e>
  {
    pdev->pConfDesc = NULL;
 80064d8:	2000      	movs	r0, #0
 80064da:	f8c3 02cc 	str.w	r0, [r3, #716]	; 0x2cc
  }

  /* Assign USBD Descriptors */
  if (pdesc != NULL)
 80064de:	b109      	cbz	r1, 80064e4 <USBD_Init+0x24>
  {
    pdev->pDesc = pdesc;
 80064e0:	f8c3 12b4 	str.w	r1, [r3, #692]	; 0x2b4
  }

  /* Set Device initial State */
  pdev->dev_state = USBD_STATE_DEFAULT;
 80064e4:	2101      	movs	r1, #1
 80064e6:	f883 129c 	strb.w	r1, [r3, #668]	; 0x29c
  pdev->id = id;
 80064ea:	701a      	strb	r2, [r3, #0]

  /* Initialize low level driver */
  ret = USBD_LL_Init(pdev);
 80064ec:	4618      	mov	r0, r3
 80064ee:	f001 fd43 	bl	8007f78 <USBD_LL_Init>

  return ret;
}
 80064f2:	bd08      	pop	{r3, pc}
    USBD_ErrLog("Invalid Device handle");
 80064f4:	4805      	ldr	r0, [pc, #20]	; (800650c <USBD_Init+0x4c>)
 80064f6:	f001 ff99 	bl	800842c <iprintf>
 80064fa:	4805      	ldr	r0, [pc, #20]	; (8006510 <USBD_Init+0x50>)
 80064fc:	f001 ff96 	bl	800842c <iprintf>
 8006500:	200a      	movs	r0, #10
 8006502:	f001 ffab 	bl	800845c <putchar>
    return USBD_FAIL;
 8006506:	2003      	movs	r0, #3
 8006508:	e7f3      	b.n	80064f2 <USBD_Init+0x32>
 800650a:	bf00      	nop
 800650c:	080092f0 	.word	0x080092f0
 8006510:	080092f8 	.word	0x080092f8

08006514 <USBD_RegisterClass>:
  * @param  pDevice : Device Handle
  * @param  pclass: Class handle
  * @retval USBD Status
  */
USBD_StatusTypeDef USBD_RegisterClass(USBD_HandleTypeDef *pdev, USBD_ClassTypeDef *pclass)
{
 8006514:	b510      	push	{r4, lr}
 8006516:	b082      	sub	sp, #8
  uint16_t len = 0U;
 8006518:	2300      	movs	r3, #0
 800651a:	f8ad 3006 	strh.w	r3, [sp, #6]

  if (pclass == NULL)
 800651e:	b159      	cbz	r1, 8006538 <USBD_RegisterClass+0x24>
 8006520:	4604      	mov	r4, r0
#endif
    return USBD_FAIL;
  }

  /* link the class to the USB Device handle */
  pdev->pClass = pclass;
 8006522:	f8c0 12b8 	str.w	r1, [r0, #696]	; 0x2b8

  /* Get Device Configuration Descriptor */
#ifdef USE_USB_FS
  pdev->pConfDesc = (void *)pdev->pClass->GetFSConfigDescriptor(&len);
#else /* USE_USB_HS */
  pdev->pConfDesc = (void *)pdev->pClass->GetHSConfigDescriptor(&len);
 8006526:	6a8b      	ldr	r3, [r1, #40]	; 0x28
 8006528:	f10d 0006 	add.w	r0, sp, #6
 800652c:	4798      	blx	r3
 800652e:	f8c4 02cc 	str.w	r0, [r4, #716]	; 0x2cc
#endif /* USE_USB_FS */


  return USBD_OK;
 8006532:	2000      	movs	r0, #0
}
 8006534:	b002      	add	sp, #8
 8006536:	bd10      	pop	{r4, pc}
    USBD_ErrLog("Invalid Class handle");
 8006538:	4805      	ldr	r0, [pc, #20]	; (8006550 <USBD_RegisterClass+0x3c>)
 800653a:	f001 ff77 	bl	800842c <iprintf>
 800653e:	4805      	ldr	r0, [pc, #20]	; (8006554 <USBD_RegisterClass+0x40>)
 8006540:	f001 ff74 	bl	800842c <iprintf>
 8006544:	200a      	movs	r0, #10
 8006546:	f001 ff89 	bl	800845c <putchar>
    return USBD_FAIL;
 800654a:	2003      	movs	r0, #3
 800654c:	e7f2      	b.n	8006534 <USBD_RegisterClass+0x20>
 800654e:	bf00      	nop
 8006550:	080092f0 	.word	0x080092f0
 8006554:	08009310 	.word	0x08009310

08006558 <USBD_Start>:
  *         Start the USB Device Core.
  * @param  pdev: Device Handle
  * @retval USBD Status
  */
USBD_StatusTypeDef USBD_Start(USBD_HandleTypeDef *pdev)
{
 8006558:	b508      	push	{r3, lr}
  /* Start the low level driver  */
  return USBD_LL_Start(pdev);
 800655a:	f001 fd6e 	bl	800803a <USBD_LL_Start>
}
 800655e:	bd08      	pop	{r3, pc}

08006560 <USBD_SetClassConfig>:
* @param  cfgidx: configuration index
* @retval status
*/

USBD_StatusTypeDef USBD_SetClassConfig(USBD_HandleTypeDef *pdev, uint8_t cfgidx)
{
 8006560:	b508      	push	{r3, lr}
  USBD_StatusTypeDef ret = USBD_FAIL;

  if (pdev->pClass != NULL)
 8006562:	f8d0 32b8 	ldr.w	r3, [r0, #696]	; 0x2b8
 8006566:	b113      	cbz	r3, 800656e <USBD_SetClassConfig+0xe>
  {
    /* Set configuration and Start the Class */
    ret = (USBD_StatusTypeDef)pdev->pClass->Init(pdev, cfgidx);
 8006568:	681b      	ldr	r3, [r3, #0]
 800656a:	4798      	blx	r3
  }

  return ret;
}
 800656c:	bd08      	pop	{r3, pc}
  USBD_StatusTypeDef ret = USBD_FAIL;
 800656e:	2003      	movs	r0, #3
 8006570:	e7fc      	b.n	800656c <USBD_SetClassConfig+0xc>

08006572 <USBD_ClrClassConfig>:
* @param  pdev: device instance
* @param  cfgidx: configuration index
* @retval status: USBD_StatusTypeDef
*/
USBD_StatusTypeDef USBD_ClrClassConfig(USBD_HandleTypeDef *pdev, uint8_t cfgidx)
{
 8006572:	b508      	push	{r3, lr}
  /* Clear configuration and De-initialize the Class process */
  if (pdev->pClass != NULL)
 8006574:	f8d0 32b8 	ldr.w	r3, [r0, #696]	; 0x2b8
 8006578:	b10b      	cbz	r3, 800657e <USBD_ClrClassConfig+0xc>
  {
    pdev->pClass->DeInit(pdev, cfgidx);
 800657a:	685b      	ldr	r3, [r3, #4]
 800657c:	4798      	blx	r3
  }

  return USBD_OK;
}
 800657e:	2000      	movs	r0, #0
 8006580:	bd08      	pop	{r3, pc}

08006582 <USBD_LL_SetupStage>:
*         Handle the setup stage
* @param  pdev: device instance
* @retval status
*/
USBD_StatusTypeDef USBD_LL_SetupStage(USBD_HandleTypeDef *pdev, uint8_t *psetup)
{
 8006582:	b538      	push	{r3, r4, r5, lr}
 8006584:	4604      	mov	r4, r0
  USBD_StatusTypeDef ret;

  USBD_ParseSetupRequest(&pdev->request, psetup);
 8006586:	f200 25aa 	addw	r5, r0, #682	; 0x2aa
 800658a:	4628      	mov	r0, r5
 800658c:	f000 f92d 	bl	80067ea <USBD_ParseSetupRequest>

  pdev->ep0_state = USBD_EP0_SETUP;
 8006590:	2301      	movs	r3, #1
 8006592:	f8c4 3294 	str.w	r3, [r4, #660]	; 0x294

  pdev->ep0_data_len = pdev->request.wLength;
 8006596:	f8b4 32b0 	ldrh.w	r3, [r4, #688]	; 0x2b0
 800659a:	f8c4 3298 	str.w	r3, [r4, #664]	; 0x298

  switch (pdev->request.bmRequest & 0x1FU)
 800659e:	f894 12aa 	ldrb.w	r1, [r4, #682]	; 0x2aa
 80065a2:	f001 031f 	and.w	r3, r1, #31
 80065a6:	2b01      	cmp	r3, #1
 80065a8:	d00d      	beq.n	80065c6 <USBD_LL_SetupStage+0x44>
 80065aa:	2b02      	cmp	r3, #2
 80065ac:	d010      	beq.n	80065d0 <USBD_LL_SetupStage+0x4e>
 80065ae:	b12b      	cbz	r3, 80065bc <USBD_LL_SetupStage+0x3a>
    case USB_REQ_RECIPIENT_ENDPOINT:
      ret = USBD_StdEPReq(pdev, &pdev->request);
      break;

    default:
      ret = USBD_LL_StallEP(pdev, (pdev->request.bmRequest & 0x80U));
 80065b0:	f001 0180 	and.w	r1, r1, #128	; 0x80
 80065b4:	4620      	mov	r0, r4
 80065b6:	f001 fd5b 	bl	8008070 <USBD_LL_StallEP>
      break;
 80065ba:	e003      	b.n	80065c4 <USBD_LL_SetupStage+0x42>
      ret = USBD_StdDevReq(pdev, &pdev->request);
 80065bc:	4629      	mov	r1, r5
 80065be:	4620      	mov	r0, r4
 80065c0:	f000 face 	bl	8006b60 <USBD_StdDevReq>
  }

  return ret;
}
 80065c4:	bd38      	pop	{r3, r4, r5, pc}
      ret = USBD_StdItfReq(pdev, &pdev->request);
 80065c6:	4629      	mov	r1, r5
 80065c8:	4620      	mov	r0, r4
 80065ca:	f000 fb01 	bl	8006bd0 <USBD_StdItfReq>
      break;
 80065ce:	e7f9      	b.n	80065c4 <USBD_LL_SetupStage+0x42>
      ret = USBD_StdEPReq(pdev, &pdev->request);
 80065d0:	4629      	mov	r1, r5
 80065d2:	4620      	mov	r0, r4
 80065d4:	f000 fb30 	bl	8006c38 <USBD_StdEPReq>
      break;
 80065d8:	e7f4      	b.n	80065c4 <USBD_LL_SetupStage+0x42>

080065da <USBD_LL_DataOutStage>:
* @param  epnum: endpoint index
* @retval status
*/
USBD_StatusTypeDef USBD_LL_DataOutStage(USBD_HandleTypeDef *pdev,
                                        uint8_t epnum, uint8_t *pdata)
{
 80065da:	b538      	push	{r3, r4, r5, lr}
 80065dc:	4604      	mov	r4, r0
  USBD_EndpointTypeDef *pep;
  USBD_StatusTypeDef ret;

  if (epnum == 0U)
 80065de:	460d      	mov	r5, r1
 80065e0:	bb31      	cbnz	r1, 8006630 <USBD_LL_DataOutStage+0x56>
 80065e2:	4613      	mov	r3, r2
  {
    pep = &pdev->ep_out[0];

    if (pdev->ep0_state == USBD_EP0_DATA_OUT)
 80065e4:	f8d0 2294 	ldr.w	r2, [r0, #660]	; 0x294
 80065e8:	2a03      	cmp	r2, #3
 80065ea:	d001      	beq.n	80065f0 <USBD_LL_DataOutStage+0x16>
  {
    /* should never be in this condition */
    return USBD_FAIL;
  }

  return USBD_OK;
 80065ec:	4608      	mov	r0, r1
}
 80065ee:	bd38      	pop	{r3, r4, r5, pc}
      if (pep->rem_length > pep->maxpacket)
 80065f0:	f8d0 115c 	ldr.w	r1, [r0, #348]	; 0x15c
 80065f4:	f8d0 2160 	ldr.w	r2, [r0, #352]	; 0x160
 80065f8:	4291      	cmp	r1, r2
 80065fa:	d80c      	bhi.n	8006616 <USBD_LL_DataOutStage+0x3c>
        if ((pdev->pClass->EP0_RxReady != NULL) &&
 80065fc:	f8d0 32b8 	ldr.w	r3, [r0, #696]	; 0x2b8
 8006600:	691b      	ldr	r3, [r3, #16]
 8006602:	b11b      	cbz	r3, 800660c <USBD_LL_DataOutStage+0x32>
            (pdev->dev_state == USBD_STATE_CONFIGURED))
 8006604:	f890 229c 	ldrb.w	r2, [r0, #668]	; 0x29c
        if ((pdev->pClass->EP0_RxReady != NULL) &&
 8006608:	2a03      	cmp	r2, #3
 800660a:	d00f      	beq.n	800662c <USBD_LL_DataOutStage+0x52>
        (void)USBD_CtlSendStatus(pdev);
 800660c:	4620      	mov	r0, r4
 800660e:	f000 fc63 	bl	8006ed8 <USBD_CtlSendStatus>
  return USBD_OK;
 8006612:	4628      	mov	r0, r5
 8006614:	e7eb      	b.n	80065ee <USBD_LL_DataOutStage+0x14>
        pep->rem_length -= pep->maxpacket;
 8006616:	1a89      	subs	r1, r1, r2
 8006618:	f8c0 115c 	str.w	r1, [r0, #348]	; 0x15c
        (void)USBD_CtlContinueRx(pdev, pdata, MIN(pep->rem_length, pep->maxpacket));
 800661c:	428a      	cmp	r2, r1
 800661e:	bf28      	it	cs
 8006620:	460a      	movcs	r2, r1
 8006622:	4619      	mov	r1, r3
 8006624:	f000 fc50 	bl	8006ec8 <USBD_CtlContinueRx>
  return USBD_OK;
 8006628:	4628      	mov	r0, r5
 800662a:	e7e0      	b.n	80065ee <USBD_LL_DataOutStage+0x14>
          pdev->pClass->EP0_RxReady(pdev);
 800662c:	4798      	blx	r3
 800662e:	e7ed      	b.n	800660c <USBD_LL_DataOutStage+0x32>
  else if ((pdev->pClass->DataOut != NULL) &&
 8006630:	f8d0 32b8 	ldr.w	r3, [r0, #696]	; 0x2b8
 8006634:	699b      	ldr	r3, [r3, #24]
 8006636:	b12b      	cbz	r3, 8006644 <USBD_LL_DataOutStage+0x6a>
           (pdev->dev_state == USBD_STATE_CONFIGURED))
 8006638:	f890 229c 	ldrb.w	r2, [r0, #668]	; 0x29c
  else if ((pdev->pClass->DataOut != NULL) &&
 800663c:	2a03      	cmp	r2, #3
 800663e:	d103      	bne.n	8006648 <USBD_LL_DataOutStage+0x6e>
    ret = (USBD_StatusTypeDef)pdev->pClass->DataOut(pdev, epnum);
 8006640:	4798      	blx	r3
    if (ret != USBD_OK)
 8006642:	e7d4      	b.n	80065ee <USBD_LL_DataOutStage+0x14>
    return USBD_FAIL;
 8006644:	2003      	movs	r0, #3
 8006646:	e7d2      	b.n	80065ee <USBD_LL_DataOutStage+0x14>
 8006648:	2003      	movs	r0, #3
 800664a:	e7d0      	b.n	80065ee <USBD_LL_DataOutStage+0x14>

0800664c <USBD_LL_DataInStage>:
* @param  epnum: endpoint index
* @retval status
*/
USBD_StatusTypeDef USBD_LL_DataInStage(USBD_HandleTypeDef *pdev,
                                       uint8_t epnum, uint8_t *pdata)
{
 800664c:	b538      	push	{r3, r4, r5, lr}
 800664e:	4604      	mov	r4, r0
  USBD_EndpointTypeDef *pep;
  USBD_StatusTypeDef ret;

  if (epnum == 0U)
 8006650:	460d      	mov	r5, r1
 8006652:	2900      	cmp	r1, #0
 8006654:	d148      	bne.n	80066e8 <USBD_LL_DataInStage+0x9c>
 8006656:	4613      	mov	r3, r2
  {
    pep = &pdev->ep_in[0];

    if (pdev->ep0_state == USBD_EP0_DATA_IN)
 8006658:	f8d0 2294 	ldr.w	r2, [r0, #660]	; 0x294
 800665c:	2a02      	cmp	r2, #2
 800665e:	d005      	beq.n	800666c <USBD_LL_DataInStage+0x20>
        (void)USBD_LL_StallEP(pdev, 0x80U);
      }
#endif
    }

    if (pdev->dev_test_mode == 1U)
 8006660:	f894 32a0 	ldrb.w	r3, [r4, #672]	; 0x2a0
 8006664:	2b01      	cmp	r3, #1
 8006666:	d03a      	beq.n	80066de <USBD_LL_DataInStage+0x92>
  {
    /* should never be in this condition */
    return USBD_FAIL;
  }

  return USBD_OK;
 8006668:	4628      	mov	r0, r5
}
 800666a:	bd38      	pop	{r3, r4, r5, pc}
      if (pep->rem_length > pep->maxpacket)
 800666c:	69c2      	ldr	r2, [r0, #28]
 800666e:	6a01      	ldr	r1, [r0, #32]
 8006670:	428a      	cmp	r2, r1
 8006672:	d811      	bhi.n	8006698 <USBD_LL_DataInStage+0x4c>
        if ((pep->maxpacket == pep->rem_length) &&
 8006674:	428a      	cmp	r2, r1
 8006676:	d01b      	beq.n	80066b0 <USBD_LL_DataInStage+0x64>
          if ((pdev->pClass->EP0_TxSent != NULL) &&
 8006678:	f8d4 32b8 	ldr.w	r3, [r4, #696]	; 0x2b8
 800667c:	68db      	ldr	r3, [r3, #12]
 800667e:	b11b      	cbz	r3, 8006688 <USBD_LL_DataInStage+0x3c>
              (pdev->dev_state == USBD_STATE_CONFIGURED))
 8006680:	f894 229c 	ldrb.w	r2, [r4, #668]	; 0x29c
          if ((pdev->pClass->EP0_TxSent != NULL) &&
 8006684:	2a03      	cmp	r2, #3
 8006686:	d027      	beq.n	80066d8 <USBD_LL_DataInStage+0x8c>
          (void)USBD_LL_StallEP(pdev, 0x80U);
 8006688:	2180      	movs	r1, #128	; 0x80
 800668a:	4620      	mov	r0, r4
 800668c:	f001 fcf0 	bl	8008070 <USBD_LL_StallEP>
          (void)USBD_CtlReceiveStatus(pdev);
 8006690:	4620      	mov	r0, r4
 8006692:	f000 fc2c 	bl	8006eee <USBD_CtlReceiveStatus>
 8006696:	e7e3      	b.n	8006660 <USBD_LL_DataInStage+0x14>
        pep->rem_length -= pep->maxpacket;
 8006698:	1a52      	subs	r2, r2, r1
 800669a:	61c2      	str	r2, [r0, #28]
        (void)USBD_CtlContinueSendData(pdev, pdata, pep->rem_length);
 800669c:	4619      	mov	r1, r3
 800669e:	f000 fbfc 	bl	8006e9a <USBD_CtlContinueSendData>
       (void)USBD_LL_PrepareReceive(pdev, 0U, NULL, 0U);
 80066a2:	2300      	movs	r3, #0
 80066a4:	461a      	mov	r2, r3
 80066a6:	4619      	mov	r1, r3
 80066a8:	4620      	mov	r0, r4
 80066aa:	f001 fd01 	bl	80080b0 <USBD_LL_PrepareReceive>
 80066ae:	e7d7      	b.n	8006660 <USBD_LL_DataInStage+0x14>
            (pep->total_length >= pep->maxpacket) &&
 80066b0:	6983      	ldr	r3, [r0, #24]
        if ((pep->maxpacket == pep->rem_length) &&
 80066b2:	4299      	cmp	r1, r3
 80066b4:	d8e0      	bhi.n	8006678 <USBD_LL_DataInStage+0x2c>
            (pep->total_length < pdev->ep0_data_len))
 80066b6:	f8d0 2298 	ldr.w	r2, [r0, #664]	; 0x298
            (pep->total_length >= pep->maxpacket) &&
 80066ba:	4293      	cmp	r3, r2
 80066bc:	d2dc      	bcs.n	8006678 <USBD_LL_DataInStage+0x2c>
          (void)USBD_CtlContinueSendData(pdev, NULL, 0U);
 80066be:	2200      	movs	r2, #0
 80066c0:	4611      	mov	r1, r2
 80066c2:	f000 fbea 	bl	8006e9a <USBD_CtlContinueSendData>
          pdev->ep0_data_len = 0U;
 80066c6:	2100      	movs	r1, #0
 80066c8:	f8c4 1298 	str.w	r1, [r4, #664]	; 0x298
          (void)USBD_LL_PrepareReceive(pdev, 0U, NULL, 0U);
 80066cc:	460b      	mov	r3, r1
 80066ce:	460a      	mov	r2, r1
 80066d0:	4620      	mov	r0, r4
 80066d2:	f001 fced 	bl	80080b0 <USBD_LL_PrepareReceive>
 80066d6:	e7c3      	b.n	8006660 <USBD_LL_DataInStage+0x14>
            pdev->pClass->EP0_TxSent(pdev);
 80066d8:	4620      	mov	r0, r4
 80066da:	4798      	blx	r3
 80066dc:	e7d4      	b.n	8006688 <USBD_LL_DataInStage+0x3c>
      pdev->dev_test_mode = 0U;
 80066de:	2300      	movs	r3, #0
 80066e0:	f884 32a0 	strb.w	r3, [r4, #672]	; 0x2a0
  return USBD_OK;
 80066e4:	4628      	mov	r0, r5
 80066e6:	e7c0      	b.n	800666a <USBD_LL_DataInStage+0x1e>
  else if ((pdev->pClass->DataIn != NULL) &&
 80066e8:	f8d0 32b8 	ldr.w	r3, [r0, #696]	; 0x2b8
 80066ec:	695b      	ldr	r3, [r3, #20]
 80066ee:	b12b      	cbz	r3, 80066fc <USBD_LL_DataInStage+0xb0>
           (pdev->dev_state == USBD_STATE_CONFIGURED))
 80066f0:	f890 229c 	ldrb.w	r2, [r0, #668]	; 0x29c
  else if ((pdev->pClass->DataIn != NULL) &&
 80066f4:	2a03      	cmp	r2, #3
 80066f6:	d103      	bne.n	8006700 <USBD_LL_DataInStage+0xb4>
    ret = (USBD_StatusTypeDef)pdev->pClass->DataIn(pdev, epnum);
 80066f8:	4798      	blx	r3
    if (ret != USBD_OK)
 80066fa:	e7b6      	b.n	800666a <USBD_LL_DataInStage+0x1e>
    return USBD_FAIL;
 80066fc:	2003      	movs	r0, #3
 80066fe:	e7b4      	b.n	800666a <USBD_LL_DataInStage+0x1e>
 8006700:	2003      	movs	r0, #3
 8006702:	e7b2      	b.n	800666a <USBD_LL_DataInStage+0x1e>

08006704 <USBD_LL_Reset>:
* @param  pdev: device instance
* @retval status
*/

USBD_StatusTypeDef USBD_LL_Reset(USBD_HandleTypeDef *pdev)
{
 8006704:	b570      	push	{r4, r5, r6, lr}
 8006706:	4604      	mov	r4, r0
  /* Upon Reset call user call back */
  pdev->dev_state = USBD_STATE_DEFAULT;
 8006708:	2301      	movs	r3, #1
 800670a:	f880 329c 	strb.w	r3, [r0, #668]	; 0x29c
  pdev->ep0_state = USBD_EP0_IDLE;
 800670e:	2300      	movs	r3, #0
 8006710:	f8c0 3294 	str.w	r3, [r0, #660]	; 0x294
  pdev->dev_config = 0U;
 8006714:	6043      	str	r3, [r0, #4]
  pdev->dev_remote_wakeup = 0U;
 8006716:	f8c0 32a4 	str.w	r3, [r0, #676]	; 0x2a4

  if (pdev->pClassData != NULL)
 800671a:	f8d0 32bc 	ldr.w	r3, [r0, #700]	; 0x2bc
 800671e:	b123      	cbz	r3, 800672a <USBD_LL_Reset+0x26>
  {
    pdev->pClass->DeInit(pdev, (uint8_t)pdev->dev_config);
 8006720:	f8d0 32b8 	ldr.w	r3, [r0, #696]	; 0x2b8
 8006724:	685b      	ldr	r3, [r3, #4]
 8006726:	2100      	movs	r1, #0
 8006728:	4798      	blx	r3
  }

    /* Open EP0 OUT */
  (void)USBD_LL_OpenEP(pdev, 0x00U, USBD_EP_TYPE_CTRL, USB_MAX_EP0_SIZE);
 800672a:	2340      	movs	r3, #64	; 0x40
 800672c:	2200      	movs	r2, #0
 800672e:	4611      	mov	r1, r2
 8006730:	4620      	mov	r0, r4
 8006732:	f001 fc8a 	bl	800804a <USBD_LL_OpenEP>
  pdev->ep_out[0x00U & 0xFU].is_used = 1U;
 8006736:	2601      	movs	r6, #1
 8006738:	f8a4 6164 	strh.w	r6, [r4, #356]	; 0x164

  pdev->ep_out[0].maxpacket = USB_MAX_EP0_SIZE;
 800673c:	2540      	movs	r5, #64	; 0x40
 800673e:	f8c4 5160 	str.w	r5, [r4, #352]	; 0x160

  /* Open EP0 IN */
  (void)USBD_LL_OpenEP(pdev, 0x80U, USBD_EP_TYPE_CTRL, USB_MAX_EP0_SIZE);
 8006742:	462b      	mov	r3, r5
 8006744:	2200      	movs	r2, #0
 8006746:	2180      	movs	r1, #128	; 0x80
 8006748:	4620      	mov	r0, r4
 800674a:	f001 fc7e 	bl	800804a <USBD_LL_OpenEP>
  pdev->ep_in[0x80U & 0xFU].is_used = 1U;
 800674e:	84a6      	strh	r6, [r4, #36]	; 0x24

  pdev->ep_in[0].maxpacket = USB_MAX_EP0_SIZE;
 8006750:	6225      	str	r5, [r4, #32]

  return USBD_OK;
}
 8006752:	2000      	movs	r0, #0
 8006754:	bd70      	pop	{r4, r5, r6, pc}

08006756 <USBD_LL_SetSpeed>:
* @retval status
*/
USBD_StatusTypeDef USBD_LL_SetSpeed(USBD_HandleTypeDef *pdev,
                                    USBD_SpeedTypeDef speed)
{
  pdev->dev_speed = speed;
 8006756:	7401      	strb	r1, [r0, #16]

  return USBD_OK;
}
 8006758:	2000      	movs	r0, #0
 800675a:	4770      	bx	lr

0800675c <USBD_LL_Suspend>:
* @retval status
*/

USBD_StatusTypeDef USBD_LL_Suspend(USBD_HandleTypeDef *pdev)
{
  pdev->dev_old_state = pdev->dev_state;
 800675c:	f890 329c 	ldrb.w	r3, [r0, #668]	; 0x29c
 8006760:	f880 329d 	strb.w	r3, [r0, #669]	; 0x29d
  pdev->dev_state = USBD_STATE_SUSPENDED;
 8006764:	2304      	movs	r3, #4
 8006766:	f880 329c 	strb.w	r3, [r0, #668]	; 0x29c

  return USBD_OK;
}
 800676a:	2000      	movs	r0, #0
 800676c:	4770      	bx	lr

0800676e <USBD_LL_Resume>:
* @retval status
*/

USBD_StatusTypeDef USBD_LL_Resume(USBD_HandleTypeDef *pdev)
{
  if (pdev->dev_state == USBD_STATE_SUSPENDED)
 800676e:	f890 329c 	ldrb.w	r3, [r0, #668]	; 0x29c
 8006772:	2b04      	cmp	r3, #4
 8006774:	d001      	beq.n	800677a <USBD_LL_Resume+0xc>
  {
    pdev->dev_state = pdev->dev_old_state;
  }

  return USBD_OK;
}
 8006776:	2000      	movs	r0, #0
 8006778:	4770      	bx	lr
    pdev->dev_state = pdev->dev_old_state;
 800677a:	f890 329d 	ldrb.w	r3, [r0, #669]	; 0x29d
 800677e:	f880 329c 	strb.w	r3, [r0, #668]	; 0x29c
 8006782:	e7f8      	b.n	8006776 <USBD_LL_Resume+0x8>

08006784 <USBD_LL_SOF>:
* @param  pdev: device instance
* @retval status
*/

USBD_StatusTypeDef USBD_LL_SOF(USBD_HandleTypeDef *pdev)
{
 8006784:	b508      	push	{r3, lr}
  if (pdev->dev_state == USBD_STATE_CONFIGURED)
 8006786:	f890 329c 	ldrb.w	r3, [r0, #668]	; 0x29c
 800678a:	2b03      	cmp	r3, #3
 800678c:	d001      	beq.n	8006792 <USBD_LL_SOF+0xe>
      pdev->pClass->SOF(pdev);
    }
  }

  return USBD_OK;
}
 800678e:	2000      	movs	r0, #0
 8006790:	bd08      	pop	{r3, pc}
    if (pdev->pClass->SOF != NULL)
 8006792:	f8d0 32b8 	ldr.w	r3, [r0, #696]	; 0x2b8
 8006796:	69db      	ldr	r3, [r3, #28]
 8006798:	2b00      	cmp	r3, #0
 800679a:	d0f8      	beq.n	800678e <USBD_LL_SOF+0xa>
      pdev->pClass->SOF(pdev);
 800679c:	4798      	blx	r3
 800679e:	e7f6      	b.n	800678e <USBD_LL_SOF+0xa>

080067a0 <USBD_LL_IsoINIncomplete>:
  /* Prevent unused arguments compilation warning */
  UNUSED(pdev);
  UNUSED(epnum);

  return USBD_OK;
}
 80067a0:	2000      	movs	r0, #0
 80067a2:	4770      	bx	lr

080067a4 <USBD_LL_IsoOUTIncomplete>:
  /* Prevent unused arguments compilation warning */
  UNUSED(pdev);
  UNUSED(epnum);

  return USBD_OK;
}
 80067a4:	2000      	movs	r0, #0
 80067a6:	4770      	bx	lr

080067a8 <USBD_LL_DevConnected>:
{
  /* Prevent unused argument compilation warning */
  UNUSED(pdev);

  return USBD_OK;
}
 80067a8:	2000      	movs	r0, #0
 80067aa:	4770      	bx	lr

080067ac <USBD_LL_DevDisconnected>:
*         Handle device disconnection event
* @param  pdev: device instance
* @retval status
*/
USBD_StatusTypeDef USBD_LL_DevDisconnected(USBD_HandleTypeDef *pdev)
{
 80067ac:	b508      	push	{r3, lr}
  /* Free Class Resources */
  pdev->dev_state = USBD_STATE_DEFAULT;
 80067ae:	2301      	movs	r3, #1
 80067b0:	f880 329c 	strb.w	r3, [r0, #668]	; 0x29c

  if (pdev->pClass != NULL)
 80067b4:	f8d0 32b8 	ldr.w	r3, [r0, #696]	; 0x2b8
 80067b8:	b113      	cbz	r3, 80067c0 <USBD_LL_DevDisconnected+0x14>
  {
    pdev->pClass->DeInit(pdev, (uint8_t)pdev->dev_config);
 80067ba:	685b      	ldr	r3, [r3, #4]
 80067bc:	7901      	ldrb	r1, [r0, #4]
 80067be:	4798      	blx	r3
  }

  return USBD_OK;
}
 80067c0:	2000      	movs	r0, #0
 80067c2:	bd08      	pop	{r3, pc}

080067c4 <USBD_GetLen>:
  *         return the string length
   * @param  buf : pointer to the ascii string buffer
  * @retval string length
  */
static uint8_t USBD_GetLen(uint8_t *buf)
{
 80067c4:	4603      	mov	r3, r0
  uint8_t  len = 0U;
 80067c6:	2000      	movs	r0, #0
  uint8_t *pbuff = buf;

  while (*pbuff != (uint8_t)'\0')
 80067c8:	781a      	ldrb	r2, [r3, #0]
 80067ca:	b11a      	cbz	r2, 80067d4 <USBD_GetLen+0x10>
  {
    len++;
 80067cc:	3001      	adds	r0, #1
 80067ce:	b2c0      	uxtb	r0, r0
    pbuff++;
 80067d0:	3301      	adds	r3, #1
 80067d2:	e7f9      	b.n	80067c8 <USBD_GetLen+0x4>
  }

  return len;
}
 80067d4:	4770      	bx	lr

080067d6 <USBD_SetFeature>:
{
 80067d6:	b508      	push	{r3, lr}
  if (req->wValue == USB_FEATURE_REMOTE_WAKEUP)
 80067d8:	884b      	ldrh	r3, [r1, #2]
 80067da:	2b01      	cmp	r3, #1
 80067dc:	d000      	beq.n	80067e0 <USBD_SetFeature+0xa>
}
 80067de:	bd08      	pop	{r3, pc}
    pdev->dev_remote_wakeup = 1U;
 80067e0:	f8c0 32a4 	str.w	r3, [r0, #676]	; 0x2a4
    (void)USBD_CtlSendStatus(pdev);
 80067e4:	f000 fb78 	bl	8006ed8 <USBD_CtlSendStatus>
}
 80067e8:	e7f9      	b.n	80067de <USBD_SetFeature+0x8>

080067ea <USBD_ParseSetupRequest>:
  req->bmRequest = *(uint8_t *)(pbuff);
 80067ea:	780b      	ldrb	r3, [r1, #0]
 80067ec:	7003      	strb	r3, [r0, #0]
  req->bRequest = *(uint8_t *)(pbuff);
 80067ee:	784b      	ldrb	r3, [r1, #1]
 80067f0:	7043      	strb	r3, [r0, #1]
__STATIC_INLINE uint16_t SWAPBYTE(uint8_t *addr)
{
  uint16_t _SwapVal, _Byte1, _Byte2;
  uint8_t *_pbuff = addr;

  _Byte1 = *(uint8_t *)_pbuff;
 80067f2:	788b      	ldrb	r3, [r1, #2]
  _pbuff++;
  _Byte2 = *(uint8_t *)_pbuff;
 80067f4:	78ca      	ldrb	r2, [r1, #3]

  _SwapVal = (_Byte2 << 8) | _Byte1;
 80067f6:	ea43 2302 	orr.w	r3, r3, r2, lsl #8
  req->wValue = SWAPBYTE(pbuff);
 80067fa:	8043      	strh	r3, [r0, #2]
  _Byte1 = *(uint8_t *)_pbuff;
 80067fc:	790b      	ldrb	r3, [r1, #4]
  _Byte2 = *(uint8_t *)_pbuff;
 80067fe:	794a      	ldrb	r2, [r1, #5]
  _SwapVal = (_Byte2 << 8) | _Byte1;
 8006800:	ea43 2302 	orr.w	r3, r3, r2, lsl #8
  req->wIndex = SWAPBYTE(pbuff);
 8006804:	8083      	strh	r3, [r0, #4]
  _Byte1 = *(uint8_t *)_pbuff;
 8006806:	798b      	ldrb	r3, [r1, #6]
  _Byte2 = *(uint8_t *)_pbuff;
 8006808:	79ca      	ldrb	r2, [r1, #7]
  _SwapVal = (_Byte2 << 8) | _Byte1;
 800680a:	ea43 2302 	orr.w	r3, r3, r2, lsl #8
  req->wLength = SWAPBYTE(pbuff);
 800680e:	80c3      	strh	r3, [r0, #6]
}
 8006810:	4770      	bx	lr

08006812 <USBD_CtlError>:
{
 8006812:	b510      	push	{r4, lr}
 8006814:	4604      	mov	r4, r0
  (void)USBD_LL_StallEP(pdev, 0x80U);
 8006816:	2180      	movs	r1, #128	; 0x80
 8006818:	f001 fc2a 	bl	8008070 <USBD_LL_StallEP>
  (void)USBD_LL_StallEP(pdev, 0U);
 800681c:	2100      	movs	r1, #0
 800681e:	4620      	mov	r0, r4
 8006820:	f001 fc26 	bl	8008070 <USBD_LL_StallEP>
}
 8006824:	bd10      	pop	{r4, pc}

08006826 <USBD_GetDescriptor>:
{
 8006826:	b530      	push	{r4, r5, lr}
 8006828:	b083      	sub	sp, #12
 800682a:	4604      	mov	r4, r0
 800682c:	460d      	mov	r5, r1
  uint16_t len = 0U;
 800682e:	2300      	movs	r3, #0
 8006830:	f8ad 3006 	strh.w	r3, [sp, #6]
  switch (req->wValue >> 8)
 8006834:	884a      	ldrh	r2, [r1, #2]
 8006836:	0a13      	lsrs	r3, r2, #8
 8006838:	3b01      	subs	r3, #1
 800683a:	2b06      	cmp	r3, #6
 800683c:	f200 80ab 	bhi.w	8006996 <USBD_GetDescriptor+0x170>
 8006840:	e8df f003 	tbb	[pc, r3]
 8006844:	a9331f04 	.word	0xa9331f04
 8006848:	8da9      	.short	0x8da9
 800684a:	9a          	.byte	0x9a
 800684b:	00          	.byte	0x00
    pbuf = pdev->pDesc->GetDeviceDescriptor(pdev->dev_speed, &len);
 800684c:	f8d0 32b4 	ldr.w	r3, [r0, #692]	; 0x2b4
 8006850:	681b      	ldr	r3, [r3, #0]
 8006852:	f10d 0106 	add.w	r1, sp, #6
 8006856:	7c00      	ldrb	r0, [r0, #16]
 8006858:	4798      	blx	r3
    if (req->wLength != 0U)
 800685a:	88ea      	ldrh	r2, [r5, #6]
 800685c:	2a00      	cmp	r2, #0
 800685e:	f000 80a3 	beq.w	80069a8 <USBD_GetDescriptor+0x182>
      if (len != 0U)
 8006862:	f8bd 3006 	ldrh.w	r3, [sp, #6]
 8006866:	2b00      	cmp	r3, #0
 8006868:	f000 8099 	beq.w	800699e <USBD_GetDescriptor+0x178>
        len = MIN(len, req->wLength);
 800686c:	429a      	cmp	r2, r3
 800686e:	bf28      	it	cs
 8006870:	461a      	movcs	r2, r3
 8006872:	f8ad 2006 	strh.w	r2, [sp, #6]
        (void)USBD_CtlSendData(pdev, pbuf, len);
 8006876:	4601      	mov	r1, r0
 8006878:	4620      	mov	r0, r4
 800687a:	f000 fb01 	bl	8006e80 <USBD_CtlSendData>
}
 800687e:	b003      	add	sp, #12
 8006880:	bd30      	pop	{r4, r5, pc}
    if (pdev->dev_speed == USBD_SPEED_HIGH)
 8006882:	7c03      	ldrb	r3, [r0, #16]
 8006884:	b943      	cbnz	r3, 8006898 <USBD_GetDescriptor+0x72>
      pbuf = pdev->pClass->GetHSConfigDescriptor(&len);
 8006886:	f8d0 32b8 	ldr.w	r3, [r0, #696]	; 0x2b8
 800688a:	6a9b      	ldr	r3, [r3, #40]	; 0x28
 800688c:	f10d 0006 	add.w	r0, sp, #6
 8006890:	4798      	blx	r3
      pbuf[1] = USB_DESC_TYPE_CONFIGURATION;
 8006892:	2302      	movs	r3, #2
 8006894:	7043      	strb	r3, [r0, #1]
  if (err != 0U)
 8006896:	e7e0      	b.n	800685a <USBD_GetDescriptor+0x34>
      pbuf = pdev->pClass->GetFSConfigDescriptor(&len);
 8006898:	f8d0 32b8 	ldr.w	r3, [r0, #696]	; 0x2b8
 800689c:	6adb      	ldr	r3, [r3, #44]	; 0x2c
 800689e:	f10d 0006 	add.w	r0, sp, #6
 80068a2:	4798      	blx	r3
      pbuf[1] = USB_DESC_TYPE_CONFIGURATION;
 80068a4:	2302      	movs	r3, #2
 80068a6:	7043      	strb	r3, [r0, #1]
  if (err != 0U)
 80068a8:	e7d7      	b.n	800685a <USBD_GetDescriptor+0x34>
    switch ((uint8_t)(req->wValue))
 80068aa:	b2d2      	uxtb	r2, r2
 80068ac:	2a05      	cmp	r2, #5
 80068ae:	d852      	bhi.n	8006956 <USBD_GetDescriptor+0x130>
 80068b0:	e8df f002 	tbb	[pc, r2]
 80068b4:	2a1d1003 	.word	0x2a1d1003
 80068b8:	4437      	.short	0x4437
      if (pdev->pDesc->GetLangIDStrDescriptor != NULL)
 80068ba:	f8d0 32b4 	ldr.w	r3, [r0, #692]	; 0x2b4
 80068be:	685b      	ldr	r3, [r3, #4]
 80068c0:	b123      	cbz	r3, 80068cc <USBD_GetDescriptor+0xa6>
        pbuf = pdev->pDesc->GetLangIDStrDescriptor(pdev->dev_speed, &len);
 80068c2:	f10d 0106 	add.w	r1, sp, #6
 80068c6:	7c00      	ldrb	r0, [r0, #16]
 80068c8:	4798      	blx	r3
  if (err != 0U)
 80068ca:	e7c6      	b.n	800685a <USBD_GetDescriptor+0x34>
        USBD_CtlError(pdev, req);
 80068cc:	4629      	mov	r1, r5
 80068ce:	f7ff ffa0 	bl	8006812 <USBD_CtlError>
  if (err != 0U)
 80068d2:	e7d4      	b.n	800687e <USBD_GetDescriptor+0x58>
      if (pdev->pDesc->GetManufacturerStrDescriptor != NULL)
 80068d4:	f8d0 32b4 	ldr.w	r3, [r0, #692]	; 0x2b4
 80068d8:	689b      	ldr	r3, [r3, #8]
 80068da:	b123      	cbz	r3, 80068e6 <USBD_GetDescriptor+0xc0>
        pbuf = pdev->pDesc->GetManufacturerStrDescriptor(pdev->dev_speed, &len);
 80068dc:	f10d 0106 	add.w	r1, sp, #6
 80068e0:	7c00      	ldrb	r0, [r0, #16]
 80068e2:	4798      	blx	r3
  if (err != 0U)
 80068e4:	e7b9      	b.n	800685a <USBD_GetDescriptor+0x34>
        USBD_CtlError(pdev, req);
 80068e6:	4629      	mov	r1, r5
 80068e8:	f7ff ff93 	bl	8006812 <USBD_CtlError>
  if (err != 0U)
 80068ec:	e7c7      	b.n	800687e <USBD_GetDescriptor+0x58>
      if (pdev->pDesc->GetProductStrDescriptor != NULL)
 80068ee:	f8d0 32b4 	ldr.w	r3, [r0, #692]	; 0x2b4
 80068f2:	68db      	ldr	r3, [r3, #12]
 80068f4:	b123      	cbz	r3, 8006900 <USBD_GetDescriptor+0xda>
        pbuf = pdev->pDesc->GetProductStrDescriptor(pdev->dev_speed, &len);
 80068f6:	f10d 0106 	add.w	r1, sp, #6
 80068fa:	7c00      	ldrb	r0, [r0, #16]
 80068fc:	4798      	blx	r3
  if (err != 0U)
 80068fe:	e7ac      	b.n	800685a <USBD_GetDescriptor+0x34>
        USBD_CtlError(pdev, req);
 8006900:	4629      	mov	r1, r5
 8006902:	f7ff ff86 	bl	8006812 <USBD_CtlError>
  if (err != 0U)
 8006906:	e7ba      	b.n	800687e <USBD_GetDescriptor+0x58>
      if (pdev->pDesc->GetSerialStrDescriptor != NULL)
 8006908:	f8d0 32b4 	ldr.w	r3, [r0, #692]	; 0x2b4
 800690c:	691b      	ldr	r3, [r3, #16]
 800690e:	b123      	cbz	r3, 800691a <USBD_GetDescriptor+0xf4>
        pbuf = pdev->pDesc->GetSerialStrDescriptor(pdev->dev_speed, &len);
 8006910:	f10d 0106 	add.w	r1, sp, #6
 8006914:	7c00      	ldrb	r0, [r0, #16]
 8006916:	4798      	blx	r3
  if (err != 0U)
 8006918:	e79f      	b.n	800685a <USBD_GetDescriptor+0x34>
        USBD_CtlError(pdev, req);
 800691a:	4629      	mov	r1, r5
 800691c:	f7ff ff79 	bl	8006812 <USBD_CtlError>
  if (err != 0U)
 8006920:	e7ad      	b.n	800687e <USBD_GetDescriptor+0x58>
      if (pdev->pDesc->GetConfigurationStrDescriptor != NULL)
 8006922:	f8d0 32b4 	ldr.w	r3, [r0, #692]	; 0x2b4
 8006926:	695b      	ldr	r3, [r3, #20]
 8006928:	b123      	cbz	r3, 8006934 <USBD_GetDescriptor+0x10e>
        pbuf = pdev->pDesc->GetConfigurationStrDescriptor(pdev->dev_speed, &len);
 800692a:	f10d 0106 	add.w	r1, sp, #6
 800692e:	7c00      	ldrb	r0, [r0, #16]
 8006930:	4798      	blx	r3
  if (err != 0U)
 8006932:	e792      	b.n	800685a <USBD_GetDescriptor+0x34>
        USBD_CtlError(pdev, req);
 8006934:	4629      	mov	r1, r5
 8006936:	f7ff ff6c 	bl	8006812 <USBD_CtlError>
  if (err != 0U)
 800693a:	e7a0      	b.n	800687e <USBD_GetDescriptor+0x58>
      if (pdev->pDesc->GetInterfaceStrDescriptor != NULL)
 800693c:	f8d0 32b4 	ldr.w	r3, [r0, #692]	; 0x2b4
 8006940:	699b      	ldr	r3, [r3, #24]
 8006942:	b123      	cbz	r3, 800694e <USBD_GetDescriptor+0x128>
        pbuf = pdev->pDesc->GetInterfaceStrDescriptor(pdev->dev_speed, &len);
 8006944:	f10d 0106 	add.w	r1, sp, #6
 8006948:	7c00      	ldrb	r0, [r0, #16]
 800694a:	4798      	blx	r3
  if (err != 0U)
 800694c:	e785      	b.n	800685a <USBD_GetDescriptor+0x34>
        USBD_CtlError(pdev, req);
 800694e:	4629      	mov	r1, r5
 8006950:	f7ff ff5f 	bl	8006812 <USBD_CtlError>
  if (err != 0U)
 8006954:	e793      	b.n	800687e <USBD_GetDescriptor+0x58>
      USBD_CtlError(pdev, req);
 8006956:	4629      	mov	r1, r5
 8006958:	f7ff ff5b 	bl	8006812 <USBD_CtlError>
  if (err != 0U)
 800695c:	e78f      	b.n	800687e <USBD_GetDescriptor+0x58>
    if (pdev->dev_speed == USBD_SPEED_HIGH)
 800695e:	7c03      	ldrb	r3, [r0, #16]
 8006960:	b933      	cbnz	r3, 8006970 <USBD_GetDescriptor+0x14a>
      pbuf = pdev->pClass->GetDeviceQualifierDescriptor(&len);
 8006962:	f8d0 32b8 	ldr.w	r3, [r0, #696]	; 0x2b8
 8006966:	6b5b      	ldr	r3, [r3, #52]	; 0x34
 8006968:	f10d 0006 	add.w	r0, sp, #6
 800696c:	4798      	blx	r3
  if (err != 0U)
 800696e:	e774      	b.n	800685a <USBD_GetDescriptor+0x34>
      USBD_CtlError(pdev, req);
 8006970:	4629      	mov	r1, r5
 8006972:	f7ff ff4e 	bl	8006812 <USBD_CtlError>
  if (err != 0U)
 8006976:	e782      	b.n	800687e <USBD_GetDescriptor+0x58>
    if (pdev->dev_speed == USBD_SPEED_HIGH)
 8006978:	7c03      	ldrb	r3, [r0, #16]
 800697a:	b943      	cbnz	r3, 800698e <USBD_GetDescriptor+0x168>
      pbuf = pdev->pClass->GetOtherSpeedConfigDescriptor(&len);
 800697c:	f8d0 32b8 	ldr.w	r3, [r0, #696]	; 0x2b8
 8006980:	6b1b      	ldr	r3, [r3, #48]	; 0x30
 8006982:	f10d 0006 	add.w	r0, sp, #6
 8006986:	4798      	blx	r3
      pbuf[1] = USB_DESC_TYPE_OTHER_SPEED_CONFIGURATION;
 8006988:	2307      	movs	r3, #7
 800698a:	7043      	strb	r3, [r0, #1]
  if (err != 0U)
 800698c:	e765      	b.n	800685a <USBD_GetDescriptor+0x34>
      USBD_CtlError(pdev, req);
 800698e:	4629      	mov	r1, r5
 8006990:	f7ff ff3f 	bl	8006812 <USBD_CtlError>
  if (err != 0U)
 8006994:	e773      	b.n	800687e <USBD_GetDescriptor+0x58>
    USBD_CtlError(pdev, req);
 8006996:	4629      	mov	r1, r5
 8006998:	f7ff ff3b 	bl	8006812 <USBD_CtlError>
    return;
 800699c:	e76f      	b.n	800687e <USBD_GetDescriptor+0x58>
        USBD_CtlError(pdev, req);
 800699e:	4629      	mov	r1, r5
 80069a0:	4620      	mov	r0, r4
 80069a2:	f7ff ff36 	bl	8006812 <USBD_CtlError>
 80069a6:	e76a      	b.n	800687e <USBD_GetDescriptor+0x58>
      (void)USBD_CtlSendStatus(pdev);
 80069a8:	4620      	mov	r0, r4
 80069aa:	f000 fa95 	bl	8006ed8 <USBD_CtlSendStatus>
 80069ae:	e766      	b.n	800687e <USBD_GetDescriptor+0x58>

080069b0 <USBD_SetAddress>:
{
 80069b0:	b538      	push	{r3, r4, r5, lr}
 80069b2:	4604      	mov	r4, r0
  if ((req->wIndex == 0U) && (req->wLength == 0U) && (req->wValue < 128U))
 80069b4:	888b      	ldrh	r3, [r1, #4]
 80069b6:	b9f3      	cbnz	r3, 80069f6 <USBD_SetAddress+0x46>
 80069b8:	88cb      	ldrh	r3, [r1, #6]
 80069ba:	b9e3      	cbnz	r3, 80069f6 <USBD_SetAddress+0x46>
 80069bc:	884b      	ldrh	r3, [r1, #2]
 80069be:	2b7f      	cmp	r3, #127	; 0x7f
 80069c0:	d819      	bhi.n	80069f6 <USBD_SetAddress+0x46>
    dev_addr = (uint8_t)(req->wValue) & 0x7FU;
 80069c2:	f003 057f 	and.w	r5, r3, #127	; 0x7f
    if (pdev->dev_state == USBD_STATE_CONFIGURED)
 80069c6:	f890 329c 	ldrb.w	r3, [r0, #668]	; 0x29c
 80069ca:	2b03      	cmp	r3, #3
 80069cc:	d00c      	beq.n	80069e8 <USBD_SetAddress+0x38>
      pdev->dev_address = dev_addr;
 80069ce:	f880 529e 	strb.w	r5, [r0, #670]	; 0x29e
      (void)USBD_LL_SetUSBAddress(pdev, dev_addr);
 80069d2:	4629      	mov	r1, r5
 80069d4:	f001 fb5c 	bl	8008090 <USBD_LL_SetUSBAddress>
      (void)USBD_CtlSendStatus(pdev);
 80069d8:	4620      	mov	r0, r4
 80069da:	f000 fa7d 	bl	8006ed8 <USBD_CtlSendStatus>
      if (dev_addr != 0U)
 80069de:	b135      	cbz	r5, 80069ee <USBD_SetAddress+0x3e>
        pdev->dev_state = USBD_STATE_ADDRESSED;
 80069e0:	2302      	movs	r3, #2
 80069e2:	f884 329c 	strb.w	r3, [r4, #668]	; 0x29c
 80069e6:	e009      	b.n	80069fc <USBD_SetAddress+0x4c>
      USBD_CtlError(pdev, req);
 80069e8:	f7ff ff13 	bl	8006812 <USBD_CtlError>
 80069ec:	e006      	b.n	80069fc <USBD_SetAddress+0x4c>
        pdev->dev_state = USBD_STATE_DEFAULT;
 80069ee:	2301      	movs	r3, #1
 80069f0:	f884 329c 	strb.w	r3, [r4, #668]	; 0x29c
 80069f4:	e002      	b.n	80069fc <USBD_SetAddress+0x4c>
    USBD_CtlError(pdev, req);
 80069f6:	4620      	mov	r0, r4
 80069f8:	f7ff ff0b 	bl	8006812 <USBD_CtlError>
}
 80069fc:	bd38      	pop	{r3, r4, r5, pc}
	...

08006a00 <USBD_SetConfig>:
{
 8006a00:	b570      	push	{r4, r5, r6, lr}
 8006a02:	4604      	mov	r4, r0
 8006a04:	460e      	mov	r6, r1
  cfgidx = (uint8_t)(req->wValue);
 8006a06:	788d      	ldrb	r5, [r1, #2]
 8006a08:	4b2d      	ldr	r3, [pc, #180]	; (8006ac0 <USBD_SetConfig+0xc0>)
 8006a0a:	701d      	strb	r5, [r3, #0]
  if (cfgidx > USBD_MAX_NUM_CONFIGURATION)
 8006a0c:	2d01      	cmp	r5, #1
 8006a0e:	d80f      	bhi.n	8006a30 <USBD_SetConfig+0x30>
  switch (pdev->dev_state)
 8006a10:	f890 329c 	ldrb.w	r3, [r0, #668]	; 0x29c
 8006a14:	2b02      	cmp	r3, #2
 8006a16:	d00f      	beq.n	8006a38 <USBD_SetConfig+0x38>
 8006a18:	2b03      	cmp	r3, #3
 8006a1a:	d023      	beq.n	8006a64 <USBD_SetConfig+0x64>
    USBD_CtlError(pdev, req);
 8006a1c:	f7ff fef9 	bl	8006812 <USBD_CtlError>
    (void)USBD_ClrClassConfig(pdev, cfgidx);
 8006a20:	4b27      	ldr	r3, [pc, #156]	; (8006ac0 <USBD_SetConfig+0xc0>)
 8006a22:	7819      	ldrb	r1, [r3, #0]
 8006a24:	4620      	mov	r0, r4
 8006a26:	f7ff fda4 	bl	8006572 <USBD_ClrClassConfig>
    ret = USBD_FAIL;
 8006a2a:	2503      	movs	r5, #3
}
 8006a2c:	4628      	mov	r0, r5
 8006a2e:	bd70      	pop	{r4, r5, r6, pc}
    USBD_CtlError(pdev, req);
 8006a30:	f7ff feef 	bl	8006812 <USBD_CtlError>
    return USBD_FAIL;
 8006a34:	2503      	movs	r5, #3
 8006a36:	e7f9      	b.n	8006a2c <USBD_SetConfig+0x2c>
    if (cfgidx != 0U)
 8006a38:	b18d      	cbz	r5, 8006a5e <USBD_SetConfig+0x5e>
      pdev->dev_config = cfgidx;
 8006a3a:	6045      	str	r5, [r0, #4]
      ret = USBD_SetClassConfig(pdev, cfgidx);
 8006a3c:	4629      	mov	r1, r5
 8006a3e:	f7ff fd8f 	bl	8006560 <USBD_SetClassConfig>
      if (ret != USBD_OK)
 8006a42:	4605      	mov	r5, r0
 8006a44:	b120      	cbz	r0, 8006a50 <USBD_SetConfig+0x50>
        USBD_CtlError(pdev, req);
 8006a46:	4631      	mov	r1, r6
 8006a48:	4620      	mov	r0, r4
 8006a4a:	f7ff fee2 	bl	8006812 <USBD_CtlError>
 8006a4e:	e7ed      	b.n	8006a2c <USBD_SetConfig+0x2c>
        (void)USBD_CtlSendStatus(pdev);
 8006a50:	4620      	mov	r0, r4
 8006a52:	f000 fa41 	bl	8006ed8 <USBD_CtlSendStatus>
        pdev->dev_state = USBD_STATE_CONFIGURED;
 8006a56:	2303      	movs	r3, #3
 8006a58:	f884 329c 	strb.w	r3, [r4, #668]	; 0x29c
 8006a5c:	e7e6      	b.n	8006a2c <USBD_SetConfig+0x2c>
      (void)USBD_CtlSendStatus(pdev);
 8006a5e:	f000 fa3b 	bl	8006ed8 <USBD_CtlSendStatus>
 8006a62:	e7e3      	b.n	8006a2c <USBD_SetConfig+0x2c>
    if (cfgidx == 0U)
 8006a64:	b1cd      	cbz	r5, 8006a9a <USBD_SetConfig+0x9a>
    else if (cfgidx != pdev->dev_config)
 8006a66:	6841      	ldr	r1, [r0, #4]
 8006a68:	428d      	cmp	r5, r1
 8006a6a:	d025      	beq.n	8006ab8 <USBD_SetConfig+0xb8>
      (void)USBD_ClrClassConfig(pdev, (uint8_t)pdev->dev_config);
 8006a6c:	b2c9      	uxtb	r1, r1
 8006a6e:	f7ff fd80 	bl	8006572 <USBD_ClrClassConfig>
      pdev->dev_config = cfgidx;
 8006a72:	4b13      	ldr	r3, [pc, #76]	; (8006ac0 <USBD_SetConfig+0xc0>)
 8006a74:	7819      	ldrb	r1, [r3, #0]
 8006a76:	6061      	str	r1, [r4, #4]
      ret = USBD_SetClassConfig(pdev, cfgidx);
 8006a78:	4620      	mov	r0, r4
 8006a7a:	f7ff fd71 	bl	8006560 <USBD_SetClassConfig>
      if (ret != USBD_OK)
 8006a7e:	4605      	mov	r5, r0
 8006a80:	b1b0      	cbz	r0, 8006ab0 <USBD_SetConfig+0xb0>
        USBD_CtlError(pdev, req);
 8006a82:	4631      	mov	r1, r6
 8006a84:	4620      	mov	r0, r4
 8006a86:	f7ff fec4 	bl	8006812 <USBD_CtlError>
        (void)USBD_ClrClassConfig(pdev, (uint8_t)pdev->dev_config);
 8006a8a:	7921      	ldrb	r1, [r4, #4]
 8006a8c:	4620      	mov	r0, r4
 8006a8e:	f7ff fd70 	bl	8006572 <USBD_ClrClassConfig>
        pdev->dev_state = USBD_STATE_ADDRESSED;
 8006a92:	2302      	movs	r3, #2
 8006a94:	f884 329c 	strb.w	r3, [r4, #668]	; 0x29c
 8006a98:	e7c8      	b.n	8006a2c <USBD_SetConfig+0x2c>
      pdev->dev_state = USBD_STATE_ADDRESSED;
 8006a9a:	2302      	movs	r3, #2
 8006a9c:	f880 329c 	strb.w	r3, [r0, #668]	; 0x29c
      pdev->dev_config = cfgidx;
 8006aa0:	6045      	str	r5, [r0, #4]
      (void)USBD_ClrClassConfig(pdev, cfgidx);
 8006aa2:	4629      	mov	r1, r5
 8006aa4:	f7ff fd65 	bl	8006572 <USBD_ClrClassConfig>
      (void)USBD_CtlSendStatus(pdev);
 8006aa8:	4620      	mov	r0, r4
 8006aaa:	f000 fa15 	bl	8006ed8 <USBD_CtlSendStatus>
 8006aae:	e7bd      	b.n	8006a2c <USBD_SetConfig+0x2c>
        (void)USBD_CtlSendStatus(pdev);
 8006ab0:	4620      	mov	r0, r4
 8006ab2:	f000 fa11 	bl	8006ed8 <USBD_CtlSendStatus>
 8006ab6:	e7b9      	b.n	8006a2c <USBD_SetConfig+0x2c>
      (void)USBD_CtlSendStatus(pdev);
 8006ab8:	f000 fa0e 	bl	8006ed8 <USBD_CtlSendStatus>
  USBD_StatusTypeDef ret = USBD_OK;
 8006abc:	2500      	movs	r5, #0
 8006abe:	e7b5      	b.n	8006a2c <USBD_SetConfig+0x2c>
 8006ac0:	20000204 	.word	0x20000204

08006ac4 <USBD_GetConfig>:
{
 8006ac4:	b508      	push	{r3, lr}
  if (req->wLength != 1U)
 8006ac6:	88cb      	ldrh	r3, [r1, #6]
 8006ac8:	2b01      	cmp	r3, #1
 8006aca:	d10a      	bne.n	8006ae2 <USBD_GetConfig+0x1e>
    switch (pdev->dev_state)
 8006acc:	f890 329c 	ldrb.w	r3, [r0, #668]	; 0x29c
 8006ad0:	2b02      	cmp	r3, #2
 8006ad2:	d909      	bls.n	8006ae8 <USBD_GetConfig+0x24>
 8006ad4:	2b03      	cmp	r3, #3
 8006ad6:	d109      	bne.n	8006aec <USBD_GetConfig+0x28>
      (void)USBD_CtlSendData(pdev, (uint8_t *)&pdev->dev_config, 1U);
 8006ad8:	2201      	movs	r2, #1
 8006ada:	1d01      	adds	r1, r0, #4
 8006adc:	f000 f9d0 	bl	8006e80 <USBD_CtlSendData>
      break;
 8006ae0:	e001      	b.n	8006ae6 <USBD_GetConfig+0x22>
    USBD_CtlError(pdev, req);
 8006ae2:	f7ff fe96 	bl	8006812 <USBD_CtlError>
}
 8006ae6:	bd08      	pop	{r3, pc}
    switch (pdev->dev_state)
 8006ae8:	b25b      	sxtb	r3, r3
 8006aea:	b913      	cbnz	r3, 8006af2 <USBD_GetConfig+0x2e>
      USBD_CtlError(pdev, req);
 8006aec:	f7ff fe91 	bl	8006812 <USBD_CtlError>
}
 8006af0:	e7f9      	b.n	8006ae6 <USBD_GetConfig+0x22>
      pdev->dev_default_config = 0U;
 8006af2:	4601      	mov	r1, r0
 8006af4:	2300      	movs	r3, #0
 8006af6:	f841 3f08 	str.w	r3, [r1, #8]!
      (void)USBD_CtlSendData(pdev, (uint8_t *)&pdev->dev_default_config, 1U);
 8006afa:	2201      	movs	r2, #1
 8006afc:	f000 f9c0 	bl	8006e80 <USBD_CtlSendData>
      break;
 8006b00:	e7f1      	b.n	8006ae6 <USBD_GetConfig+0x22>

08006b02 <USBD_GetStatus>:
{
 8006b02:	b508      	push	{r3, lr}
  switch (pdev->dev_state)
 8006b04:	f890 329c 	ldrb.w	r3, [r0, #668]	; 0x29c
 8006b08:	3b01      	subs	r3, #1
 8006b0a:	2b02      	cmp	r3, #2
 8006b0c:	d812      	bhi.n	8006b34 <USBD_GetStatus+0x32>
    if (req->wLength != 0x2U)
 8006b0e:	88cb      	ldrh	r3, [r1, #6]
 8006b10:	2b02      	cmp	r3, #2
 8006b12:	d10c      	bne.n	8006b2e <USBD_GetStatus+0x2c>
    pdev->dev_config_status = 0U;
 8006b14:	2300      	movs	r3, #0
 8006b16:	60c3      	str	r3, [r0, #12]
    if (pdev->dev_remote_wakeup != 0U)
 8006b18:	f8d0 32a4 	ldr.w	r3, [r0, #676]	; 0x2a4
 8006b1c:	b10b      	cbz	r3, 8006b22 <USBD_GetStatus+0x20>
      pdev->dev_config_status |= USB_CONFIG_REMOTE_WAKEUP;
 8006b1e:	2302      	movs	r3, #2
 8006b20:	60c3      	str	r3, [r0, #12]
    (void)USBD_CtlSendData(pdev, (uint8_t *)&pdev->dev_config_status, 2U);
 8006b22:	2202      	movs	r2, #2
 8006b24:	f100 010c 	add.w	r1, r0, #12
 8006b28:	f000 f9aa 	bl	8006e80 <USBD_CtlSendData>
}
 8006b2c:	bd08      	pop	{r3, pc}
      USBD_CtlError(pdev, req);
 8006b2e:	f7ff fe70 	bl	8006812 <USBD_CtlError>
      break;
 8006b32:	e7fb      	b.n	8006b2c <USBD_GetStatus+0x2a>
    USBD_CtlError(pdev, req);
 8006b34:	f7ff fe6d 	bl	8006812 <USBD_CtlError>
}
 8006b38:	e7f8      	b.n	8006b2c <USBD_GetStatus+0x2a>

08006b3a <USBD_ClrFeature>:
{
 8006b3a:	b508      	push	{r3, lr}
  switch (pdev->dev_state)
 8006b3c:	f890 329c 	ldrb.w	r3, [r0, #668]	; 0x29c
 8006b40:	3b01      	subs	r3, #1
 8006b42:	2b02      	cmp	r3, #2
 8006b44:	d809      	bhi.n	8006b5a <USBD_ClrFeature+0x20>
      if (req->wValue == USB_FEATURE_REMOTE_WAKEUP)
 8006b46:	884b      	ldrh	r3, [r1, #2]
 8006b48:	2b01      	cmp	r3, #1
 8006b4a:	d000      	beq.n	8006b4e <USBD_ClrFeature+0x14>
}
 8006b4c:	bd08      	pop	{r3, pc}
        pdev->dev_remote_wakeup = 0U;
 8006b4e:	2300      	movs	r3, #0
 8006b50:	f8c0 32a4 	str.w	r3, [r0, #676]	; 0x2a4
        (void)USBD_CtlSendStatus(pdev);
 8006b54:	f000 f9c0 	bl	8006ed8 <USBD_CtlSendStatus>
 8006b58:	e7f8      	b.n	8006b4c <USBD_ClrFeature+0x12>
      USBD_CtlError(pdev, req);
 8006b5a:	f7ff fe5a 	bl	8006812 <USBD_CtlError>
}
 8006b5e:	e7f5      	b.n	8006b4c <USBD_ClrFeature+0x12>

08006b60 <USBD_StdDevReq>:
{
 8006b60:	b538      	push	{r3, r4, r5, lr}
  switch (req->bmRequest & USB_REQ_TYPE_MASK)
 8006b62:	780c      	ldrb	r4, [r1, #0]
 8006b64:	f004 0460 	and.w	r4, r4, #96	; 0x60
 8006b68:	2c20      	cmp	r4, #32
 8006b6a:	d006      	beq.n	8006b7a <USBD_StdDevReq+0x1a>
 8006b6c:	2c40      	cmp	r4, #64	; 0x40
 8006b6e:	d004      	beq.n	8006b7a <USBD_StdDevReq+0x1a>
 8006b70:	b154      	cbz	r4, 8006b88 <USBD_StdDevReq+0x28>
    USBD_CtlError(pdev, req);
 8006b72:	f7ff fe4e 	bl	8006812 <USBD_CtlError>
  USBD_StatusTypeDef ret = USBD_OK;
 8006b76:	2400      	movs	r4, #0
    break;
 8006b78:	e004      	b.n	8006b84 <USBD_StdDevReq+0x24>
    ret = (USBD_StatusTypeDef)pdev->pClass->Setup(pdev, req);
 8006b7a:	f8d0 32b8 	ldr.w	r3, [r0, #696]	; 0x2b8
 8006b7e:	689b      	ldr	r3, [r3, #8]
 8006b80:	4798      	blx	r3
 8006b82:	4604      	mov	r4, r0
}
 8006b84:	4620      	mov	r0, r4
 8006b86:	bd38      	pop	{r3, r4, r5, pc}
    switch (req->bRequest)
 8006b88:	784d      	ldrb	r5, [r1, #1]
 8006b8a:	2d09      	cmp	r5, #9
 8006b8c:	d81d      	bhi.n	8006bca <USBD_StdDevReq+0x6a>
 8006b8e:	e8df f005 	tbb	[pc, r5]
 8006b92:	1912      	.short	0x1912
 8006b94:	081c161c 	.word	0x081c161c
 8006b98:	0b0f1c05 	.word	0x0b0f1c05
      USBD_GetDescriptor(pdev, req);
 8006b9c:	f7ff fe43 	bl	8006826 <USBD_GetDescriptor>
      break;
 8006ba0:	e7f0      	b.n	8006b84 <USBD_StdDevReq+0x24>
      USBD_SetAddress(pdev, req);
 8006ba2:	f7ff ff05 	bl	80069b0 <USBD_SetAddress>
      break;
 8006ba6:	e7ed      	b.n	8006b84 <USBD_StdDevReq+0x24>
      ret = USBD_SetConfig(pdev, req);
 8006ba8:	f7ff ff2a 	bl	8006a00 <USBD_SetConfig>
 8006bac:	4604      	mov	r4, r0
      break;
 8006bae:	e7e9      	b.n	8006b84 <USBD_StdDevReq+0x24>
      USBD_GetConfig(pdev, req);
 8006bb0:	f7ff ff88 	bl	8006ac4 <USBD_GetConfig>
      break;
 8006bb4:	e7e6      	b.n	8006b84 <USBD_StdDevReq+0x24>
      USBD_GetStatus(pdev, req);
 8006bb6:	f7ff ffa4 	bl	8006b02 <USBD_GetStatus>
  USBD_StatusTypeDef ret = USBD_OK;
 8006bba:	462c      	mov	r4, r5
      break;
 8006bbc:	e7e2      	b.n	8006b84 <USBD_StdDevReq+0x24>
      USBD_SetFeature(pdev, req);
 8006bbe:	f7ff fe0a 	bl	80067d6 <USBD_SetFeature>
      break;
 8006bc2:	e7df      	b.n	8006b84 <USBD_StdDevReq+0x24>
      USBD_ClrFeature(pdev, req);
 8006bc4:	f7ff ffb9 	bl	8006b3a <USBD_ClrFeature>
      break;
 8006bc8:	e7dc      	b.n	8006b84 <USBD_StdDevReq+0x24>
      USBD_CtlError(pdev, req);
 8006bca:	f7ff fe22 	bl	8006812 <USBD_CtlError>
      break;
 8006bce:	e7d9      	b.n	8006b84 <USBD_StdDevReq+0x24>

08006bd0 <USBD_StdItfReq>:
{
 8006bd0:	b570      	push	{r4, r5, r6, lr}
 8006bd2:	4605      	mov	r5, r0
 8006bd4:	460c      	mov	r4, r1
  switch (req->bmRequest & USB_REQ_TYPE_MASK)
 8006bd6:	780b      	ldrb	r3, [r1, #0]
 8006bd8:	f003 0360 	and.w	r3, r3, #96	; 0x60
 8006bdc:	2b20      	cmp	r3, #32
 8006bde:	d007      	beq.n	8006bf0 <USBD_StdItfReq+0x20>
 8006be0:	2b40      	cmp	r3, #64	; 0x40
 8006be2:	d005      	beq.n	8006bf0 <USBD_StdItfReq+0x20>
 8006be4:	b123      	cbz	r3, 8006bf0 <USBD_StdItfReq+0x20>
    USBD_CtlError(pdev, req);
 8006be6:	f7ff fe14 	bl	8006812 <USBD_CtlError>
  USBD_StatusTypeDef ret = USBD_OK;
 8006bea:	2600      	movs	r6, #0
}
 8006bec:	4630      	mov	r0, r6
 8006bee:	bd70      	pop	{r4, r5, r6, pc}
    switch (pdev->dev_state)
 8006bf0:	f895 329c 	ldrb.w	r3, [r5, #668]	; 0x29c
 8006bf4:	3b01      	subs	r3, #1
 8006bf6:	2b02      	cmp	r3, #2
 8006bf8:	d818      	bhi.n	8006c2c <USBD_StdItfReq+0x5c>
      if (LOBYTE(req->wIndex) <= USBD_MAX_NUM_INTERFACES)
 8006bfa:	7923      	ldrb	r3, [r4, #4]
 8006bfc:	2b01      	cmp	r3, #1
 8006bfe:	d80f      	bhi.n	8006c20 <USBD_StdItfReq+0x50>
        ret = (USBD_StatusTypeDef)pdev->pClass->Setup(pdev, req);
 8006c00:	f8d5 32b8 	ldr.w	r3, [r5, #696]	; 0x2b8
 8006c04:	689b      	ldr	r3, [r3, #8]
 8006c06:	4621      	mov	r1, r4
 8006c08:	4628      	mov	r0, r5
 8006c0a:	4798      	blx	r3
 8006c0c:	4606      	mov	r6, r0
        if ((req->wLength == 0U) && (ret == USBD_OK))
 8006c0e:	88e3      	ldrh	r3, [r4, #6]
 8006c10:	2b00      	cmp	r3, #0
 8006c12:	d1eb      	bne.n	8006bec <USBD_StdItfReq+0x1c>
 8006c14:	2800      	cmp	r0, #0
 8006c16:	d1e9      	bne.n	8006bec <USBD_StdItfReq+0x1c>
          (void)USBD_CtlSendStatus(pdev);
 8006c18:	4628      	mov	r0, r5
 8006c1a:	f000 f95d 	bl	8006ed8 <USBD_CtlSendStatus>
 8006c1e:	e7e5      	b.n	8006bec <USBD_StdItfReq+0x1c>
        USBD_CtlError(pdev, req);
 8006c20:	4621      	mov	r1, r4
 8006c22:	4628      	mov	r0, r5
 8006c24:	f7ff fdf5 	bl	8006812 <USBD_CtlError>
  USBD_StatusTypeDef ret = USBD_OK;
 8006c28:	2600      	movs	r6, #0
 8006c2a:	e7df      	b.n	8006bec <USBD_StdItfReq+0x1c>
      USBD_CtlError(pdev, req);
 8006c2c:	4621      	mov	r1, r4
 8006c2e:	4628      	mov	r0, r5
 8006c30:	f7ff fdef 	bl	8006812 <USBD_CtlError>
  USBD_StatusTypeDef ret = USBD_OK;
 8006c34:	2600      	movs	r6, #0
      break;
 8006c36:	e7d9      	b.n	8006bec <USBD_StdItfReq+0x1c>

08006c38 <USBD_StdEPReq>:
{
 8006c38:	b5f8      	push	{r3, r4, r5, r6, r7, lr}
 8006c3a:	4606      	mov	r6, r0
 8006c3c:	460d      	mov	r5, r1
  ep_addr = LOBYTE(req->wIndex);
 8006c3e:	888b      	ldrh	r3, [r1, #4]
  switch (req->bmRequest & USB_REQ_TYPE_MASK)
 8006c40:	780c      	ldrb	r4, [r1, #0]
 8006c42:	f004 0460 	and.w	r4, r4, #96	; 0x60
 8006c46:	2c20      	cmp	r4, #32
 8006c48:	d008      	beq.n	8006c5c <USBD_StdEPReq+0x24>
 8006c4a:	b2d9      	uxtb	r1, r3
 8006c4c:	2c40      	cmp	r4, #64	; 0x40
 8006c4e:	d005      	beq.n	8006c5c <USBD_StdEPReq+0x24>
 8006c50:	b16c      	cbz	r4, 8006c6e <USBD_StdEPReq+0x36>
    USBD_CtlError(pdev, req);
 8006c52:	4629      	mov	r1, r5
 8006c54:	f7ff fddd 	bl	8006812 <USBD_CtlError>
  USBD_StatusTypeDef ret = USBD_OK;
 8006c58:	2400      	movs	r4, #0
    break;
 8006c5a:	e006      	b.n	8006c6a <USBD_StdEPReq+0x32>
    ret = (USBD_StatusTypeDef)pdev->pClass->Setup(pdev, req);
 8006c5c:	f8d6 32b8 	ldr.w	r3, [r6, #696]	; 0x2b8
 8006c60:	689b      	ldr	r3, [r3, #8]
 8006c62:	4629      	mov	r1, r5
 8006c64:	4630      	mov	r0, r6
 8006c66:	4798      	blx	r3
 8006c68:	4604      	mov	r4, r0
}
 8006c6a:	4620      	mov	r0, r4
 8006c6c:	bdf8      	pop	{r3, r4, r5, r6, r7, pc}
    switch (req->bRequest)
 8006c6e:	786f      	ldrb	r7, [r5, #1]
 8006c70:	2f01      	cmp	r7, #1
 8006c72:	d037      	beq.n	8006ce4 <USBD_StdEPReq+0xac>
 8006c74:	2f03      	cmp	r7, #3
 8006c76:	d005      	beq.n	8006c84 <USBD_StdEPReq+0x4c>
 8006c78:	2f00      	cmp	r7, #0
 8006c7a:	d063      	beq.n	8006d44 <USBD_StdEPReq+0x10c>
      USBD_CtlError(pdev, req);
 8006c7c:	4629      	mov	r1, r5
 8006c7e:	f7ff fdc8 	bl	8006812 <USBD_CtlError>
      break;
 8006c82:	e7f2      	b.n	8006c6a <USBD_StdEPReq+0x32>
      switch (pdev->dev_state)
 8006c84:	f890 329c 	ldrb.w	r3, [r0, #668]	; 0x29c
 8006c88:	2b02      	cmp	r3, #2
 8006c8a:	d005      	beq.n	8006c98 <USBD_StdEPReq+0x60>
 8006c8c:	2b03      	cmp	r3, #3
 8006c8e:	d016      	beq.n	8006cbe <USBD_StdEPReq+0x86>
        USBD_CtlError(pdev, req);
 8006c90:	4629      	mov	r1, r5
 8006c92:	f7ff fdbe 	bl	8006812 <USBD_CtlError>
        break;
 8006c96:	e7e8      	b.n	8006c6a <USBD_StdEPReq+0x32>
        if ((ep_addr != 0x00U) && (ep_addr != 0x80U))
 8006c98:	f1b1 0380 	subs.w	r3, r1, #128	; 0x80
 8006c9c:	bf18      	it	ne
 8006c9e:	2301      	movne	r3, #1
 8006ca0:	2900      	cmp	r1, #0
 8006ca2:	bf08      	it	eq
 8006ca4:	2300      	moveq	r3, #0
 8006ca6:	b133      	cbz	r3, 8006cb6 <USBD_StdEPReq+0x7e>
          (void)USBD_LL_StallEP(pdev, ep_addr);
 8006ca8:	f001 f9e2 	bl	8008070 <USBD_LL_StallEP>
          (void)USBD_LL_StallEP(pdev, 0x80U);
 8006cac:	2180      	movs	r1, #128	; 0x80
 8006cae:	4630      	mov	r0, r6
 8006cb0:	f001 f9de 	bl	8008070 <USBD_LL_StallEP>
 8006cb4:	e7d9      	b.n	8006c6a <USBD_StdEPReq+0x32>
          USBD_CtlError(pdev, req);
 8006cb6:	4629      	mov	r1, r5
 8006cb8:	f7ff fdab 	bl	8006812 <USBD_CtlError>
 8006cbc:	e7d5      	b.n	8006c6a <USBD_StdEPReq+0x32>
        if (req->wValue == USB_FEATURE_EP_HALT)
 8006cbe:	886b      	ldrh	r3, [r5, #2]
 8006cc0:	b94b      	cbnz	r3, 8006cd6 <USBD_StdEPReq+0x9e>
          if ((ep_addr != 0x00U) && (ep_addr != 0x80U) && (req->wLength == 0x00U))
 8006cc2:	f1b1 0380 	subs.w	r3, r1, #128	; 0x80
 8006cc6:	bf18      	it	ne
 8006cc8:	2301      	movne	r3, #1
 8006cca:	2900      	cmp	r1, #0
 8006ccc:	bf08      	it	eq
 8006cce:	2300      	moveq	r3, #0
 8006cd0:	b10b      	cbz	r3, 8006cd6 <USBD_StdEPReq+0x9e>
 8006cd2:	88eb      	ldrh	r3, [r5, #6]
 8006cd4:	b11b      	cbz	r3, 8006cde <USBD_StdEPReq+0xa6>
        (void)USBD_CtlSendStatus(pdev);
 8006cd6:	4630      	mov	r0, r6
 8006cd8:	f000 f8fe 	bl	8006ed8 <USBD_CtlSendStatus>
        break;
 8006cdc:	e7c5      	b.n	8006c6a <USBD_StdEPReq+0x32>
            (void)USBD_LL_StallEP(pdev, ep_addr);
 8006cde:	f001 f9c7 	bl	8008070 <USBD_LL_StallEP>
 8006ce2:	e7f8      	b.n	8006cd6 <USBD_StdEPReq+0x9e>
      switch (pdev->dev_state)
 8006ce4:	f890 329c 	ldrb.w	r3, [r0, #668]	; 0x29c
 8006ce8:	2b02      	cmp	r3, #2
 8006cea:	d005      	beq.n	8006cf8 <USBD_StdEPReq+0xc0>
 8006cec:	2b03      	cmp	r3, #3
 8006cee:	d016      	beq.n	8006d1e <USBD_StdEPReq+0xe6>
        USBD_CtlError(pdev, req);
 8006cf0:	4629      	mov	r1, r5
 8006cf2:	f7ff fd8e 	bl	8006812 <USBD_CtlError>
        break;
 8006cf6:	e7b8      	b.n	8006c6a <USBD_StdEPReq+0x32>
        if ((ep_addr != 0x00U) && (ep_addr != 0x80U))
 8006cf8:	f1b1 0380 	subs.w	r3, r1, #128	; 0x80
 8006cfc:	bf18      	it	ne
 8006cfe:	2301      	movne	r3, #1
 8006d00:	2900      	cmp	r1, #0
 8006d02:	bf08      	it	eq
 8006d04:	2300      	moveq	r3, #0
 8006d06:	b133      	cbz	r3, 8006d16 <USBD_StdEPReq+0xde>
          (void)USBD_LL_StallEP(pdev, ep_addr);
 8006d08:	f001 f9b2 	bl	8008070 <USBD_LL_StallEP>
          (void)USBD_LL_StallEP(pdev, 0x80U);
 8006d0c:	2180      	movs	r1, #128	; 0x80
 8006d0e:	4630      	mov	r0, r6
 8006d10:	f001 f9ae 	bl	8008070 <USBD_LL_StallEP>
 8006d14:	e7a9      	b.n	8006c6a <USBD_StdEPReq+0x32>
          USBD_CtlError(pdev, req);
 8006d16:	4629      	mov	r1, r5
 8006d18:	f7ff fd7b 	bl	8006812 <USBD_CtlError>
 8006d1c:	e7a5      	b.n	8006c6a <USBD_StdEPReq+0x32>
        if (req->wValue == USB_FEATURE_EP_HALT)
 8006d1e:	886b      	ldrh	r3, [r5, #2]
 8006d20:	2b00      	cmp	r3, #0
 8006d22:	d1a2      	bne.n	8006c6a <USBD_StdEPReq+0x32>
          if ((ep_addr & 0x7FU) != 0x00U)
 8006d24:	f011 0f7f 	tst.w	r1, #127	; 0x7f
 8006d28:	d109      	bne.n	8006d3e <USBD_StdEPReq+0x106>
          (void)USBD_CtlSendStatus(pdev);
 8006d2a:	4630      	mov	r0, r6
 8006d2c:	f000 f8d4 	bl	8006ed8 <USBD_CtlSendStatus>
          (USBD_StatusTypeDef)pdev->pClass->Setup(pdev, req);
 8006d30:	f8d6 32b8 	ldr.w	r3, [r6, #696]	; 0x2b8
 8006d34:	689b      	ldr	r3, [r3, #8]
 8006d36:	4629      	mov	r1, r5
 8006d38:	4630      	mov	r0, r6
 8006d3a:	4798      	blx	r3
 8006d3c:	e795      	b.n	8006c6a <USBD_StdEPReq+0x32>
            (void)USBD_LL_ClearStallEP(pdev, ep_addr);
 8006d3e:	f001 f99f 	bl	8008080 <USBD_LL_ClearStallEP>
 8006d42:	e7f2      	b.n	8006d2a <USBD_StdEPReq+0xf2>
      switch (pdev->dev_state)
 8006d44:	f890 229c 	ldrb.w	r2, [r0, #668]	; 0x29c
 8006d48:	2a02      	cmp	r2, #2
 8006d4a:	d006      	beq.n	8006d5a <USBD_StdEPReq+0x122>
 8006d4c:	2a03      	cmp	r2, #3
 8006d4e:	d02e      	beq.n	8006dae <USBD_StdEPReq+0x176>
        USBD_CtlError(pdev, req);
 8006d50:	4629      	mov	r1, r5
 8006d52:	f7ff fd5e 	bl	8006812 <USBD_CtlError>
  USBD_StatusTypeDef ret = USBD_OK;
 8006d56:	463c      	mov	r4, r7
        break;
 8006d58:	e787      	b.n	8006c6a <USBD_StdEPReq+0x32>
        if ((ep_addr != 0x00U) && (ep_addr != 0x80U))
 8006d5a:	f1b1 0280 	subs.w	r2, r1, #128	; 0x80
 8006d5e:	bf18      	it	ne
 8006d60:	2201      	movne	r2, #1
 8006d62:	2900      	cmp	r1, #0
 8006d64:	bf08      	it	eq
 8006d66:	2200      	moveq	r2, #0
 8006d68:	b99a      	cbnz	r2, 8006d92 <USBD_StdEPReq+0x15a>
        pep = ((ep_addr & 0x80U) == 0x80U) ? &pdev->ep_in[ep_addr & 0x7FU] : \
 8006d6a:	f013 0f80 	tst.w	r3, #128	; 0x80
 8006d6e:	d115      	bne.n	8006d9c <USBD_StdEPReq+0x164>
              &pdev->ep_out[ep_addr & 0x7FU];
 8006d70:	f001 017f 	and.w	r1, r1, #127	; 0x7f
        pep = ((ep_addr & 0x80U) == 0x80U) ? &pdev->ep_in[ep_addr & 0x7FU] : \
 8006d74:	eb01 0181 	add.w	r1, r1, r1, lsl #2
 8006d78:	0089      	lsls	r1, r1, #2
 8006d7a:	f501 71a8 	add.w	r1, r1, #336	; 0x150
 8006d7e:	4401      	add	r1, r0
 8006d80:	3104      	adds	r1, #4
        pep->status = 0x0000U;
 8006d82:	2300      	movs	r3, #0
 8006d84:	600b      	str	r3, [r1, #0]
        (void)USBD_CtlSendData(pdev, (uint8_t *)&pep->status, 2U);
 8006d86:	2202      	movs	r2, #2
 8006d88:	4630      	mov	r0, r6
 8006d8a:	f000 f879 	bl	8006e80 <USBD_CtlSendData>
  USBD_StatusTypeDef ret = USBD_OK;
 8006d8e:	463c      	mov	r4, r7
        break;
 8006d90:	e76b      	b.n	8006c6a <USBD_StdEPReq+0x32>
          USBD_CtlError(pdev, req);
 8006d92:	4629      	mov	r1, r5
 8006d94:	f7ff fd3d 	bl	8006812 <USBD_CtlError>
  USBD_StatusTypeDef ret = USBD_OK;
 8006d98:	463c      	mov	r4, r7
          break;
 8006d9a:	e766      	b.n	8006c6a <USBD_StdEPReq+0x32>
        pep = ((ep_addr & 0x80U) == 0x80U) ? &pdev->ep_in[ep_addr & 0x7FU] : \
 8006d9c:	f001 017f 	and.w	r1, r1, #127	; 0x7f
 8006da0:	eb01 0181 	add.w	r1, r1, r1, lsl #2
 8006da4:	0089      	lsls	r1, r1, #2
 8006da6:	3110      	adds	r1, #16
 8006da8:	4401      	add	r1, r0
 8006daa:	3104      	adds	r1, #4
 8006dac:	e7e9      	b.n	8006d82 <USBD_StdEPReq+0x14a>
        if ((ep_addr & 0x80U) == 0x80U)
 8006dae:	b25b      	sxtb	r3, r3
 8006db0:	2b00      	cmp	r3, #0
 8006db2:	db24      	blt.n	8006dfe <USBD_StdEPReq+0x1c6>
          if (pdev->ep_out[ep_addr & 0xFU].is_used == 0U)
 8006db4:	f001 020f 	and.w	r2, r1, #15
 8006db8:	eb02 0282 	add.w	r2, r2, r2, lsl #2
 8006dbc:	eb00 0282 	add.w	r2, r0, r2, lsl #2
 8006dc0:	f8b2 2164 	ldrh.w	r2, [r2, #356]	; 0x164
 8006dc4:	b34a      	cbz	r2, 8006e1a <USBD_StdEPReq+0x1e2>
        pep = ((ep_addr & 0x80U) == 0x80U) ? &pdev->ep_in[ep_addr & 0x7FU] : \
 8006dc6:	2b00      	cmp	r3, #0
 8006dc8:	db2c      	blt.n	8006e24 <USBD_StdEPReq+0x1ec>
              &pdev->ep_out[ep_addr & 0x7FU];
 8006dca:	f001 037f 	and.w	r3, r1, #127	; 0x7f
        pep = ((ep_addr & 0x80U) == 0x80U) ? &pdev->ep_in[ep_addr & 0x7FU] : \
 8006dce:	eb03 0383 	add.w	r3, r3, r3, lsl #2
 8006dd2:	009c      	lsls	r4, r3, #2
 8006dd4:	f504 74a8 	add.w	r4, r4, #336	; 0x150
 8006dd8:	4434      	add	r4, r6
 8006dda:	3404      	adds	r4, #4
          if ((ep_addr == 0x00U) || (ep_addr == 0x80U))
 8006ddc:	2980      	cmp	r1, #128	; 0x80
 8006dde:	bf14      	ite	ne
 8006de0:	2300      	movne	r3, #0
 8006de2:	2301      	moveq	r3, #1
 8006de4:	2900      	cmp	r1, #0
 8006de6:	bf08      	it	eq
 8006de8:	2301      	moveq	r3, #1
 8006dea:	b323      	cbz	r3, 8006e36 <USBD_StdEPReq+0x1fe>
            pep->status = 0x0000U;
 8006dec:	2300      	movs	r3, #0
 8006dee:	6023      	str	r3, [r4, #0]
          (void)USBD_CtlSendData(pdev, (uint8_t *)&pep->status, 2U);
 8006df0:	2202      	movs	r2, #2
 8006df2:	4621      	mov	r1, r4
 8006df4:	4630      	mov	r0, r6
 8006df6:	f000 f843 	bl	8006e80 <USBD_CtlSendData>
  USBD_StatusTypeDef ret = USBD_OK;
 8006dfa:	463c      	mov	r4, r7
          break;
 8006dfc:	e735      	b.n	8006c6a <USBD_StdEPReq+0x32>
          if (pdev->ep_in[ep_addr & 0xFU].is_used == 0U)
 8006dfe:	f001 020f 	and.w	r2, r1, #15
 8006e02:	eb02 0282 	add.w	r2, r2, r2, lsl #2
 8006e06:	eb00 0282 	add.w	r2, r0, r2, lsl #2
 8006e0a:	8c92      	ldrh	r2, [r2, #36]	; 0x24
 8006e0c:	2a00      	cmp	r2, #0
 8006e0e:	d1da      	bne.n	8006dc6 <USBD_StdEPReq+0x18e>
            USBD_CtlError(pdev, req);
 8006e10:	4629      	mov	r1, r5
 8006e12:	f7ff fcfe 	bl	8006812 <USBD_CtlError>
  USBD_StatusTypeDef ret = USBD_OK;
 8006e16:	463c      	mov	r4, r7
            break;
 8006e18:	e727      	b.n	8006c6a <USBD_StdEPReq+0x32>
            USBD_CtlError(pdev, req);
 8006e1a:	4629      	mov	r1, r5
 8006e1c:	f7ff fcf9 	bl	8006812 <USBD_CtlError>
  USBD_StatusTypeDef ret = USBD_OK;
 8006e20:	463c      	mov	r4, r7
            break;
 8006e22:	e722      	b.n	8006c6a <USBD_StdEPReq+0x32>
        pep = ((ep_addr & 0x80U) == 0x80U) ? &pdev->ep_in[ep_addr & 0x7FU] : \
 8006e24:	f001 037f 	and.w	r3, r1, #127	; 0x7f
 8006e28:	eb03 0383 	add.w	r3, r3, r3, lsl #2
 8006e2c:	009c      	lsls	r4, r3, #2
 8006e2e:	3410      	adds	r4, #16
 8006e30:	4434      	add	r4, r6
 8006e32:	3404      	adds	r4, #4
 8006e34:	e7d2      	b.n	8006ddc <USBD_StdEPReq+0x1a4>
          else if (USBD_LL_IsStallEP(pdev, ep_addr) != 0U)
 8006e36:	4630      	mov	r0, r6
 8006e38:	f001 f8d8 	bl	8007fec <USBD_LL_IsStallEP>
 8006e3c:	b110      	cbz	r0, 8006e44 <USBD_StdEPReq+0x20c>
            pep->status = 0x0001U;
 8006e3e:	2301      	movs	r3, #1
 8006e40:	6023      	str	r3, [r4, #0]
 8006e42:	e7d5      	b.n	8006df0 <USBD_StdEPReq+0x1b8>
            pep->status = 0x0000U;
 8006e44:	2300      	movs	r3, #0
 8006e46:	6023      	str	r3, [r4, #0]
 8006e48:	e7d2      	b.n	8006df0 <USBD_StdEPReq+0x1b8>

08006e4a <USBD_GetString>:
  if (desc == NULL)
 8006e4a:	b1c0      	cbz	r0, 8006e7e <USBD_GetString+0x34>
{
 8006e4c:	b570      	push	{r4, r5, r6, lr}
 8006e4e:	460d      	mov	r5, r1
 8006e50:	4616      	mov	r6, r2
 8006e52:	4604      	mov	r4, r0
  *len = ((uint16_t)USBD_GetLen(pdesc) * 2U) + 2U;
 8006e54:	f7ff fcb6 	bl	80067c4 <USBD_GetLen>
 8006e58:	3001      	adds	r0, #1
 8006e5a:	0040      	lsls	r0, r0, #1
 8006e5c:	8030      	strh	r0, [r6, #0]
  unicode[idx] = *(uint8_t *)len;
 8006e5e:	7028      	strb	r0, [r5, #0]
  unicode[idx] = USB_DESC_TYPE_STRING;
 8006e60:	2303      	movs	r3, #3
 8006e62:	706b      	strb	r3, [r5, #1]
  idx++;
 8006e64:	2302      	movs	r3, #2
  while (*pdesc != (uint8_t)'\0')
 8006e66:	7822      	ldrb	r2, [r4, #0]
 8006e68:	b142      	cbz	r2, 8006e7c <USBD_GetString+0x32>
    unicode[idx] = *pdesc;
 8006e6a:	54ea      	strb	r2, [r5, r3]
    pdesc++;
 8006e6c:	3401      	adds	r4, #1
    idx++;
 8006e6e:	1c5a      	adds	r2, r3, #1
 8006e70:	b2d2      	uxtb	r2, r2
    unicode[idx] = 0U;
 8006e72:	2100      	movs	r1, #0
 8006e74:	54a9      	strb	r1, [r5, r2]
    idx++;
 8006e76:	3302      	adds	r3, #2
 8006e78:	b2db      	uxtb	r3, r3
 8006e7a:	e7f4      	b.n	8006e66 <USBD_GetString+0x1c>
}
 8006e7c:	bd70      	pop	{r4, r5, r6, pc}
 8006e7e:	4770      	bx	lr

08006e80 <USBD_CtlSendData>:
* @param  len: length of data to be sent
* @retval status
*/
USBD_StatusTypeDef USBD_CtlSendData(USBD_HandleTypeDef *pdev,
                                    uint8_t *pbuf, uint32_t len)
{
 8006e80:	b510      	push	{r4, lr}
 8006e82:	4613      	mov	r3, r2
  /* Set EP0 State */
  pdev->ep0_state = USBD_EP0_DATA_IN;
 8006e84:	2202      	movs	r2, #2
 8006e86:	f8c0 2294 	str.w	r2, [r0, #660]	; 0x294
  pdev->ep_in[0].total_length = len;
 8006e8a:	6183      	str	r3, [r0, #24]
  pdev->ep_in[0].rem_length = len;
 8006e8c:	61c3      	str	r3, [r0, #28]

  /* Start the transfer */
  (void)USBD_LL_Transmit(pdev, 0x00U, pbuf, len);
 8006e8e:	460a      	mov	r2, r1
 8006e90:	2100      	movs	r1, #0
 8006e92:	f001 f905 	bl	80080a0 <USBD_LL_Transmit>

  return USBD_OK;
}
 8006e96:	2000      	movs	r0, #0
 8006e98:	bd10      	pop	{r4, pc}

08006e9a <USBD_CtlContinueSendData>:
* @param  len: length of data to be sent
* @retval status
*/
USBD_StatusTypeDef USBD_CtlContinueSendData(USBD_HandleTypeDef *pdev,
                                            uint8_t *pbuf, uint32_t len)
{
 8006e9a:	b508      	push	{r3, lr}
 8006e9c:	4613      	mov	r3, r2
  /* Start the next transfer */
  (void)USBD_LL_Transmit(pdev, 0x00U, pbuf, len);
 8006e9e:	460a      	mov	r2, r1
 8006ea0:	2100      	movs	r1, #0
 8006ea2:	f001 f8fd 	bl	80080a0 <USBD_LL_Transmit>

  return USBD_OK;
}
 8006ea6:	2000      	movs	r0, #0
 8006ea8:	bd08      	pop	{r3, pc}

08006eaa <USBD_CtlPrepareRx>:
* @param  len: length of data to be received
* @retval status
*/
USBD_StatusTypeDef USBD_CtlPrepareRx(USBD_HandleTypeDef *pdev,
                                     uint8_t *pbuf, uint32_t len)
{
 8006eaa:	b510      	push	{r4, lr}
 8006eac:	4613      	mov	r3, r2
  /* Set EP0 State */
  pdev->ep0_state = USBD_EP0_DATA_OUT;
 8006eae:	2203      	movs	r2, #3
 8006eb0:	f8c0 2294 	str.w	r2, [r0, #660]	; 0x294
  pdev->ep_out[0].total_length = len;
 8006eb4:	f8c0 3158 	str.w	r3, [r0, #344]	; 0x158
  pdev->ep_out[0].rem_length = len;
 8006eb8:	f8c0 315c 	str.w	r3, [r0, #348]	; 0x15c

  /* Start the transfer */
  (void)USBD_LL_PrepareReceive(pdev, 0U, pbuf, len);
 8006ebc:	460a      	mov	r2, r1
 8006ebe:	2100      	movs	r1, #0
 8006ec0:	f001 f8f6 	bl	80080b0 <USBD_LL_PrepareReceive>

  return USBD_OK;
}
 8006ec4:	2000      	movs	r0, #0
 8006ec6:	bd10      	pop	{r4, pc}

08006ec8 <USBD_CtlContinueRx>:
* @param  len: length of data to be received
* @retval status
*/
USBD_StatusTypeDef USBD_CtlContinueRx(USBD_HandleTypeDef *pdev,
                                      uint8_t *pbuf, uint32_t len)
{
 8006ec8:	b508      	push	{r3, lr}
 8006eca:	4613      	mov	r3, r2
  (void)USBD_LL_PrepareReceive(pdev, 0U, pbuf, len);
 8006ecc:	460a      	mov	r2, r1
 8006ece:	2100      	movs	r1, #0
 8006ed0:	f001 f8ee 	bl	80080b0 <USBD_LL_PrepareReceive>

  return USBD_OK;
}
 8006ed4:	2000      	movs	r0, #0
 8006ed6:	bd08      	pop	{r3, pc}

08006ed8 <USBD_CtlSendStatus>:
*         send zero lzngth packet on the ctl pipe
* @param  pdev: device instance
* @retval status
*/
USBD_StatusTypeDef USBD_CtlSendStatus(USBD_HandleTypeDef *pdev)
{
 8006ed8:	b508      	push	{r3, lr}
  /* Set EP0 State */
  pdev->ep0_state = USBD_EP0_STATUS_IN;
 8006eda:	2304      	movs	r3, #4
 8006edc:	f8c0 3294 	str.w	r3, [r0, #660]	; 0x294

  /* Start the transfer */
  (void)USBD_LL_Transmit(pdev, 0x00U, NULL, 0U);
 8006ee0:	2300      	movs	r3, #0
 8006ee2:	461a      	mov	r2, r3
 8006ee4:	4619      	mov	r1, r3
 8006ee6:	f001 f8db 	bl	80080a0 <USBD_LL_Transmit>

  return USBD_OK;
}
 8006eea:	2000      	movs	r0, #0
 8006eec:	bd08      	pop	{r3, pc}

08006eee <USBD_CtlReceiveStatus>:
*         receive zero lzngth packet on the ctl pipe
* @param  pdev: device instance
* @retval status
*/
USBD_StatusTypeDef USBD_CtlReceiveStatus(USBD_HandleTypeDef *pdev)
{
 8006eee:	b508      	push	{r3, lr}
  /* Set EP0 State */
  pdev->ep0_state = USBD_EP0_STATUS_OUT;
 8006ef0:	2305      	movs	r3, #5
 8006ef2:	f8c0 3294 	str.w	r3, [r0, #660]	; 0x294

  /* Start the transfer */
  (void)USBD_LL_PrepareReceive(pdev, 0U, NULL, 0U);
 8006ef6:	2300      	movs	r3, #0
 8006ef8:	461a      	mov	r2, r3
 8006efa:	4619      	mov	r1, r3
 8006efc:	f001 f8d8 	bl	80080b0 <USBD_LL_PrepareReceive>

  return USBD_OK;
}
 8006f00:	2000      	movs	r0, #0
 8006f02:	bd08      	pop	{r3, pc}

08006f04 <_ZN11BusAnalizer12MX_GPIO_InitEv>:
  * @brief GPIO Initialization Function
  * @param None
  * @retval None
  */
void BusAnalizer::MX_GPIO_Init(void)
{
 8006f04:	b5f0      	push	{r4, r5, r6, r7, lr}
 8006f06:	b08b      	sub	sp, #44	; 0x2c
  GPIO_InitTypeDef GPIO_InitStruct = {0};
 8006f08:	2400      	movs	r4, #0
 8006f0a:	9405      	str	r4, [sp, #20]
 8006f0c:	9406      	str	r4, [sp, #24]
 8006f0e:	9407      	str	r4, [sp, #28]
 8006f10:	9408      	str	r4, [sp, #32]
 8006f12:	9409      	str	r4, [sp, #36]	; 0x24

  /* GPIO Ports Clock Enable */
  __HAL_RCC_GPIOC_CLK_ENABLE();
 8006f14:	4b28      	ldr	r3, [pc, #160]	; (8006fb8 <_ZN11BusAnalizer12MX_GPIO_InitEv+0xb4>)
 8006f16:	f8d3 20e0 	ldr.w	r2, [r3, #224]	; 0xe0
 8006f1a:	f042 0204 	orr.w	r2, r2, #4
 8006f1e:	f8c3 20e0 	str.w	r2, [r3, #224]	; 0xe0
 8006f22:	f8d3 20e0 	ldr.w	r2, [r3, #224]	; 0xe0
 8006f26:	f002 0204 	and.w	r2, r2, #4
 8006f2a:	9201      	str	r2, [sp, #4]
 8006f2c:	9a01      	ldr	r2, [sp, #4]
  __HAL_RCC_GPIOH_CLK_ENABLE();
 8006f2e:	f8d3 20e0 	ldr.w	r2, [r3, #224]	; 0xe0
 8006f32:	f042 0280 	orr.w	r2, r2, #128	; 0x80
 8006f36:	f8c3 20e0 	str.w	r2, [r3, #224]	; 0xe0
 8006f3a:	f8d3 20e0 	ldr.w	r2, [r3, #224]	; 0xe0
 8006f3e:	f002 0280 	and.w	r2, r2, #128	; 0x80
 8006f42:	9202      	str	r2, [sp, #8]
 8006f44:	9a02      	ldr	r2, [sp, #8]
  __HAL_RCC_GPIOA_CLK_ENABLE();
 8006f46:	f8d3 20e0 	ldr.w	r2, [r3, #224]	; 0xe0
 8006f4a:	f042 0201 	orr.w	r2, r2, #1
 8006f4e:	f8c3 20e0 	str.w	r2, [r3, #224]	; 0xe0
 8006f52:	f8d3 20e0 	ldr.w	r2, [r3, #224]	; 0xe0
 8006f56:	f002 0201 	and.w	r2, r2, #1
 8006f5a:	9203      	str	r2, [sp, #12]
 8006f5c:	9a03      	ldr	r2, [sp, #12]
  __HAL_RCC_GPIOB_CLK_ENABLE();
 8006f5e:	f8d3 20e0 	ldr.w	r2, [r3, #224]	; 0xe0
 8006f62:	f042 0202 	orr.w	r2, r2, #2
 8006f66:	f8c3 20e0 	str.w	r2, [r3, #224]	; 0xe0
 8006f6a:	f8d3 30e0 	ldr.w	r3, [r3, #224]	; 0xe0
 8006f6e:	f003 0302 	and.w	r3, r3, #2
 8006f72:	9304      	str	r3, [sp, #16]
 8006f74:	9b04      	ldr	r3, [sp, #16]

  /*Configure GPIO pin Output Level */
  HAL_GPIO_WritePin(GPIOA, FD1_STBM_Pin|FD2_STBM_Pin, GPIO_PIN_RESET);
 8006f76:	4f11      	ldr	r7, [pc, #68]	; (8006fbc <_ZN11BusAnalizer12MX_GPIO_InitEv+0xb8>)
 8006f78:	4622      	mov	r2, r4
 8006f7a:	2118      	movs	r1, #24
 8006f7c:	4638      	mov	r0, r7
 8006f7e:	f7fa fb15 	bl	80015ac <HAL_GPIO_WritePin>

  /*Configure GPIO pin Output Level */
  HAL_GPIO_WritePin(GPIOB, GPIO_PIN_0|GPIO_PIN_1, GPIO_PIN_RESET);
 8006f82:	4d0f      	ldr	r5, [pc, #60]	; (8006fc0 <_ZN11BusAnalizer12MX_GPIO_InitEv+0xbc>)
 8006f84:	4622      	mov	r2, r4
 8006f86:	2103      	movs	r1, #3
 8006f88:	4628      	mov	r0, r5
 8006f8a:	f7fa fb0f 	bl	80015ac <HAL_GPIO_WritePin>

  /*Configure GPIO pins : FD1_STBM_Pin FD2_STBM_Pin */
  GPIO_InitStruct.Pin = FD1_STBM_Pin|FD2_STBM_Pin;
 8006f8e:	2318      	movs	r3, #24
 8006f90:	9305      	str	r3, [sp, #20]
  GPIO_InitStruct.Mode = GPIO_MODE_OUTPUT_PP;
 8006f92:	2601      	movs	r6, #1
 8006f94:	9606      	str	r6, [sp, #24]
  GPIO_InitStruct.Pull = GPIO_NOPULL;
 8006f96:	9407      	str	r4, [sp, #28]
  GPIO_InitStruct.Speed = GPIO_SPEED_FREQ_LOW;
 8006f98:	9408      	str	r4, [sp, #32]
  HAL_GPIO_Init(GPIOA, &GPIO_InitStruct);
 8006f9a:	a905      	add	r1, sp, #20
 8006f9c:	4638      	mov	r0, r7
 8006f9e:	f7fa fa13 	bl	80013c8 <HAL_GPIO_Init>

  /*Configure GPIO pins : PB0 PB1 */
  GPIO_InitStruct.Pin = GPIO_PIN_0|GPIO_PIN_1;
 8006fa2:	2303      	movs	r3, #3
 8006fa4:	9305      	str	r3, [sp, #20]
  GPIO_InitStruct.Mode = GPIO_MODE_OUTPUT_PP;
 8006fa6:	9606      	str	r6, [sp, #24]
  GPIO_InitStruct.Pull = GPIO_NOPULL;
 8006fa8:	9407      	str	r4, [sp, #28]
  GPIO_InitStruct.Speed = GPIO_SPEED_FREQ_LOW;
 8006faa:	9408      	str	r4, [sp, #32]
  HAL_GPIO_Init(GPIOB, &GPIO_InitStruct);
 8006fac:	a905      	add	r1, sp, #20
 8006fae:	4628      	mov	r0, r5
 8006fb0:	f7fa fa0a 	bl	80013c8 <HAL_GPIO_Init>

}
 8006fb4:	b00b      	add	sp, #44	; 0x2c
 8006fb6:	bdf0      	pop	{r4, r5, r6, r7, pc}
 8006fb8:	58024400 	.word	0x58024400
 8006fbc:	58020000 	.word	0x58020000
 8006fc0:	58020400 	.word	0x58020400

08006fc4 <_ZN11BusAnalizer13Error_HandlerEv>:
  */
void BusAnalizer::Error_Handler(void)
{
  /* USER CODE BEGIN Error_Handler_Debug */
  /* User can add his own implementation to report the HAL error return state */
	if (ui8ErrorTransmisionCAN1 == 1)
 8006fc4:	f890 20c8 	ldrb.w	r2, [r0, #200]	; 0xc8
 8006fc8:	2a01      	cmp	r2, #1
 8006fca:	d000      	beq.n	8006fce <_ZN11BusAnalizer13Error_HandlerEv+0xa>
	{
		ui32CounterTransmisionErrorCAN1++;
	}
	else
	{
      while(1);
 8006fcc:	e7fe      	b.n	8006fcc <_ZN11BusAnalizer13Error_HandlerEv+0x8>
		ui32CounterTransmisionErrorCAN1++;
 8006fce:	f8d0 20c4 	ldr.w	r2, [r0, #196]	; 0xc4
 8006fd2:	3201      	adds	r2, #1
 8006fd4:	f8c0 20c4 	str.w	r2, [r0, #196]	; 0xc4
	}
  /* USER CODE END Error_Handler_Debug */
}
 8006fd8:	4770      	bx	lr
	...

08006fdc <_ZN11BusAnalizer3RunEv>:
{
 8006fdc:	b538      	push	{r3, r4, r5, lr}
 8006fde:	4604      	mov	r4, r0
	if(ui16MessageTriggerFlag == 1)
 8006fe0:	f890 30c9 	ldrb.w	r3, [r0, #201]	; 0xc9
 8006fe4:	b3ab      	cbz	r3, 8007052 <_ZN11BusAnalizer3RunEv+0x76>
		ui16MessageTriggerFlag = 0;
 8006fe6:	2300      	movs	r3, #0
 8006fe8:	f880 30c9 	strb.w	r3, [r0, #201]	; 0xc9
		FixedTxHeader.Identifier = 0x321;
 8006fec:	f240 3221 	movw	r2, #801	; 0x321
 8006ff0:	f8c0 209c 	str.w	r2, [r0, #156]	; 0x9c
		FixedTxHeader.IdType = FDCAN_STANDARD_ID;
 8006ff4:	f8c0 30a0 	str.w	r3, [r0, #160]	; 0xa0
		FixedTxHeader.TxFrameType = FDCAN_DATA_FRAME;
 8006ff8:	f8c0 30a4 	str.w	r3, [r0, #164]	; 0xa4
		FixedTxHeader.DataLength = FDCAN_DLC_BYTES_3;
 8006ffc:	f44f 3240 	mov.w	r2, #196608	; 0x30000
 8007000:	f8c0 20a8 	str.w	r2, [r0, #168]	; 0xa8
		FixedTxHeader.ErrorStateIndicator = FDCAN_ESI_ACTIVE;
 8007004:	f8c0 30ac 	str.w	r3, [r0, #172]	; 0xac
		FixedTxHeader.BitRateSwitch = FDCAN_BRS_OFF;
 8007008:	f8c0 30b0 	str.w	r3, [r0, #176]	; 0xb0
		FixedTxHeader.FDFormat = FDCAN_CLASSIC_CAN;
 800700c:	f8c0 30b4 	str.w	r3, [r0, #180]	; 0xb4
		FixedTxHeader.TxEventFifoControl = FDCAN_NO_TX_EVENTS;
 8007010:	f8c0 30b8 	str.w	r3, [r0, #184]	; 0xb8
		FixedTxHeader.MessageMarker = 0;
 8007014:	f8c0 30bc 	str.w	r3, [r0, #188]	; 0xbc
		FixedTxData[0] = 0xBC;
 8007018:	23bc      	movs	r3, #188	; 0xbc
 800701a:	f880 3030 	strb.w	r3, [r0, #48]	; 0x30
		FixedTxData[1] = 0xAD;
 800701e:	23ad      	movs	r3, #173	; 0xad
 8007020:	f880 3031 	strb.w	r3, [r0, #49]	; 0x31
		FixedTxData[2] ++;
 8007024:	f890 3032 	ldrb.w	r3, [r0, #50]	; 0x32
 8007028:	3301      	adds	r3, #1
 800702a:	f880 3032 	strb.w	r3, [r0, #50]	; 0x32
		while (HAL_FDCAN_AddMessageToTxFifoQ(&hfdcan1, &FixedTxHeader, FixedTxData) != HAL_OK)
 800702e:	f104 0230 	add.w	r2, r4, #48	; 0x30
 8007032:	f104 019c 	add.w	r1, r4, #156	; 0x9c
 8007036:	4829      	ldr	r0, [pc, #164]	; (80070dc <_ZN11BusAnalizer3RunEv+0x100>)
 8007038:	f7f9 feb9 	bl	8000dae <HAL_FDCAN_AddMessageToTxFifoQ>
 800703c:	b148      	cbz	r0, 8007052 <_ZN11BusAnalizer3RunEv+0x76>
		  ui8ErrorTransmisionCAN1 =1;
 800703e:	2301      	movs	r3, #1
 8007040:	f884 30c8 	strb.w	r3, [r4, #200]	; 0xc8
		  Error_Handler();
 8007044:	4620      	mov	r0, r4
 8007046:	f7ff ffbd 	bl	8006fc4 <_ZN11BusAnalizer13Error_HandlerEv>
		  ui8ErrorTransmisionCAN1 =0;
 800704a:	2300      	movs	r3, #0
 800704c:	f884 30c8 	strb.w	r3, [r4, #200]	; 0xc8
		while (HAL_FDCAN_AddMessageToTxFifoQ(&hfdcan1, &FixedTxHeader, FixedTxData) != HAL_OK)
 8007050:	e7ed      	b.n	800702e <_ZN11BusAnalizer3RunEv+0x52>
	if (ui8SetRequestToUsbCAN1==true)
 8007052:	f894 30d4 	ldrb.w	r3, [r4, #212]	; 0xd4
 8007056:	2b00      	cmp	r3, #0
 8007058:	d03f      	beq.n	80070da <_ZN11BusAnalizer3RunEv+0xfe>
		memcpy(&sText[0],&RxHeader.Identifier,sizeof(RxHeader.Identifier));
 800705a:	6823      	ldr	r3, [r4, #0]
 800705c:	63a3      	str	r3, [r4, #56]	; 0x38
		lui16Lengthpdu = ((uint32_t)RxHeader.DataLength & 0xFFFF0000) >> 16;
 800705e:	89e0      	ldrh	r0, [r4, #14]
		memcpy(&sText[ui8IndexOffset],&lui16Lengthpdu,sizeof(lui16Lengthpdu));
 8007060:	87a0      	strh	r0, [r4, #60]	; 0x3c
		memcpy(&sText[ui8IndexOffset],&ui32TimerValue,sizeof(ui32TimerValue));
 8007062:	f8d4 30cc 	ldr.w	r3, [r4, #204]	; 0xcc
 8007066:	f8c4 303e 	str.w	r3, [r4, #62]	; 0x3e
		for (uint8_t ui8Index=0;ui8Index<lui16Lengthpdu;ui8Index++)
 800706a:	2300      	movs	r3, #0
 800706c:	4283      	cmp	r3, r0
 800706e:	da0a      	bge.n	8007086 <_ZN11BusAnalizer3RunEv+0xaa>
			sText[ui8Index +ui8IndexOffset] = RxData[ui8Index];
 8007070:	f103 020a 	add.w	r2, r3, #10
 8007074:	18e1      	adds	r1, r4, r3
 8007076:	f891 1028 	ldrb.w	r1, [r1, #40]	; 0x28
 800707a:	4422      	add	r2, r4
 800707c:	f882 1038 	strb.w	r1, [r2, #56]	; 0x38
		for (uint8_t ui8Index=0;ui8Index<lui16Lengthpdu;ui8Index++)
 8007080:	3301      	adds	r3, #1
 8007082:	b2db      	uxtb	r3, r3
 8007084:	e7f2      	b.n	800706c <_ZN11BusAnalizer3RunEv+0x90>
		uint32_t lui32DeltameasureTransmit = __HAL_TIM_GET_COUNTER(&htim2);
 8007086:	4b15      	ldr	r3, [pc, #84]	; (80070dc <_ZN11BusAnalizer3RunEv+0x100>)
 8007088:	f8d3 30a0 	ldr.w	r3, [r3, #160]	; 0xa0
 800708c:	6a5d      	ldr	r5, [r3, #36]	; 0x24
 800708e:	e000      	b.n	8007092 <_ZN11BusAnalizer3RunEv+0xb6>
		}while (ui8ErrorUSB != USBD_OK);
 8007090:	b173      	cbz	r3, 80070b0 <_ZN11BusAnalizer3RunEv+0xd4>
		  ui8ErrorUSB = CDC_Transmit_HS(static_cast<unsigned char *>(sText),2048);
 8007092:	f44f 6100 	mov.w	r1, #2048	; 0x800
 8007096:	f104 0038 	add.w	r0, r4, #56	; 0x38
 800709a:	f000 fe9f 	bl	8007ddc <CDC_Transmit_HS>
		  if (ui8ErrorUSB != USBD_OK) ui32USBerrors++;
 800709e:	4603      	mov	r3, r0
 80070a0:	2800      	cmp	r0, #0
 80070a2:	d0f5      	beq.n	8007090 <_ZN11BusAnalizer3RunEv+0xb4>
 80070a4:	f8d4 20d0 	ldr.w	r2, [r4, #208]	; 0xd0
 80070a8:	3201      	adds	r2, #1
 80070aa:	f8c4 20d0 	str.w	r2, [r4, #208]	; 0xd0
 80070ae:	e7ef      	b.n	8007090 <_ZN11BusAnalizer3RunEv+0xb4>
		ui32DeltameasureTransmit = __HAL_TIM_GET_COUNTER(&htim2) -lui32DeltameasureTransmit;
 80070b0:	4b0a      	ldr	r3, [pc, #40]	; (80070dc <_ZN11BusAnalizer3RunEv+0x100>)
 80070b2:	f8d3 30a0 	ldr.w	r3, [r3, #160]	; 0xa0
 80070b6:	6a5b      	ldr	r3, [r3, #36]	; 0x24
 80070b8:	1b5b      	subs	r3, r3, r5
 80070ba:	f8c4 30d8 	str.w	r3, [r4, #216]	; 0xd8
		if (ui32DeltameasureTransmit>ui32DeltameasureTransmitMax)
 80070be:	f8d4 20dc 	ldr.w	r2, [r4, #220]	; 0xdc
 80070c2:	4293      	cmp	r3, r2
 80070c4:	d901      	bls.n	80070ca <_ZN11BusAnalizer3RunEv+0xee>
			ui32DeltameasureTransmitMax = ui32DeltameasureTransmit;
 80070c6:	f8c4 30dc 	str.w	r3, [r4, #220]	; 0xdc
		GPIOB->ODR ^=0x1;
 80070ca:	4a05      	ldr	r2, [pc, #20]	; (80070e0 <_ZN11BusAnalizer3RunEv+0x104>)
 80070cc:	6953      	ldr	r3, [r2, #20]
 80070ce:	f083 0301 	eor.w	r3, r3, #1
 80070d2:	6153      	str	r3, [r2, #20]
		ui8SetRequestToUsbCAN1 =false;
 80070d4:	2300      	movs	r3, #0
 80070d6:	f884 30d4 	strb.w	r3, [r4, #212]	; 0xd4
}
 80070da:	bd38      	pop	{r3, r4, r5, pc}
 80070dc:	20000208 	.word	0x20000208
 80070e0:	58020400 	.word	0x58020400

080070e4 <_ZN11BusAnalizer18SystemClock_ConfigEv>:
{
 80070e4:	b510      	push	{r4, lr}
 80070e6:	b0cc      	sub	sp, #304	; 0x130
 80070e8:	4604      	mov	r4, r0
  RCC_OscInitTypeDef RCC_OscInitStruct = {0};
 80070ea:	224c      	movs	r2, #76	; 0x4c
 80070ec:	2100      	movs	r1, #0
 80070ee:	a839      	add	r0, sp, #228	; 0xe4
 80070f0:	f001 f8ea 	bl	80082c8 <memset>
  RCC_ClkInitTypeDef RCC_ClkInitStruct = {0};
 80070f4:	2220      	movs	r2, #32
 80070f6:	2100      	movs	r1, #0
 80070f8:	a831      	add	r0, sp, #196	; 0xc4
 80070fa:	f001 f8e5 	bl	80082c8 <memset>
  RCC_PeriphCLKInitTypeDef PeriphClkInitStruct = {0};
 80070fe:	22bc      	movs	r2, #188	; 0xbc
 8007100:	2100      	movs	r1, #0
 8007102:	a802      	add	r0, sp, #8
 8007104:	f001 f8e0 	bl	80082c8 <memset>
  HAL_PWREx_ConfigSupply(PWR_LDO_SUPPLY);
 8007108:	2002      	movs	r0, #2
 800710a:	f7fb f8fd 	bl	8002308 <HAL_PWREx_ConfigSupply>
  __HAL_PWR_VOLTAGESCALING_CONFIG(PWR_REGULATOR_VOLTAGE_SCALE0);
 800710e:	2300      	movs	r3, #0
 8007110:	9301      	str	r3, [sp, #4]
 8007112:	4b35      	ldr	r3, [pc, #212]	; (80071e8 <_ZN11BusAnalizer18SystemClock_ConfigEv+0x104>)
 8007114:	699a      	ldr	r2, [r3, #24]
 8007116:	f442 4240 	orr.w	r2, r2, #49152	; 0xc000
 800711a:	619a      	str	r2, [r3, #24]
 800711c:	699b      	ldr	r3, [r3, #24]
 800711e:	f403 4340 	and.w	r3, r3, #49152	; 0xc000
 8007122:	9301      	str	r3, [sp, #4]
 8007124:	4b31      	ldr	r3, [pc, #196]	; (80071ec <_ZN11BusAnalizer18SystemClock_ConfigEv+0x108>)
 8007126:	6ada      	ldr	r2, [r3, #44]	; 0x2c
 8007128:	f042 0201 	orr.w	r2, r2, #1
 800712c:	62da      	str	r2, [r3, #44]	; 0x2c
 800712e:	6adb      	ldr	r3, [r3, #44]	; 0x2c
 8007130:	f003 0301 	and.w	r3, r3, #1
 8007134:	9301      	str	r3, [sp, #4]
 8007136:	9b01      	ldr	r3, [sp, #4]
  while(!__HAL_PWR_GET_FLAG(PWR_FLAG_VOSRDY)) {}
 8007138:	4b2b      	ldr	r3, [pc, #172]	; (80071e8 <_ZN11BusAnalizer18SystemClock_ConfigEv+0x104>)
 800713a:	699b      	ldr	r3, [r3, #24]
 800713c:	f413 5f00 	tst.w	r3, #8192	; 0x2000
 8007140:	d0fa      	beq.n	8007138 <_ZN11BusAnalizer18SystemClock_ConfigEv+0x54>
  RCC_OscInitStruct.OscillatorType = RCC_OSCILLATORTYPE_LSI|RCC_OSCILLATORTYPE_HSE;
 8007142:	2309      	movs	r3, #9
 8007144:	9339      	str	r3, [sp, #228]	; 0xe4
  RCC_OscInitStruct.HSEState = RCC_HSE_ON;
 8007146:	f44f 3380 	mov.w	r3, #65536	; 0x10000
 800714a:	933a      	str	r3, [sp, #232]	; 0xe8
  RCC_OscInitStruct.LSIState = RCC_LSI_ON;
 800714c:	2201      	movs	r2, #1
 800714e:	923e      	str	r2, [sp, #248]	; 0xf8
  RCC_OscInitStruct.PLL.PLLState = RCC_PLL_ON;
 8007150:	2302      	movs	r3, #2
 8007152:	9342      	str	r3, [sp, #264]	; 0x108
  RCC_OscInitStruct.PLL.PLLSource = RCC_PLLSOURCE_HSE;
 8007154:	9343      	str	r3, [sp, #268]	; 0x10c
  RCC_OscInitStruct.PLL.PLLM = 1;
 8007156:	9244      	str	r2, [sp, #272]	; 0x110
  RCC_OscInitStruct.PLL.PLLN = 120;
 8007158:	2278      	movs	r2, #120	; 0x78
 800715a:	9245      	str	r2, [sp, #276]	; 0x114
  RCC_OscInitStruct.PLL.PLLP = 2;
 800715c:	9346      	str	r3, [sp, #280]	; 0x118
  RCC_OscInitStruct.PLL.PLLQ = 20;
 800715e:	2214      	movs	r2, #20
 8007160:	9247      	str	r2, [sp, #284]	; 0x11c
  RCC_OscInitStruct.PLL.PLLR = 2;
 8007162:	9348      	str	r3, [sp, #288]	; 0x120
  RCC_OscInitStruct.PLL.PLLRGE = RCC_PLL1VCIRANGE_3;
 8007164:	230c      	movs	r3, #12
 8007166:	9349      	str	r3, [sp, #292]	; 0x124
  RCC_OscInitStruct.PLL.PLLVCOSEL = RCC_PLL1VCOWIDE;
 8007168:	2300      	movs	r3, #0
 800716a:	934a      	str	r3, [sp, #296]	; 0x128
  RCC_OscInitStruct.PLL.PLLFRACN = 0;
 800716c:	934b      	str	r3, [sp, #300]	; 0x12c
  if (HAL_RCC_OscConfig(&RCC_OscInitStruct) != HAL_OK)
 800716e:	a839      	add	r0, sp, #228	; 0xe4
 8007170:	f7fb f8fc 	bl	800236c <HAL_RCC_OscConfig>
 8007174:	bb58      	cbnz	r0, 80071ce <_ZN11BusAnalizer18SystemClock_ConfigEv+0xea>
  RCC_ClkInitStruct.ClockType = RCC_CLOCKTYPE_HCLK|RCC_CLOCKTYPE_SYSCLK
 8007176:	233f      	movs	r3, #63	; 0x3f
 8007178:	9331      	str	r3, [sp, #196]	; 0xc4
  RCC_ClkInitStruct.SYSCLKSource = RCC_SYSCLKSOURCE_PLLCLK;
 800717a:	2303      	movs	r3, #3
 800717c:	9332      	str	r3, [sp, #200]	; 0xc8
  RCC_ClkInitStruct.SYSCLKDivider = RCC_SYSCLK_DIV1;
 800717e:	2300      	movs	r3, #0
 8007180:	9333      	str	r3, [sp, #204]	; 0xcc
  RCC_ClkInitStruct.AHBCLKDivider = RCC_HCLK_DIV2;
 8007182:	2308      	movs	r3, #8
 8007184:	9334      	str	r3, [sp, #208]	; 0xd0
  RCC_ClkInitStruct.APB3CLKDivider = RCC_APB3_DIV2;
 8007186:	2340      	movs	r3, #64	; 0x40
 8007188:	9335      	str	r3, [sp, #212]	; 0xd4
  RCC_ClkInitStruct.APB1CLKDivider = RCC_APB1_DIV16;
 800718a:	2270      	movs	r2, #112	; 0x70
 800718c:	9236      	str	r2, [sp, #216]	; 0xd8
  RCC_ClkInitStruct.APB2CLKDivider = RCC_APB2_DIV2;
 800718e:	f44f 6280 	mov.w	r2, #1024	; 0x400
 8007192:	9237      	str	r2, [sp, #220]	; 0xdc
  RCC_ClkInitStruct.APB4CLKDivider = RCC_APB4_DIV2;
 8007194:	9338      	str	r3, [sp, #224]	; 0xe0
  if (HAL_RCC_ClockConfig(&RCC_ClkInitStruct, FLASH_LATENCY_4) != HAL_OK)
 8007196:	2104      	movs	r1, #4
 8007198:	a831      	add	r0, sp, #196	; 0xc4
 800719a:	f7fb fd07 	bl	8002bac <HAL_RCC_ClockConfig>
 800719e:	b9d0      	cbnz	r0, 80071d6 <_ZN11BusAnalizer18SystemClock_ConfigEv+0xf2>
  PeriphClkInitStruct.PeriphClockSelection = RCC_PERIPHCLK_RTC|RCC_PERIPHCLK_FDCAN
 80071a0:	4b13      	ldr	r3, [pc, #76]	; (80071f0 <_ZN11BusAnalizer18SystemClock_ConfigEv+0x10c>)
 80071a2:	9302      	str	r3, [sp, #8]
  PeriphClkInitStruct.Spi123ClockSelection = RCC_SPI123CLKSOURCE_PLL;
 80071a4:	2300      	movs	r3, #0
 80071a6:	9319      	str	r3, [sp, #100]	; 0x64
  PeriphClkInitStruct.FdcanClockSelection = RCC_FDCANCLKSOURCE_PLL;
 80071a8:	f04f 5280 	mov.w	r2, #268435456	; 0x10000000
 80071ac:	921d      	str	r2, [sp, #116]	; 0x74
  PeriphClkInitStruct.Usart16ClockSelection = RCC_USART16CLKSOURCE_D2PCLK2;
 80071ae:	9320      	str	r3, [sp, #128]	; 0x80
  PeriphClkInitStruct.I2c123ClockSelection = RCC_I2C123CLKSOURCE_D2PCLK1;
 80071b0:	9322      	str	r3, [sp, #136]	; 0x88
  PeriphClkInitStruct.UsbClockSelection = RCC_USBCLKSOURCE_PLL;
 80071b2:	f44f 1380 	mov.w	r3, #1048576	; 0x100000
 80071b6:	9323      	str	r3, [sp, #140]	; 0x8c
  PeriphClkInitStruct.RTCClockSelection = RCC_RTCCLKSOURCE_LSI;
 80071b8:	f44f 7300 	mov.w	r3, #512	; 0x200
 80071bc:	932e      	str	r3, [sp, #184]	; 0xb8
  if (HAL_RCCEx_PeriphCLKConfig(&PeriphClkInitStruct) != HAL_OK)
 80071be:	a802      	add	r0, sp, #8
 80071c0:	f7fb ffba 	bl	8003138 <HAL_RCCEx_PeriphCLKConfig>
 80071c4:	b958      	cbnz	r0, 80071de <_ZN11BusAnalizer18SystemClock_ConfigEv+0xfa>
  HAL_PWREx_EnableUSBVoltageDetector();
 80071c6:	f7fb f8c9 	bl	800235c <HAL_PWREx_EnableUSBVoltageDetector>
}
 80071ca:	b04c      	add	sp, #304	; 0x130
 80071cc:	bd10      	pop	{r4, pc}
    Error_Handler();
 80071ce:	4620      	mov	r0, r4
 80071d0:	f7ff fef8 	bl	8006fc4 <_ZN11BusAnalizer13Error_HandlerEv>
 80071d4:	e7cf      	b.n	8007176 <_ZN11BusAnalizer18SystemClock_ConfigEv+0x92>
    Error_Handler();
 80071d6:	4620      	mov	r0, r4
 80071d8:	f7ff fef4 	bl	8006fc4 <_ZN11BusAnalizer13Error_HandlerEv>
 80071dc:	e7e0      	b.n	80071a0 <_ZN11BusAnalizer18SystemClock_ConfigEv+0xbc>
    Error_Handler();
 80071de:	4620      	mov	r0, r4
 80071e0:	f7ff fef0 	bl	8006fc4 <_ZN11BusAnalizer13Error_HandlerEv>
 80071e4:	e7ef      	b.n	80071c6 <_ZN11BusAnalizer18SystemClock_ConfigEv+0xe2>
 80071e6:	bf00      	nop
 80071e8:	58024800 	.word	0x58024800
 80071ec:	58000400 	.word	0x58000400
 80071f0:	00449009 	.word	0x00449009

080071f4 <_ZN11BusAnalizer14MX_FDCAN1_InitEv>:
{
 80071f4:	b570      	push	{r4, r5, r6, lr}
 80071f6:	b08a      	sub	sp, #40	; 0x28
 80071f8:	4604      	mov	r4, r0
  hfdcan1.Instance = FDCAN1;
 80071fa:	482e      	ldr	r0, [pc, #184]	; (80072b4 <_ZN11BusAnalizer14MX_FDCAN1_InitEv+0xc0>)
 80071fc:	4b2e      	ldr	r3, [pc, #184]	; (80072b8 <_ZN11BusAnalizer14MX_FDCAN1_InitEv+0xc4>)
 80071fe:	6003      	str	r3, [r0, #0]
  hfdcan1.Init.FrameFormat = FDCAN_FRAME_CLASSIC;
 8007200:	2300      	movs	r3, #0
 8007202:	6083      	str	r3, [r0, #8]
  hfdcan1.Init.Mode = FDCAN_MODE_EXTERNAL_LOOPBACK;
 8007204:	2204      	movs	r2, #4
 8007206:	60c2      	str	r2, [r0, #12]
  hfdcan1.Init.AutoRetransmission = ENABLE;
 8007208:	2101      	movs	r1, #1
 800720a:	7401      	strb	r1, [r0, #16]
  hfdcan1.Init.TransmitPause = DISABLE;
 800720c:	7443      	strb	r3, [r0, #17]
  hfdcan1.Init.ProtocolException = ENABLE;
 800720e:	7481      	strb	r1, [r0, #18]
  hfdcan1.Init.NominalPrescaler = 2;
 8007210:	2602      	movs	r6, #2
 8007212:	6146      	str	r6, [r0, #20]
  hfdcan1.Init.NominalSyncJumpWidth = 1;
 8007214:	6181      	str	r1, [r0, #24]
  hfdcan1.Init.NominalTimeSeg1 = 4;
 8007216:	61c2      	str	r2, [r0, #28]
  hfdcan1.Init.NominalTimeSeg2 = 3;
 8007218:	2503      	movs	r5, #3
 800721a:	6205      	str	r5, [r0, #32]
  hfdcan1.Init.DataPrescaler = 2;
 800721c:	6246      	str	r6, [r0, #36]	; 0x24
  hfdcan1.Init.DataSyncJumpWidth = 1;
 800721e:	6281      	str	r1, [r0, #40]	; 0x28
  hfdcan1.Init.DataTimeSeg1 = 4;
 8007220:	62c2      	str	r2, [r0, #44]	; 0x2c
  hfdcan1.Init.DataTimeSeg2 = 3;
 8007222:	6305      	str	r5, [r0, #48]	; 0x30
  hfdcan1.Init.MessageRAMOffset = 0;
 8007224:	6343      	str	r3, [r0, #52]	; 0x34
  hfdcan1.Init.StdFiltersNbr = 0;
 8007226:	6383      	str	r3, [r0, #56]	; 0x38
  hfdcan1.Init.ExtFiltersNbr = 0;
 8007228:	63c3      	str	r3, [r0, #60]	; 0x3c
  hfdcan1.Init.RxFifo0ElmtsNbr = 64;
 800722a:	2140      	movs	r1, #64	; 0x40
 800722c:	6401      	str	r1, [r0, #64]	; 0x40
  hfdcan1.Init.RxFifo0ElmtSize = FDCAN_DATA_BYTES_8;
 800722e:	6442      	str	r2, [r0, #68]	; 0x44
  hfdcan1.Init.RxFifo1ElmtsNbr = 64;
 8007230:	6481      	str	r1, [r0, #72]	; 0x48
  hfdcan1.Init.RxFifo1ElmtSize = FDCAN_DATA_BYTES_8;
 8007232:	64c2      	str	r2, [r0, #76]	; 0x4c
  hfdcan1.Init.RxBuffersNbr = 0;
 8007234:	6503      	str	r3, [r0, #80]	; 0x50
  hfdcan1.Init.RxBufferSize = FDCAN_DATA_BYTES_8;
 8007236:	6542      	str	r2, [r0, #84]	; 0x54
  hfdcan1.Init.TxEventsNbr = 0;
 8007238:	6583      	str	r3, [r0, #88]	; 0x58
  hfdcan1.Init.TxBuffersNbr = 0;
 800723a:	65c3      	str	r3, [r0, #92]	; 0x5c
  hfdcan1.Init.TxFifoQueueElmtsNbr = 32;
 800723c:	2120      	movs	r1, #32
 800723e:	6601      	str	r1, [r0, #96]	; 0x60
  hfdcan1.Init.TxFifoQueueMode = FDCAN_TX_FIFO_OPERATION;
 8007240:	6643      	str	r3, [r0, #100]	; 0x64
  hfdcan1.Init.TxElmtSize = FDCAN_DATA_BYTES_8;
 8007242:	6682      	str	r2, [r0, #104]	; 0x68
  if (HAL_FDCAN_Init(&hfdcan1) != HAL_OK)
 8007244:	f7f9 fbf0 	bl	8000a28 <HAL_FDCAN_Init>
 8007248:	bb18      	cbnz	r0, 8007292 <_ZN11BusAnalizer14MX_FDCAN1_InitEv+0x9e>
    sFilterConfig.IdType = FDCAN_STANDARD_ID;
 800724a:	2300      	movs	r3, #0
 800724c:	9302      	str	r3, [sp, #8]
    sFilterConfig.FilterIndex = 0;
 800724e:	9303      	str	r3, [sp, #12]
    sFilterConfig.FilterType = FDCAN_FILTER_MASK;
 8007250:	2302      	movs	r3, #2
 8007252:	9304      	str	r3, [sp, #16]
    sFilterConfig.FilterConfig = FDCAN_FILTER_TO_RXFIFO0;
 8007254:	2301      	movs	r3, #1
 8007256:	9305      	str	r3, [sp, #20]
    sFilterConfig.FilterID1 = 0x7FF;
 8007258:	f240 73ff 	movw	r3, #2047	; 0x7ff
 800725c:	9306      	str	r3, [sp, #24]
    sFilterConfig.FilterID2 = 0x7FF;
 800725e:	9307      	str	r3, [sp, #28]
    if (HAL_FDCAN_ConfigFilter(&hfdcan1, &sFilterConfig) != HAL_OK)
 8007260:	a902      	add	r1, sp, #8
 8007262:	4814      	ldr	r0, [pc, #80]	; (80072b4 <_ZN11BusAnalizer14MX_FDCAN1_InitEv+0xc0>)
 8007264:	f7f9 fd2a 	bl	8000cbc <HAL_FDCAN_ConfigFilter>
 8007268:	b9b8      	cbnz	r0, 800729a <_ZN11BusAnalizer14MX_FDCAN1_InitEv+0xa6>
    HAL_FDCAN_ConfigGlobalFilter(&hfdcan1, FDCAN_ACCEPT_IN_RX_FIFO0, FDCAN_ACCEPT_IN_RX_FIFO0, FDCAN_REJECT_REMOTE, FDCAN_REJECT_REMOTE);
 800726a:	4d12      	ldr	r5, [pc, #72]	; (80072b4 <_ZN11BusAnalizer14MX_FDCAN1_InitEv+0xc0>)
 800726c:	2301      	movs	r3, #1
 800726e:	9300      	str	r3, [sp, #0]
 8007270:	2200      	movs	r2, #0
 8007272:	4611      	mov	r1, r2
 8007274:	4628      	mov	r0, r5
 8007276:	f7f9 fd64 	bl	8000d42 <HAL_FDCAN_ConfigGlobalFilter>
	if (HAL_FDCAN_Start(&hfdcan1) != HAL_OK)
 800727a:	4628      	mov	r0, r5
 800727c:	f7f9 fd7d 	bl	8000d7a <HAL_FDCAN_Start>
 8007280:	b978      	cbnz	r0, 80072a2 <_ZN11BusAnalizer14MX_FDCAN1_InitEv+0xae>
	if (HAL_FDCAN_ActivateNotification(&hfdcan1, FDCAN_IT_RX_FIFO0_NEW_MESSAGE, 0) != HAL_OK)
 8007282:	2200      	movs	r2, #0
 8007284:	2101      	movs	r1, #1
 8007286:	480b      	ldr	r0, [pc, #44]	; (80072b4 <_ZN11BusAnalizer14MX_FDCAN1_InitEv+0xc0>)
 8007288:	f7f9 feb0 	bl	8000fec <HAL_FDCAN_ActivateNotification>
 800728c:	b968      	cbnz	r0, 80072aa <_ZN11BusAnalizer14MX_FDCAN1_InitEv+0xb6>
}
 800728e:	b00a      	add	sp, #40	; 0x28
 8007290:	bd70      	pop	{r4, r5, r6, pc}
    Error_Handler();
 8007292:	4620      	mov	r0, r4
 8007294:	f7ff fe96 	bl	8006fc4 <_ZN11BusAnalizer13Error_HandlerEv>
 8007298:	e7d7      	b.n	800724a <_ZN11BusAnalizer14MX_FDCAN1_InitEv+0x56>
      Error_Handler();
 800729a:	4620      	mov	r0, r4
 800729c:	f7ff fe92 	bl	8006fc4 <_ZN11BusAnalizer13Error_HandlerEv>
 80072a0:	e7e3      	b.n	800726a <_ZN11BusAnalizer14MX_FDCAN1_InitEv+0x76>
	Error_Handler();
 80072a2:	4620      	mov	r0, r4
 80072a4:	f7ff fe8e 	bl	8006fc4 <_ZN11BusAnalizer13Error_HandlerEv>
 80072a8:	e7eb      	b.n	8007282 <_ZN11BusAnalizer14MX_FDCAN1_InitEv+0x8e>
	Error_Handler();
 80072aa:	4620      	mov	r0, r4
 80072ac:	f7ff fe8a 	bl	8006fc4 <_ZN11BusAnalizer13Error_HandlerEv>
}
 80072b0:	e7ed      	b.n	800728e <_ZN11BusAnalizer14MX_FDCAN1_InitEv+0x9a>
 80072b2:	bf00      	nop
 80072b4:	20000208 	.word	0x20000208
 80072b8:	4000a000 	.word	0x4000a000

080072bc <_ZN11BusAnalizer14MX_FDCAN2_InitEv>:
{
 80072bc:	b510      	push	{r4, lr}
 80072be:	4604      	mov	r4, r0
  hfdcan2.Instance = FDCAN2;
 80072c0:	4b24      	ldr	r3, [pc, #144]	; (8007354 <_ZN11BusAnalizer14MX_FDCAN2_InitEv+0x98>)
 80072c2:	4a25      	ldr	r2, [pc, #148]	; (8007358 <_ZN11BusAnalizer14MX_FDCAN2_InitEv+0x9c>)
 80072c4:	f8c3 20ec 	str.w	r2, [r3, #236]	; 0xec
  hfdcan2.Init.FrameFormat = FDCAN_FRAME_CLASSIC;
 80072c8:	2200      	movs	r2, #0
 80072ca:	f8c3 20f4 	str.w	r2, [r3, #244]	; 0xf4
  hfdcan2.Init.Mode = FDCAN_MODE_NORMAL;
 80072ce:	f8c3 20f8 	str.w	r2, [r3, #248]	; 0xf8
  hfdcan2.Init.AutoRetransmission = DISABLE;
 80072d2:	f883 20fc 	strb.w	r2, [r3, #252]	; 0xfc
  hfdcan2.Init.TransmitPause = DISABLE;
 80072d6:	f883 20fd 	strb.w	r2, [r3, #253]	; 0xfd
  hfdcan2.Init.ProtocolException = DISABLE;
 80072da:	f883 20fe 	strb.w	r2, [r3, #254]	; 0xfe
  hfdcan2.Init.NominalPrescaler = 1;
 80072de:	2101      	movs	r1, #1
 80072e0:	f8c3 1100 	str.w	r1, [r3, #256]	; 0x100
  hfdcan2.Init.NominalSyncJumpWidth = 1;
 80072e4:	f8c3 1104 	str.w	r1, [r3, #260]	; 0x104
  hfdcan2.Init.NominalTimeSeg1 = 2;
 80072e8:	2002      	movs	r0, #2
 80072ea:	f8c3 0108 	str.w	r0, [r3, #264]	; 0x108
  hfdcan2.Init.NominalTimeSeg2 = 2;
 80072ee:	f8c3 010c 	str.w	r0, [r3, #268]	; 0x10c
  hfdcan2.Init.DataPrescaler = 1;
 80072f2:	f8c3 1110 	str.w	r1, [r3, #272]	; 0x110
  hfdcan2.Init.DataSyncJumpWidth = 1;
 80072f6:	f8c3 1114 	str.w	r1, [r3, #276]	; 0x114
  hfdcan2.Init.DataTimeSeg1 = 1;
 80072fa:	f8c3 1118 	str.w	r1, [r3, #280]	; 0x118
  hfdcan2.Init.DataTimeSeg2 = 1;
 80072fe:	f8c3 111c 	str.w	r1, [r3, #284]	; 0x11c
  hfdcan2.Init.MessageRAMOffset = 0;
 8007302:	f8c3 2120 	str.w	r2, [r3, #288]	; 0x120
  hfdcan2.Init.StdFiltersNbr = 0;
 8007306:	f8c3 2124 	str.w	r2, [r3, #292]	; 0x124
  hfdcan2.Init.ExtFiltersNbr = 0;
 800730a:	f8c3 2128 	str.w	r2, [r3, #296]	; 0x128
  hfdcan2.Init.RxFifo0ElmtsNbr = 20;
 800730e:	2014      	movs	r0, #20
 8007310:	f8c3 012c 	str.w	r0, [r3, #300]	; 0x12c
  hfdcan2.Init.RxFifo0ElmtSize = FDCAN_DATA_BYTES_8;
 8007314:	2104      	movs	r1, #4
 8007316:	f8c3 1130 	str.w	r1, [r3, #304]	; 0x130
  hfdcan2.Init.RxFifo1ElmtsNbr = 20;
 800731a:	f8c3 0134 	str.w	r0, [r3, #308]	; 0x134
  hfdcan2.Init.RxFifo1ElmtSize = FDCAN_DATA_BYTES_8;
 800731e:	f8c3 1138 	str.w	r1, [r3, #312]	; 0x138
  hfdcan2.Init.RxBuffersNbr = 0;
 8007322:	f8c3 213c 	str.w	r2, [r3, #316]	; 0x13c
  hfdcan2.Init.RxBufferSize = FDCAN_DATA_BYTES_8;
 8007326:	f8c3 1140 	str.w	r1, [r3, #320]	; 0x140
  hfdcan2.Init.TxEventsNbr = 0;
 800732a:	f8c3 2144 	str.w	r2, [r3, #324]	; 0x144
  hfdcan2.Init.TxBuffersNbr = 0;
 800732e:	f8c3 2148 	str.w	r2, [r3, #328]	; 0x148
  hfdcan2.Init.TxFifoQueueElmtsNbr = 10;
 8007332:	200a      	movs	r0, #10
 8007334:	f8c3 014c 	str.w	r0, [r3, #332]	; 0x14c
  hfdcan2.Init.TxFifoQueueMode = FDCAN_TX_FIFO_OPERATION;
 8007338:	f8c3 2150 	str.w	r2, [r3, #336]	; 0x150
  hfdcan2.Init.TxElmtSize = FDCAN_DATA_BYTES_8;
 800733c:	f8c3 1154 	str.w	r1, [r3, #340]	; 0x154
  if (HAL_FDCAN_Init(&hfdcan2) != HAL_OK)
 8007340:	f103 00ec 	add.w	r0, r3, #236	; 0xec
 8007344:	f7f9 fb70 	bl	8000a28 <HAL_FDCAN_Init>
 8007348:	b900      	cbnz	r0, 800734c <_ZN11BusAnalizer14MX_FDCAN2_InitEv+0x90>
}
 800734a:	bd10      	pop	{r4, pc}
    Error_Handler();
 800734c:	4620      	mov	r0, r4
 800734e:	f7ff fe39 	bl	8006fc4 <_ZN11BusAnalizer13Error_HandlerEv>
}
 8007352:	e7fa      	b.n	800734a <_ZN11BusAnalizer14MX_FDCAN2_InitEv+0x8e>
 8007354:	20000208 	.word	0x20000208
 8007358:	4000a400 	.word	0x4000a400

0800735c <_ZN11BusAnalizer12MX_I2C1_InitEv>:
{
 800735c:	b510      	push	{r4, lr}
 800735e:	4604      	mov	r4, r0
  hi2c1.Instance = I2C1;
 8007360:	4819      	ldr	r0, [pc, #100]	; (80073c8 <_ZN11BusAnalizer12MX_I2C1_InitEv+0x6c>)
 8007362:	4a1a      	ldr	r2, [pc, #104]	; (80073cc <_ZN11BusAnalizer12MX_I2C1_InitEv+0x70>)
 8007364:	f8c0 218c 	str.w	r2, [r0, #396]	; 0x18c
  hi2c1.Init.Timing = 0x00303956;
 8007368:	4a19      	ldr	r2, [pc, #100]	; (80073d0 <_ZN11BusAnalizer12MX_I2C1_InitEv+0x74>)
 800736a:	f8c0 2190 	str.w	r2, [r0, #400]	; 0x190
  hi2c1.Init.OwnAddress1 = 0;
 800736e:	2200      	movs	r2, #0
 8007370:	f8c0 2194 	str.w	r2, [r0, #404]	; 0x194
  hi2c1.Init.AddressingMode = I2C_ADDRESSINGMODE_7BIT;
 8007374:	2101      	movs	r1, #1
 8007376:	f8c0 1198 	str.w	r1, [r0, #408]	; 0x198
  hi2c1.Init.DualAddressMode = I2C_DUALADDRESS_DISABLE;
 800737a:	f8c0 219c 	str.w	r2, [r0, #412]	; 0x19c
  hi2c1.Init.OwnAddress2 = 0;
 800737e:	f8c0 21a0 	str.w	r2, [r0, #416]	; 0x1a0
  hi2c1.Init.OwnAddress2Masks = I2C_OA2_NOMASK;
 8007382:	f8c0 21a4 	str.w	r2, [r0, #420]	; 0x1a4
  hi2c1.Init.GeneralCallMode = I2C_GENERALCALL_DISABLE;
 8007386:	f8c0 21a8 	str.w	r2, [r0, #424]	; 0x1a8
  hi2c1.Init.NoStretchMode = I2C_NOSTRETCH_DISABLE;
 800738a:	f8c0 21ac 	str.w	r2, [r0, #428]	; 0x1ac
  if (HAL_I2C_Init(&hi2c1) != HAL_OK)
 800738e:	f500 70c6 	add.w	r0, r0, #396	; 0x18c
 8007392:	f7fa f911 	bl	80015b8 <HAL_I2C_Init>
 8007396:	b950      	cbnz	r0, 80073ae <_ZN11BusAnalizer12MX_I2C1_InitEv+0x52>
  if (HAL_I2CEx_ConfigAnalogFilter(&hi2c1, I2C_ANALOGFILTER_ENABLE) != HAL_OK)
 8007398:	2100      	movs	r1, #0
 800739a:	480e      	ldr	r0, [pc, #56]	; (80073d4 <_ZN11BusAnalizer12MX_I2C1_InitEv+0x78>)
 800739c:	f7fa f96a 	bl	8001674 <HAL_I2CEx_ConfigAnalogFilter>
 80073a0:	b948      	cbnz	r0, 80073b6 <_ZN11BusAnalizer12MX_I2C1_InitEv+0x5a>
  if (HAL_I2CEx_ConfigDigitalFilter(&hi2c1, 0) != HAL_OK)
 80073a2:	2100      	movs	r1, #0
 80073a4:	480b      	ldr	r0, [pc, #44]	; (80073d4 <_ZN11BusAnalizer12MX_I2C1_InitEv+0x78>)
 80073a6:	f7fa f993 	bl	80016d0 <HAL_I2CEx_ConfigDigitalFilter>
 80073aa:	b940      	cbnz	r0, 80073be <_ZN11BusAnalizer12MX_I2C1_InitEv+0x62>
}
 80073ac:	bd10      	pop	{r4, pc}
    Error_Handler();
 80073ae:	4620      	mov	r0, r4
 80073b0:	f7ff fe08 	bl	8006fc4 <_ZN11BusAnalizer13Error_HandlerEv>
 80073b4:	e7f0      	b.n	8007398 <_ZN11BusAnalizer12MX_I2C1_InitEv+0x3c>
    Error_Handler();
 80073b6:	4620      	mov	r0, r4
 80073b8:	f7ff fe04 	bl	8006fc4 <_ZN11BusAnalizer13Error_HandlerEv>
 80073bc:	e7f1      	b.n	80073a2 <_ZN11BusAnalizer12MX_I2C1_InitEv+0x46>
    Error_Handler();
 80073be:	4620      	mov	r0, r4
 80073c0:	f7ff fe00 	bl	8006fc4 <_ZN11BusAnalizer13Error_HandlerEv>
}
 80073c4:	e7f2      	b.n	80073ac <_ZN11BusAnalizer12MX_I2C1_InitEv+0x50>
 80073c6:	bf00      	nop
 80073c8:	20000208 	.word	0x20000208
 80073cc:	40005400 	.word	0x40005400
 80073d0:	00303956 	.word	0x00303956
 80073d4:	20000394 	.word	0x20000394

080073d8 <_ZN11BusAnalizer11MX_RTC_InitEv>:
{
 80073d8:	b510      	push	{r4, lr}
 80073da:	b086      	sub	sp, #24
 80073dc:	4604      	mov	r4, r0
  RTC_TimeTypeDef sTime = {0};
 80073de:	2300      	movs	r3, #0
 80073e0:	9301      	str	r3, [sp, #4]
 80073e2:	9302      	str	r3, [sp, #8]
 80073e4:	9303      	str	r3, [sp, #12]
 80073e6:	9304      	str	r3, [sp, #16]
 80073e8:	9305      	str	r3, [sp, #20]
  RTC_DateTypeDef sDate = {0};
 80073ea:	9300      	str	r3, [sp, #0]
  hrtc.Instance = RTC;
 80073ec:	4822      	ldr	r0, [pc, #136]	; (8007478 <_ZN11BusAnalizer11MX_RTC_InitEv+0xa0>)
 80073ee:	4923      	ldr	r1, [pc, #140]	; (800747c <_ZN11BusAnalizer11MX_RTC_InitEv+0xa4>)
 80073f0:	f8c0 11d8 	str.w	r1, [r0, #472]	; 0x1d8
  hrtc.Init.HourFormat = RTC_HOURFORMAT_24;
 80073f4:	f8c0 31dc 	str.w	r3, [r0, #476]	; 0x1dc
  hrtc.Init.AsynchPrediv = 127;
 80073f8:	217f      	movs	r1, #127	; 0x7f
 80073fa:	f8c0 11e0 	str.w	r1, [r0, #480]	; 0x1e0
  hrtc.Init.SynchPrediv = 255;
 80073fe:	21ff      	movs	r1, #255	; 0xff
 8007400:	f8c0 11e4 	str.w	r1, [r0, #484]	; 0x1e4
  hrtc.Init.OutPut = RTC_OUTPUT_DISABLE;
 8007404:	f8c0 31e8 	str.w	r3, [r0, #488]	; 0x1e8
  hrtc.Init.OutPutPolarity = RTC_OUTPUT_POLARITY_HIGH;
 8007408:	f8c0 31f0 	str.w	r3, [r0, #496]	; 0x1f0
  hrtc.Init.OutPutType = RTC_OUTPUT_TYPE_OPENDRAIN;
 800740c:	f8c0 31f4 	str.w	r3, [r0, #500]	; 0x1f4
  hrtc.Init.OutPutRemap = RTC_OUTPUT_REMAP_NONE;
 8007410:	f8c0 31ec 	str.w	r3, [r0, #492]	; 0x1ec
  if (HAL_RTC_Init(&hrtc) != HAL_OK)
 8007414:	f500 70ec 	add.w	r0, r0, #472	; 0x1d8
 8007418:	f7fc fdd2 	bl	8003fc0 <HAL_RTC_Init>
 800741c:	b9f8      	cbnz	r0, 800745e <_ZN11BusAnalizer11MX_RTC_InitEv+0x86>
  sTime.Hours = 0x0;
 800741e:	2300      	movs	r3, #0
 8007420:	f88d 3004 	strb.w	r3, [sp, #4]
  sTime.Minutes = 0x0;
 8007424:	f88d 3005 	strb.w	r3, [sp, #5]
  sTime.Seconds = 0x0;
 8007428:	f88d 3006 	strb.w	r3, [sp, #6]
  sTime.DayLightSaving = RTC_DAYLIGHTSAVING_NONE;
 800742c:	9304      	str	r3, [sp, #16]
  sTime.StoreOperation = RTC_STOREOPERATION_RESET;
 800742e:	9305      	str	r3, [sp, #20]
  if (HAL_RTC_SetTime(&hrtc, &sTime, RTC_FORMAT_BCD) != HAL_OK)
 8007430:	2201      	movs	r2, #1
 8007432:	a901      	add	r1, sp, #4
 8007434:	4812      	ldr	r0, [pc, #72]	; (8007480 <_ZN11BusAnalizer11MX_RTC_InitEv+0xa8>)
 8007436:	f7fc fe1b 	bl	8004070 <HAL_RTC_SetTime>
 800743a:	b9a0      	cbnz	r0, 8007466 <_ZN11BusAnalizer11MX_RTC_InitEv+0x8e>
  sDate.WeekDay = RTC_WEEKDAY_MONDAY;
 800743c:	2201      	movs	r2, #1
 800743e:	f88d 2000 	strb.w	r2, [sp]
  sDate.Month = RTC_MONTH_JANUARY;
 8007442:	f88d 2001 	strb.w	r2, [sp, #1]
  sDate.Date = 0x1;
 8007446:	f88d 2002 	strb.w	r2, [sp, #2]
  sDate.Year = 0x0;
 800744a:	2300      	movs	r3, #0
 800744c:	f88d 3003 	strb.w	r3, [sp, #3]
  if (HAL_RTC_SetDate(&hrtc, &sDate, RTC_FORMAT_BCD) != HAL_OK)
 8007450:	4669      	mov	r1, sp
 8007452:	480b      	ldr	r0, [pc, #44]	; (8007480 <_ZN11BusAnalizer11MX_RTC_InitEv+0xa8>)
 8007454:	f7fc fe70 	bl	8004138 <HAL_RTC_SetDate>
 8007458:	b948      	cbnz	r0, 800746e <_ZN11BusAnalizer11MX_RTC_InitEv+0x96>
}
 800745a:	b006      	add	sp, #24
 800745c:	bd10      	pop	{r4, pc}
    Error_Handler();
 800745e:	4620      	mov	r0, r4
 8007460:	f7ff fdb0 	bl	8006fc4 <_ZN11BusAnalizer13Error_HandlerEv>
 8007464:	e7db      	b.n	800741e <_ZN11BusAnalizer11MX_RTC_InitEv+0x46>
    Error_Handler();
 8007466:	4620      	mov	r0, r4
 8007468:	f7ff fdac 	bl	8006fc4 <_ZN11BusAnalizer13Error_HandlerEv>
 800746c:	e7e6      	b.n	800743c <_ZN11BusAnalizer11MX_RTC_InitEv+0x64>
    Error_Handler();
 800746e:	4620      	mov	r0, r4
 8007470:	f7ff fda8 	bl	8006fc4 <_ZN11BusAnalizer13Error_HandlerEv>
}
 8007474:	e7f1      	b.n	800745a <_ZN11BusAnalizer11MX_RTC_InitEv+0x82>
 8007476:	bf00      	nop
 8007478:	20000208 	.word	0x20000208
 800747c:	58004000 	.word	0x58004000
 8007480:	200003e0 	.word	0x200003e0

08007484 <_ZN11BusAnalizer12MX_SPI1_InitEv>:
{
 8007484:	b510      	push	{r4, lr}
 8007486:	4604      	mov	r4, r0
  hspi1.Instance = SPI1;
 8007488:	481c      	ldr	r0, [pc, #112]	; (80074fc <_ZN11BusAnalizer12MX_SPI1_InitEv+0x78>)
 800748a:	4a1d      	ldr	r2, [pc, #116]	; (8007500 <_ZN11BusAnalizer12MX_SPI1_InitEv+0x7c>)
 800748c:	f8c0 21fc 	str.w	r2, [r0, #508]	; 0x1fc
  hspi1.Init.Mode = SPI_MODE_SLAVE;
 8007490:	2200      	movs	r2, #0
 8007492:	f8c0 2200 	str.w	r2, [r0, #512]	; 0x200
  hspi1.Init.Direction = SPI_DIRECTION_2LINES;
 8007496:	f8c0 2204 	str.w	r2, [r0, #516]	; 0x204
  hspi1.Init.DataSize = SPI_DATASIZE_4BIT;
 800749a:	2103      	movs	r1, #3
 800749c:	f8c0 1208 	str.w	r1, [r0, #520]	; 0x208
  hspi1.Init.CLKPolarity = SPI_POLARITY_LOW;
 80074a0:	f8c0 220c 	str.w	r2, [r0, #524]	; 0x20c
  hspi1.Init.CLKPhase = SPI_PHASE_1EDGE;
 80074a4:	f8c0 2210 	str.w	r2, [r0, #528]	; 0x210
  hspi1.Init.NSS = SPI_NSS_SOFT;
 80074a8:	f04f 6180 	mov.w	r1, #67108864	; 0x4000000
 80074ac:	f8c0 1214 	str.w	r1, [r0, #532]	; 0x214
  hspi1.Init.FirstBit = SPI_FIRSTBIT_MSB;
 80074b0:	f8c0 221c 	str.w	r2, [r0, #540]	; 0x21c
  hspi1.Init.TIMode = SPI_TIMODE_DISABLE;
 80074b4:	f8c0 2220 	str.w	r2, [r0, #544]	; 0x220
  hspi1.Init.CRCCalculation = SPI_CRCCALCULATION_DISABLE;
 80074b8:	f8c0 2224 	str.w	r2, [r0, #548]	; 0x224
  hspi1.Init.CRCPolynomial = 0x0;
 80074bc:	f8c0 2228 	str.w	r2, [r0, #552]	; 0x228
  hspi1.Init.NSSPMode = SPI_NSS_PULSE_DISABLE;
 80074c0:	f8c0 2230 	str.w	r2, [r0, #560]	; 0x230
  hspi1.Init.NSSPolarity = SPI_NSS_POLARITY_LOW;
 80074c4:	f8c0 2234 	str.w	r2, [r0, #564]	; 0x234
  hspi1.Init.FifoThreshold = SPI_FIFO_THRESHOLD_01DATA;
 80074c8:	f8c0 2238 	str.w	r2, [r0, #568]	; 0x238
  hspi1.Init.TxCRCInitializationPattern = SPI_CRC_INITIALIZATION_ALL_ZERO_PATTERN;
 80074cc:	f8c0 223c 	str.w	r2, [r0, #572]	; 0x23c
  hspi1.Init.RxCRCInitializationPattern = SPI_CRC_INITIALIZATION_ALL_ZERO_PATTERN;
 80074d0:	f8c0 2240 	str.w	r2, [r0, #576]	; 0x240
  hspi1.Init.MasterSSIdleness = SPI_MASTER_SS_IDLENESS_00CYCLE;
 80074d4:	f8c0 2244 	str.w	r2, [r0, #580]	; 0x244
  hspi1.Init.MasterInterDataIdleness = SPI_MASTER_INTERDATA_IDLENESS_00CYCLE;
 80074d8:	f8c0 2248 	str.w	r2, [r0, #584]	; 0x248
  hspi1.Init.MasterReceiverAutoSusp = SPI_MASTER_RX_AUTOSUSP_DISABLE;
 80074dc:	f8c0 224c 	str.w	r2, [r0, #588]	; 0x24c
  hspi1.Init.MasterKeepIOState = SPI_MASTER_KEEP_IO_STATE_DISABLE;
 80074e0:	f8c0 2250 	str.w	r2, [r0, #592]	; 0x250
  hspi1.Init.IOSwap = SPI_IO_SWAP_DISABLE;
 80074e4:	f8c0 2254 	str.w	r2, [r0, #596]	; 0x254
  if (HAL_SPI_Init(&hspi1) != HAL_OK)
 80074e8:	f500 70fe 	add.w	r0, r0, #508	; 0x1fc
 80074ec:	f7fc fe80 	bl	80041f0 <HAL_SPI_Init>
 80074f0:	b900      	cbnz	r0, 80074f4 <_ZN11BusAnalizer12MX_SPI1_InitEv+0x70>
}
 80074f2:	bd10      	pop	{r4, pc}
    Error_Handler();
 80074f4:	4620      	mov	r0, r4
 80074f6:	f7ff fd65 	bl	8006fc4 <_ZN11BusAnalizer13Error_HandlerEv>
}
 80074fa:	e7fa      	b.n	80074f2 <_ZN11BusAnalizer12MX_SPI1_InitEv+0x6e>
 80074fc:	20000208 	.word	0x20000208
 8007500:	40013000 	.word	0x40013000

08007504 <_ZN11BusAnalizer12MX_TIM2_InitEv>:
{
 8007504:	b510      	push	{r4, lr}
 8007506:	b08e      	sub	sp, #56	; 0x38
 8007508:	4604      	mov	r4, r0
  TIM_ClockConfigTypeDef sClockSourceConfig = {0};
 800750a:	2300      	movs	r3, #0
 800750c:	930a      	str	r3, [sp, #40]	; 0x28
 800750e:	930b      	str	r3, [sp, #44]	; 0x2c
 8007510:	930c      	str	r3, [sp, #48]	; 0x30
 8007512:	930d      	str	r3, [sp, #52]	; 0x34
  TIM_MasterConfigTypeDef sMasterConfig = {0};
 8007514:	9307      	str	r3, [sp, #28]
 8007516:	9308      	str	r3, [sp, #32]
 8007518:	9309      	str	r3, [sp, #36]	; 0x24
  TIM_OC_InitTypeDef sConfigOC = {0};
 800751a:	9300      	str	r3, [sp, #0]
 800751c:	9301      	str	r3, [sp, #4]
 800751e:	9302      	str	r3, [sp, #8]
 8007520:	9303      	str	r3, [sp, #12]
 8007522:	9304      	str	r3, [sp, #16]
 8007524:	9305      	str	r3, [sp, #20]
 8007526:	9306      	str	r3, [sp, #24]
  htim2.Instance = TIM2;
 8007528:	4824      	ldr	r0, [pc, #144]	; (80075bc <_ZN11BusAnalizer12MX_TIM2_InitEv+0xb8>)
 800752a:	f04f 4180 	mov.w	r1, #1073741824	; 0x40000000
 800752e:	f8c0 10a0 	str.w	r1, [r0, #160]	; 0xa0
  htim2.Init.Prescaler = 29;
 8007532:	211d      	movs	r1, #29
 8007534:	f8c0 10a4 	str.w	r1, [r0, #164]	; 0xa4
  htim2.Init.CounterMode = TIM_COUNTERMODE_UP;
 8007538:	f8c0 30a8 	str.w	r3, [r0, #168]	; 0xa8
  htim2.Init.Period = 0xFFFFFFFF;
 800753c:	f04f 31ff 	mov.w	r1, #4294967295
 8007540:	f8c0 10ac 	str.w	r1, [r0, #172]	; 0xac
  htim2.Init.ClockDivision = TIM_CLOCKDIVISION_DIV1;
 8007544:	f8c0 30b0 	str.w	r3, [r0, #176]	; 0xb0
  htim2.Init.AutoReloadPreload = TIM_AUTORELOAD_PRELOAD_DISABLE;
 8007548:	f8c0 30b8 	str.w	r3, [r0, #184]	; 0xb8
  if (HAL_TIM_Base_Init(&htim2) != HAL_OK)
 800754c:	30a0      	adds	r0, #160	; 0xa0
 800754e:	f7fd f9fb 	bl	8004948 <HAL_TIM_Base_Init>
 8007552:	b9f8      	cbnz	r0, 8007594 <_ZN11BusAnalizer12MX_TIM2_InitEv+0x90>
  sClockSourceConfig.ClockSource = TIM_CLOCKSOURCE_INTERNAL;
 8007554:	f44f 5380 	mov.w	r3, #4096	; 0x1000
 8007558:	930a      	str	r3, [sp, #40]	; 0x28
  if (HAL_TIM_ConfigClockSource(&htim2, &sClockSourceConfig) != HAL_OK)
 800755a:	a90a      	add	r1, sp, #40	; 0x28
 800755c:	4818      	ldr	r0, [pc, #96]	; (80075c0 <_ZN11BusAnalizer12MX_TIM2_InitEv+0xbc>)
 800755e:	f7fd fadf 	bl	8004b20 <HAL_TIM_ConfigClockSource>
 8007562:	b9d8      	cbnz	r0, 800759c <_ZN11BusAnalizer12MX_TIM2_InitEv+0x98>
  if (HAL_TIM_OC_Init(&htim2) != HAL_OK)
 8007564:	4816      	ldr	r0, [pc, #88]	; (80075c0 <_ZN11BusAnalizer12MX_TIM2_InitEv+0xbc>)
 8007566:	f7fd fa1f 	bl	80049a8 <HAL_TIM_OC_Init>
 800756a:	b9d8      	cbnz	r0, 80075a4 <_ZN11BusAnalizer12MX_TIM2_InitEv+0xa0>
  sMasterConfig.MasterOutputTrigger = TIM_TRGO_RESET;
 800756c:	2300      	movs	r3, #0
 800756e:	9307      	str	r3, [sp, #28]
  sMasterConfig.MasterSlaveMode = TIM_MASTERSLAVEMODE_DISABLE;
 8007570:	9309      	str	r3, [sp, #36]	; 0x24
  if (HAL_TIMEx_MasterConfigSynchronization(&htim2, &sMasterConfig) != HAL_OK)
 8007572:	a907      	add	r1, sp, #28
 8007574:	4812      	ldr	r0, [pc, #72]	; (80075c0 <_ZN11BusAnalizer12MX_TIM2_InitEv+0xbc>)
 8007576:	f7fd fb57 	bl	8004c28 <HAL_TIMEx_MasterConfigSynchronization>
 800757a:	b9b8      	cbnz	r0, 80075ac <_ZN11BusAnalizer12MX_TIM2_InitEv+0xa8>
  sConfigOC.OCMode = TIM_OCMODE_TIMING;
 800757c:	2200      	movs	r2, #0
 800757e:	9200      	str	r2, [sp, #0]
  sConfigOC.Pulse = 0;
 8007580:	9201      	str	r2, [sp, #4]
  sConfigOC.OCPolarity = TIM_OCPOLARITY_HIGH;
 8007582:	9202      	str	r2, [sp, #8]
  sConfigOC.OCFastMode = TIM_OCFAST_DISABLE;
 8007584:	9204      	str	r2, [sp, #16]
  if (HAL_TIM_OC_ConfigChannel(&htim2, &sConfigOC, TIM_CHANNEL_1) != HAL_OK)
 8007586:	4669      	mov	r1, sp
 8007588:	480d      	ldr	r0, [pc, #52]	; (80075c0 <_ZN11BusAnalizer12MX_TIM2_InitEv+0xbc>)
 800758a:	f7fd fa87 	bl	8004a9c <HAL_TIM_OC_ConfigChannel>
 800758e:	b988      	cbnz	r0, 80075b4 <_ZN11BusAnalizer12MX_TIM2_InitEv+0xb0>
}
 8007590:	b00e      	add	sp, #56	; 0x38
 8007592:	bd10      	pop	{r4, pc}
    Error_Handler();
 8007594:	4620      	mov	r0, r4
 8007596:	f7ff fd15 	bl	8006fc4 <_ZN11BusAnalizer13Error_HandlerEv>
 800759a:	e7db      	b.n	8007554 <_ZN11BusAnalizer12MX_TIM2_InitEv+0x50>
    Error_Handler();
 800759c:	4620      	mov	r0, r4
 800759e:	f7ff fd11 	bl	8006fc4 <_ZN11BusAnalizer13Error_HandlerEv>
 80075a2:	e7df      	b.n	8007564 <_ZN11BusAnalizer12MX_TIM2_InitEv+0x60>
    Error_Handler();
 80075a4:	4620      	mov	r0, r4
 80075a6:	f7ff fd0d 	bl	8006fc4 <_ZN11BusAnalizer13Error_HandlerEv>
 80075aa:	e7df      	b.n	800756c <_ZN11BusAnalizer12MX_TIM2_InitEv+0x68>
    Error_Handler();
 80075ac:	4620      	mov	r0, r4
 80075ae:	f7ff fd09 	bl	8006fc4 <_ZN11BusAnalizer13Error_HandlerEv>
 80075b2:	e7e3      	b.n	800757c <_ZN11BusAnalizer12MX_TIM2_InitEv+0x78>
    Error_Handler();
 80075b4:	4620      	mov	r0, r4
 80075b6:	f7ff fd05 	bl	8006fc4 <_ZN11BusAnalizer13Error_HandlerEv>
}
 80075ba:	e7e9      	b.n	8007590 <_ZN11BusAnalizer12MX_TIM2_InitEv+0x8c>
 80075bc:	20000208 	.word	0x20000208
 80075c0:	200002a8 	.word	0x200002a8

080075c4 <_ZN11BusAnalizer19MX_USART1_UART_InitEv>:
{
 80075c4:	b510      	push	{r4, lr}
 80075c6:	4604      	mov	r4, r0
  huart1.Instance = USART1;
 80075c8:	481f      	ldr	r0, [pc, #124]	; (8007648 <_ZN11BusAnalizer19MX_USART1_UART_InitEv+0x84>)
 80075ca:	4a20      	ldr	r2, [pc, #128]	; (800764c <_ZN11BusAnalizer19MX_USART1_UART_InitEv+0x88>)
 80075cc:	f8c0 2284 	str.w	r2, [r0, #644]	; 0x284
  huart1.Init.BaudRate = 115200;
 80075d0:	f44f 32e1 	mov.w	r2, #115200	; 0x1c200
 80075d4:	f8c0 2288 	str.w	r2, [r0, #648]	; 0x288
  huart1.Init.WordLength = UART_WORDLENGTH_8B;
 80075d8:	2100      	movs	r1, #0
 80075da:	f8c0 128c 	str.w	r1, [r0, #652]	; 0x28c
  huart1.Init.StopBits = UART_STOPBITS_1;
 80075de:	f8c0 1290 	str.w	r1, [r0, #656]	; 0x290
  huart1.Init.Parity = UART_PARITY_NONE;
 80075e2:	f8c0 1294 	str.w	r1, [r0, #660]	; 0x294
  huart1.Init.Mode = UART_MODE_TX_RX;
 80075e6:	220c      	movs	r2, #12
 80075e8:	f8c0 2298 	str.w	r2, [r0, #664]	; 0x298
  huart1.Init.HwFlowCtl = UART_HWCONTROL_NONE;
 80075ec:	f8c0 129c 	str.w	r1, [r0, #668]	; 0x29c
  huart1.Init.OverSampling = UART_OVERSAMPLING_16;
 80075f0:	f8c0 12a0 	str.w	r1, [r0, #672]	; 0x2a0
  huart1.Init.OneBitSampling = UART_ONE_BIT_SAMPLE_DISABLE;
 80075f4:	f8c0 12a4 	str.w	r1, [r0, #676]	; 0x2a4
  huart1.Init.ClockPrescaler = UART_PRESCALER_DIV1;
 80075f8:	f8c0 12a8 	str.w	r1, [r0, #680]	; 0x2a8
  huart1.AdvancedInit.AdvFeatureInit = UART_ADVFEATURE_NO_INIT;
 80075fc:	f8c0 12ac 	str.w	r1, [r0, #684]	; 0x2ac
  if (HAL_LIN_Init(&huart1, UART_LINBREAKDETECTLENGTH_10B) != HAL_OK)
 8007600:	f500 7021 	add.w	r0, r0, #644	; 0x284
 8007604:	f7fd ff54 	bl	80054b0 <HAL_LIN_Init>
 8007608:	b970      	cbnz	r0, 8007628 <_ZN11BusAnalizer19MX_USART1_UART_InitEv+0x64>
  if (HAL_UARTEx_SetTxFifoThreshold(&huart1, UART_TXFIFO_THRESHOLD_1_8) != HAL_OK)
 800760a:	2100      	movs	r1, #0
 800760c:	4810      	ldr	r0, [pc, #64]	; (8007650 <_ZN11BusAnalizer19MX_USART1_UART_InitEv+0x8c>)
 800760e:	f7fd fff2 	bl	80055f6 <HAL_UARTEx_SetTxFifoThreshold>
 8007612:	b968      	cbnz	r0, 8007630 <_ZN11BusAnalizer19MX_USART1_UART_InitEv+0x6c>
  if (HAL_UARTEx_SetRxFifoThreshold(&huart1, UART_RXFIFO_THRESHOLD_1_8) != HAL_OK)
 8007614:	2100      	movs	r1, #0
 8007616:	480e      	ldr	r0, [pc, #56]	; (8007650 <_ZN11BusAnalizer19MX_USART1_UART_InitEv+0x8c>)
 8007618:	f7fe f812 	bl	8005640 <HAL_UARTEx_SetRxFifoThreshold>
 800761c:	b960      	cbnz	r0, 8007638 <_ZN11BusAnalizer19MX_USART1_UART_InitEv+0x74>
  if (HAL_UARTEx_DisableFifoMode(&huart1) != HAL_OK)
 800761e:	480c      	ldr	r0, [pc, #48]	; (8007650 <_ZN11BusAnalizer19MX_USART1_UART_InitEv+0x8c>)
 8007620:	f7fd ffca 	bl	80055b8 <HAL_UARTEx_DisableFifoMode>
 8007624:	b960      	cbnz	r0, 8007640 <_ZN11BusAnalizer19MX_USART1_UART_InitEv+0x7c>
}
 8007626:	bd10      	pop	{r4, pc}
    Error_Handler();
 8007628:	4620      	mov	r0, r4
 800762a:	f7ff fccb 	bl	8006fc4 <_ZN11BusAnalizer13Error_HandlerEv>
 800762e:	e7ec      	b.n	800760a <_ZN11BusAnalizer19MX_USART1_UART_InitEv+0x46>
    Error_Handler();
 8007630:	4620      	mov	r0, r4
 8007632:	f7ff fcc7 	bl	8006fc4 <_ZN11BusAnalizer13Error_HandlerEv>
 8007636:	e7ed      	b.n	8007614 <_ZN11BusAnalizer19MX_USART1_UART_InitEv+0x50>
    Error_Handler();
 8007638:	4620      	mov	r0, r4
 800763a:	f7ff fcc3 	bl	8006fc4 <_ZN11BusAnalizer13Error_HandlerEv>
 800763e:	e7ee      	b.n	800761e <_ZN11BusAnalizer19MX_USART1_UART_InitEv+0x5a>
    Error_Handler();
 8007640:	4620      	mov	r0, r4
 8007642:	f7ff fcbf 	bl	8006fc4 <_ZN11BusAnalizer13Error_HandlerEv>
}
 8007646:	e7ee      	b.n	8007626 <_ZN11BusAnalizer19MX_USART1_UART_InitEv+0x62>
 8007648:	20000208 	.word	0x20000208
 800764c:	40011000 	.word	0x40011000
 8007650:	2000048c 	.word	0x2000048c

08007654 <_ZN11BusAnalizerC1Ev>:
BusAnalizer::BusAnalizer(void)
 8007654:	b538      	push	{r3, r4, r5, lr}
 8007656:	4604      	mov	r4, r0
 8007658:	2300      	movs	r3, #0
 800765a:	f8a0 30c0 	strh.w	r3, [r0, #192]	; 0xc0
 800765e:	f8c0 30c4 	str.w	r3, [r0, #196]	; 0xc4
 8007662:	f880 30c8 	strb.w	r3, [r0, #200]	; 0xc8
 8007666:	f880 30c9 	strb.w	r3, [r0, #201]	; 0xc9
 800766a:	f8c0 30cc 	str.w	r3, [r0, #204]	; 0xcc
 800766e:	f8c0 30d0 	str.w	r3, [r0, #208]	; 0xd0
 8007672:	f880 30d4 	strb.w	r3, [r0, #212]	; 0xd4
 8007676:	f8c0 30d8 	str.w	r3, [r0, #216]	; 0xd8
 800767a:	f8c0 30dc 	str.w	r3, [r0, #220]	; 0xdc
  \details Acts as a special kind of Data Memory Barrier.
           It completes when all explicit memory accesses before this instruction complete.
 */
__STATIC_FORCEINLINE void __DSB(void)
{
  __ASM volatile ("dsb 0xF":::"memory");
 800767e:	f3bf 8f4f 	dsb	sy
  __ASM volatile ("isb 0xF":::"memory");
 8007682:	f3bf 8f6f 	isb	sy
__STATIC_INLINE void SCB_EnableICache (void)
{
  #if defined (__ICACHE_PRESENT) && (__ICACHE_PRESENT == 1U)
    __DSB();
    __ISB();
    SCB->ICIALLU = 0UL;                     /* invalidate I-Cache */
 8007686:	4a34      	ldr	r2, [pc, #208]	; (8007758 <_ZN11BusAnalizerC1Ev+0x104>)
 8007688:	f8c2 3250 	str.w	r3, [r2, #592]	; 0x250
  __ASM volatile ("dsb 0xF":::"memory");
 800768c:	f3bf 8f4f 	dsb	sy
  __ASM volatile ("isb 0xF":::"memory");
 8007690:	f3bf 8f6f 	isb	sy
    __DSB();
    __ISB();
    SCB->CCR |=  (uint32_t)SCB_CCR_IC_Msk;  /* enable I-Cache */
 8007694:	6951      	ldr	r1, [r2, #20]
 8007696:	f441 3100 	orr.w	r1, r1, #131072	; 0x20000
 800769a:	6151      	str	r1, [r2, #20]
  __ASM volatile ("dsb 0xF":::"memory");
 800769c:	f3bf 8f4f 	dsb	sy
  __ASM volatile ("isb 0xF":::"memory");
 80076a0:	f3bf 8f6f 	isb	sy
  #if defined (__DCACHE_PRESENT) && (__DCACHE_PRESENT == 1U)
    uint32_t ccsidr;
    uint32_t sets;
    uint32_t ways;

    SCB->CSSELR = 0U; /*(0U << 1U) | 0U;*/  /* Level 1 data cache */
 80076a4:	f8c2 3084 	str.w	r3, [r2, #132]	; 0x84
  __ASM volatile ("dsb 0xF":::"memory");
 80076a8:	f3bf 8f4f 	dsb	sy
    __DSB();

    ccsidr = SCB->CCSIDR;
 80076ac:	f8d2 0080 	ldr.w	r0, [r2, #128]	; 0x80

                                            /* invalidate D-Cache */
    sets = (uint32_t)(CCSIDR_SETS(ccsidr));
 80076b0:	f3c0 324e 	ubfx	r2, r0, #13, #15
 80076b4:	e000      	b.n	80076b8 <_ZN11BusAnalizerC1Ev+0x64>
                      ((ways << SCB_DCISW_WAY_Pos) & SCB_DCISW_WAY_Msk)  );
        #if defined ( __CC_ARM )
          __schedule_barrier();
        #endif
      } while (ways-- != 0U);
    } while(sets-- != 0U);
 80076b6:	461a      	mov	r2, r3
      ways = (uint32_t)(CCSIDR_WAYS(ccsidr));
 80076b8:	f3c0 01c9 	ubfx	r1, r0, #3, #10
        SCB->DCISW = (((sets << SCB_DCISW_SET_Pos) & SCB_DCISW_SET_Msk) |
 80076bc:	f643 73e0 	movw	r3, #16352	; 0x3fe0
 80076c0:	ea03 1342 	and.w	r3, r3, r2, lsl #5
 80076c4:	ea43 7381 	orr.w	r3, r3, r1, lsl #30
 80076c8:	4d23      	ldr	r5, [pc, #140]	; (8007758 <_ZN11BusAnalizerC1Ev+0x104>)
 80076ca:	f8c5 3260 	str.w	r3, [r5, #608]	; 0x260
      } while (ways-- != 0U);
 80076ce:	460b      	mov	r3, r1
 80076d0:	3901      	subs	r1, #1
 80076d2:	2b00      	cmp	r3, #0
 80076d4:	d1f2      	bne.n	80076bc <_ZN11BusAnalizerC1Ev+0x68>
    } while(sets-- != 0U);
 80076d6:	1e53      	subs	r3, r2, #1
 80076d8:	2a00      	cmp	r2, #0
 80076da:	d1ec      	bne.n	80076b6 <_ZN11BusAnalizerC1Ev+0x62>
 80076dc:	f3bf 8f4f 	dsb	sy
    __DSB();

    SCB->CCR |=  (uint32_t)SCB_CCR_DC_Msk;  /* enable D-Cache */
 80076e0:	696b      	ldr	r3, [r5, #20]
 80076e2:	f443 3380 	orr.w	r3, r3, #65536	; 0x10000
 80076e6:	616b      	str	r3, [r5, #20]
 80076e8:	f3bf 8f4f 	dsb	sy
  __ASM volatile ("isb 0xF":::"memory");
 80076ec:	f3bf 8f6f 	isb	sy
	HAL_Init();
 80076f0:	f7f8 ffc2 	bl	8000678 <HAL_Init>
	SystemClock_Config();
 80076f4:	4620      	mov	r0, r4
 80076f6:	f7ff fcf5 	bl	80070e4 <_ZN11BusAnalizer18SystemClock_ConfigEv>
	MX_GPIO_Init();
 80076fa:	4620      	mov	r0, r4
 80076fc:	f7ff fc02 	bl	8006f04 <_ZN11BusAnalizer12MX_GPIO_InitEv>
	MX_FDCAN1_Init();
 8007700:	4620      	mov	r0, r4
 8007702:	f7ff fd77 	bl	80071f4 <_ZN11BusAnalizer14MX_FDCAN1_InitEv>
	MX_FDCAN2_Init();
 8007706:	4620      	mov	r0, r4
 8007708:	f7ff fdd8 	bl	80072bc <_ZN11BusAnalizer14MX_FDCAN2_InitEv>
	MX_I2C1_Init();
 800770c:	4620      	mov	r0, r4
 800770e:	f7ff fe25 	bl	800735c <_ZN11BusAnalizer12MX_I2C1_InitEv>
	MX_RTC_Init();
 8007712:	4620      	mov	r0, r4
 8007714:	f7ff fe60 	bl	80073d8 <_ZN11BusAnalizer11MX_RTC_InitEv>
	MX_SPI1_Init();
 8007718:	4620      	mov	r0, r4
 800771a:	f7ff feb3 	bl	8007484 <_ZN11BusAnalizer12MX_SPI1_InitEv>
	MX_USART1_UART_Init();
 800771e:	4620      	mov	r0, r4
 8007720:	f7ff ff50 	bl	80075c4 <_ZN11BusAnalizer19MX_USART1_UART_InitEv>
	MX_TIM2_Init();
 8007724:	4620      	mov	r0, r4
 8007726:	f7ff feed 	bl	8007504 <_ZN11BusAnalizer12MX_TIM2_InitEv>
	MX_USB_DEVICE_Init();
 800772a:	f000 fb07 	bl	8007d3c <MX_USB_DEVICE_Init>
	GPIOA->ODR &= 0xffe7;
 800772e:	4a0b      	ldr	r2, [pc, #44]	; (800775c <_ZN11BusAnalizerC1Ev+0x108>)
 8007730:	6953      	ldr	r3, [r2, #20]
 8007732:	f023 0318 	bic.w	r3, r3, #24
 8007736:	041b      	lsls	r3, r3, #16
 8007738:	0c1b      	lsrs	r3, r3, #16
 800773a:	6153      	str	r3, [r2, #20]
	GPIOB->ODR ^=0x0003;
 800773c:	f502 6280 	add.w	r2, r2, #1024	; 0x400
 8007740:	6953      	ldr	r3, [r2, #20]
 8007742:	f083 0303 	eor.w	r3, r3, #3
 8007746:	6153      	str	r3, [r2, #20]
	ui32CounterTransmisionErrorCAN1 =0;
 8007748:	2300      	movs	r3, #0
 800774a:	f8c4 30c4 	str.w	r3, [r4, #196]	; 0xc4
	HAL_TIM_Base_Start(&htim2);
 800774e:	4804      	ldr	r0, [pc, #16]	; (8007760 <_ZN11BusAnalizerC1Ev+0x10c>)
 8007750:	f7fc ff68 	bl	8004624 <HAL_TIM_Base_Start>
}
 8007754:	4620      	mov	r0, r4
 8007756:	bd38      	pop	{r3, r4, r5, pc}
 8007758:	e000ed00 	.word	0xe000ed00
 800775c:	58020000 	.word	0x58020000
 8007760:	200002a8 	.word	0x200002a8

08007764 <_Z41__static_initialization_and_destruction_0ii>:
  /* Infinite loop */
  while (1)
  {
	sBussAnalizer.Run();
  }
}
 8007764:	2801      	cmp	r0, #1
 8007766:	d000      	beq.n	800776a <_Z41__static_initialization_and_destruction_0ii+0x6>
 8007768:	4770      	bx	lr
 800776a:	b508      	push	{r3, lr}
 800776c:	f64f 73ff 	movw	r3, #65535	; 0xffff
 8007770:	4299      	cmp	r1, r3
 8007772:	d000      	beq.n	8007776 <_Z41__static_initialization_and_destruction_0ii+0x12>
 8007774:	bd08      	pop	{r3, pc}
BusAnalizer sBussAnalizer;
 8007776:	4802      	ldr	r0, [pc, #8]	; (8007780 <_Z41__static_initialization_and_destruction_0ii+0x1c>)
 8007778:	f7ff ff6c 	bl	8007654 <_ZN11BusAnalizerC1Ev>
 800777c:	e7fa      	b.n	8007774 <_Z41__static_initialization_and_destruction_0ii+0x10>
 800777e:	bf00      	nop
 8007780:	20000518 	.word	0x20000518

08007784 <HAL_FDCAN_RxFifo0Callback>:
  GPIOB->ODR ^=0x2;
 8007784:	4a14      	ldr	r2, [pc, #80]	; (80077d8 <HAL_FDCAN_RxFifo0Callback+0x54>)
 8007786:	6953      	ldr	r3, [r2, #20]
 8007788:	f083 0302 	eor.w	r3, r3, #2
 800778c:	6153      	str	r3, [r2, #20]
  if((RxFifo0ITs & FDCAN_IT_RX_FIFO0_NEW_MESSAGE) != RESET)
 800778e:	f011 0f01 	tst.w	r1, #1
 8007792:	d100      	bne.n	8007796 <HAL_FDCAN_RxFifo0Callback+0x12>
 8007794:	4770      	bx	lr
{
 8007796:	b510      	push	{r4, lr}
 8007798:	4604      	mov	r4, r0
    if (HAL_FDCAN_GetRxMessage(hfdcan, FDCAN_RX_FIFO0, sBussAnalizer.GetRxHeadearPointer(), sBussAnalizer.GetRxDataPointer()) != HAL_OK)
 800779a:	4a10      	ldr	r2, [pc, #64]	; (80077dc <HAL_FDCAN_RxFifo0Callback+0x58>)
 800779c:	f502 734e 	add.w	r3, r2, #824	; 0x338
 80077a0:	f502 7244 	add.w	r2, r2, #784	; 0x310
 80077a4:	2140      	movs	r1, #64	; 0x40
 80077a6:	f7f9 fb3d 	bl	8000e24 <HAL_FDCAN_GetRxMessage>
 80077aa:	b970      	cbnz	r0, 80077ca <HAL_FDCAN_RxFifo0Callback+0x46>
    sBussAnalizer.SetTimerValueRxFifo0(__HAL_TIM_GET_COUNTER(&htim2));
 80077ac:	4b0b      	ldr	r3, [pc, #44]	; (80077dc <HAL_FDCAN_RxFifo0Callback+0x58>)
 80077ae:	f8d3 20a0 	ldr.w	r2, [r3, #160]	; 0xa0
 80077b2:	6a52      	ldr	r2, [r2, #36]	; 0x24
  void MX_USART1_UART_Init(void);
  void MX_GPIO_Init(void);
  void Error_Handler(void);
  FDCAN_RxHeaderTypeDef *GetRxHeadearPointer(void){ return &(this->RxHeader);};
  uint8_t *GetRxDataPointer(void){return this->RxData;};
  void SetTimerValueRxFifo0(uint32_t lui32TimerValue){ui32TimerValue=lui32TimerValue;};
 80077b4:	f8c3 23dc 	str.w	r2, [r3, #988]	; 0x3dc
  void SetRequesttoUsbCAN1(bool ub){ui8SetRequestToUsbCAN1 =ub;}
 80077b8:	2101      	movs	r1, #1
 80077ba:	f883 13e4 	strb.w	r1, [r3, #996]	; 0x3e4
    if (HAL_FDCAN_ActivateNotification(hfdcan, FDCAN_IT_RX_FIFO0_NEW_MESSAGE, 0) != HAL_OK)
 80077be:	2200      	movs	r2, #0
 80077c0:	4620      	mov	r0, r4
 80077c2:	f7f9 fc13 	bl	8000fec <HAL_FDCAN_ActivateNotification>
 80077c6:	b918      	cbnz	r0, 80077d0 <HAL_FDCAN_RxFifo0Callback+0x4c>
}
 80077c8:	bd10      	pop	{r4, pc}
    Error_Handler();
 80077ca:	f000 fab5 	bl	8007d38 <Error_Handler>
 80077ce:	e7ed      	b.n	80077ac <HAL_FDCAN_RxFifo0Callback+0x28>
      Error_Handler();
 80077d0:	f000 fab2 	bl	8007d38 <Error_Handler>
}
 80077d4:	e7f8      	b.n	80077c8 <HAL_FDCAN_RxFifo0Callback+0x44>
 80077d6:	bf00      	nop
 80077d8:	58020400 	.word	0x58020400
 80077dc:	20000208 	.word	0x20000208

080077e0 <HAL_TIM_PeriodElapsedCallback>:
{
 80077e0:	b510      	push	{r4, lr}
 80077e2:	4604      	mov	r4, r0
  if (htim->Instance == TIM1) {
 80077e4:	6802      	ldr	r2, [r0, #0]
 80077e6:	4b10      	ldr	r3, [pc, #64]	; (8007828 <HAL_TIM_PeriodElapsedCallback+0x48>)
 80077e8:	429a      	cmp	r2, r3
 80077ea:	d004      	beq.n	80077f6 <HAL_TIM_PeriodElapsedCallback+0x16>
  if (htim->Instance == TIM1) {
 80077ec:	6822      	ldr	r2, [r4, #0]
 80077ee:	4b0e      	ldr	r3, [pc, #56]	; (8007828 <HAL_TIM_PeriodElapsedCallback+0x48>)
 80077f0:	429a      	cmp	r2, r3
 80077f2:	d003      	beq.n	80077fc <HAL_TIM_PeriodElapsedCallback+0x1c>
}
 80077f4:	bd10      	pop	{r4, pc}
    HAL_IncTick();
 80077f6:	f7f8 ff6d 	bl	80006d4 <HAL_IncTick>
 80077fa:	e7f7      	b.n	80077ec <HAL_TIM_PeriodElapsedCallback+0xc>
  void IncrementMessageTrigger(void){ui16MessageTrigger++;};
 80077fc:	4a0b      	ldr	r2, [pc, #44]	; (800782c <HAL_TIM_PeriodElapsedCallback+0x4c>)
 80077fe:	f8b2 33d0 	ldrh.w	r3, [r2, #976]	; 0x3d0
 8007802:	3301      	adds	r3, #1
 8007804:	b29b      	uxth	r3, r3
 8007806:	f8a2 33d0 	strh.w	r3, [r2, #976]	; 0x3d0
	    if ((sBussAnalizer.Getui16MessageTrigger()%5) == 0)
 800780a:	4a09      	ldr	r2, [pc, #36]	; (8007830 <HAL_TIM_PeriodElapsedCallback+0x50>)
 800780c:	fba2 1203 	umull	r1, r2, r2, r3
 8007810:	0892      	lsrs	r2, r2, #2
 8007812:	eb02 0282 	add.w	r2, r2, r2, lsl #2
 8007816:	1a9b      	subs	r3, r3, r2
 8007818:	b29b      	uxth	r3, r3
 800781a:	2b00      	cmp	r3, #0
 800781c:	d1ea      	bne.n	80077f4 <HAL_TIM_PeriodElapsedCallback+0x14>
  uint16_t Getui16MessageTrigger(void){return ui16MessageTrigger;};
  void SetMessageTriggerFlag(bool lbMessageflag){ui16MessageTriggerFlag = lbMessageflag;};
 800781e:	4b03      	ldr	r3, [pc, #12]	; (800782c <HAL_TIM_PeriodElapsedCallback+0x4c>)
 8007820:	2201      	movs	r2, #1
 8007822:	f883 23d9 	strb.w	r2, [r3, #985]	; 0x3d9
}
 8007826:	e7e5      	b.n	80077f4 <HAL_TIM_PeriodElapsedCallback+0x14>
 8007828:	40010000 	.word	0x40010000
 800782c:	20000208 	.word	0x20000208
 8007830:	cccccccd 	.word	0xcccccccd

08007834 <main>:
{
 8007834:	b508      	push	{r3, lr}
	sBussAnalizer.Run();
 8007836:	4802      	ldr	r0, [pc, #8]	; (8007840 <main+0xc>)
 8007838:	f7ff fbd0 	bl	8006fdc <_ZN11BusAnalizer3RunEv>
  while (1)
 800783c:	e7fb      	b.n	8007836 <main+0x2>
 800783e:	bf00      	nop
 8007840:	20000518 	.word	0x20000518

08007844 <_GLOBAL__sub_I_hfdcan1>:
}
 8007844:	b508      	push	{r3, lr}
 8007846:	f64f 71ff 	movw	r1, #65535	; 0xffff
 800784a:	2001      	movs	r0, #1
 800784c:	f7ff ff8a 	bl	8007764 <_Z41__static_initialization_and_destruction_0ii>
 8007850:	bd08      	pop	{r3, pc}

08007852 <_GLOBAL__sub_D_hfdcan1>:
 8007852:	b508      	push	{r3, lr}
 8007854:	f64f 71ff 	movw	r1, #65535	; 0xffff
 8007858:	2000      	movs	r0, #0
 800785a:	f7ff ff83 	bl	8007764 <_Z41__static_initialization_and_destruction_0ii>
 800785e:	bd08      	pop	{r3, pc}

08007860 <HAL_MspInit>:
/* USER CODE END 0 */
/**
  * Initializes the Global MSP.
  */
void HAL_MspInit(void)
{
 8007860:	b082      	sub	sp, #8
  /* USER CODE BEGIN MspInit 0 */

  /* USER CODE END MspInit 0 */

  __HAL_RCC_SYSCFG_CLK_ENABLE();
 8007862:	4b07      	ldr	r3, [pc, #28]	; (8007880 <HAL_MspInit+0x20>)
 8007864:	f8d3 20f4 	ldr.w	r2, [r3, #244]	; 0xf4
 8007868:	f042 0202 	orr.w	r2, r2, #2
 800786c:	f8c3 20f4 	str.w	r2, [r3, #244]	; 0xf4
 8007870:	f8d3 30f4 	ldr.w	r3, [r3, #244]	; 0xf4
 8007874:	f003 0302 	and.w	r3, r3, #2
 8007878:	9301      	str	r3, [sp, #4]
 800787a:	9b01      	ldr	r3, [sp, #4]
  /* System interrupt init*/

  /* USER CODE BEGIN MspInit 1 */

  /* USER CODE END MspInit 1 */
}
 800787c:	b002      	add	sp, #8
 800787e:	4770      	bx	lr
 8007880:	58024400 	.word	0x58024400

08007884 <HAL_FDCAN_MspInit>:
* This function configures the hardware resources used in this example
* @param hfdcan: FDCAN handle pointer
* @retval None
*/
void HAL_FDCAN_MspInit(FDCAN_HandleTypeDef* hfdcan)
{
 8007884:	b510      	push	{r4, lr}
 8007886:	b08a      	sub	sp, #40	; 0x28
  GPIO_InitTypeDef GPIO_InitStruct = {0};
 8007888:	2300      	movs	r3, #0
 800788a:	9305      	str	r3, [sp, #20]
 800788c:	9306      	str	r3, [sp, #24]
 800788e:	9307      	str	r3, [sp, #28]
 8007890:	9308      	str	r3, [sp, #32]
 8007892:	9309      	str	r3, [sp, #36]	; 0x24
  if(hfdcan->Instance==FDCAN1)
 8007894:	6803      	ldr	r3, [r0, #0]
 8007896:	4a3c      	ldr	r2, [pc, #240]	; (8007988 <HAL_FDCAN_MspInit+0x104>)
 8007898:	4293      	cmp	r3, r2
 800789a:	d004      	beq.n	80078a6 <HAL_FDCAN_MspInit+0x22>
    HAL_NVIC_EnableIRQ(FDCAN1_IT1_IRQn);
  /* USER CODE BEGIN FDCAN1_MspInit 1 */

  /* USER CODE END FDCAN1_MspInit 1 */
  }
  else if(hfdcan->Instance==FDCAN2)
 800789c:	4a3b      	ldr	r2, [pc, #236]	; (800798c <HAL_FDCAN_MspInit+0x108>)
 800789e:	4293      	cmp	r3, r2
 80078a0:	d041      	beq.n	8007926 <HAL_FDCAN_MspInit+0xa2>
  /* USER CODE BEGIN FDCAN2_MspInit 1 */

  /* USER CODE END FDCAN2_MspInit 1 */
  }

}
 80078a2:	b00a      	add	sp, #40	; 0x28
 80078a4:	bd10      	pop	{r4, pc}
    HAL_RCC_FDCAN_CLK_ENABLED++;
 80078a6:	4a3a      	ldr	r2, [pc, #232]	; (8007990 <HAL_FDCAN_MspInit+0x10c>)
 80078a8:	6813      	ldr	r3, [r2, #0]
 80078aa:	3301      	adds	r3, #1
 80078ac:	6013      	str	r3, [r2, #0]
    if(HAL_RCC_FDCAN_CLK_ENABLED==1){
 80078ae:	2b01      	cmp	r3, #1
 80078b0:	d02b      	beq.n	800790a <HAL_FDCAN_MspInit+0x86>
    __HAL_RCC_GPIOA_CLK_ENABLE();
 80078b2:	4b38      	ldr	r3, [pc, #224]	; (8007994 <HAL_FDCAN_MspInit+0x110>)
 80078b4:	f8d3 20e0 	ldr.w	r2, [r3, #224]	; 0xe0
 80078b8:	f042 0201 	orr.w	r2, r2, #1
 80078bc:	f8c3 20e0 	str.w	r2, [r3, #224]	; 0xe0
 80078c0:	f8d3 30e0 	ldr.w	r3, [r3, #224]	; 0xe0
 80078c4:	f003 0301 	and.w	r3, r3, #1
 80078c8:	9302      	str	r3, [sp, #8]
 80078ca:	9b02      	ldr	r3, [sp, #8]
    GPIO_InitStruct.Pin = GPIO_PIN_11|GPIO_PIN_12;
 80078cc:	f44f 53c0 	mov.w	r3, #6144	; 0x1800
 80078d0:	9305      	str	r3, [sp, #20]
    GPIO_InitStruct.Mode = GPIO_MODE_AF_PP;
 80078d2:	2302      	movs	r3, #2
 80078d4:	9306      	str	r3, [sp, #24]
    GPIO_InitStruct.Pull = GPIO_NOPULL;
 80078d6:	2400      	movs	r4, #0
 80078d8:	9407      	str	r4, [sp, #28]
    GPIO_InitStruct.Speed = GPIO_SPEED_FREQ_LOW;
 80078da:	9408      	str	r4, [sp, #32]
    GPIO_InitStruct.Alternate = GPIO_AF9_FDCAN1;
 80078dc:	2309      	movs	r3, #9
 80078de:	9309      	str	r3, [sp, #36]	; 0x24
    HAL_GPIO_Init(GPIOA, &GPIO_InitStruct);
 80078e0:	a905      	add	r1, sp, #20
 80078e2:	482d      	ldr	r0, [pc, #180]	; (8007998 <HAL_FDCAN_MspInit+0x114>)
 80078e4:	f7f9 fd70 	bl	80013c8 <HAL_GPIO_Init>
    HAL_NVIC_SetPriority(FDCAN1_IT0_IRQn, 0, 0);
 80078e8:	4622      	mov	r2, r4
 80078ea:	4621      	mov	r1, r4
 80078ec:	2013      	movs	r0, #19
 80078ee:	f7f8 ff2f 	bl	8000750 <HAL_NVIC_SetPriority>
    HAL_NVIC_EnableIRQ(FDCAN1_IT0_IRQn);
 80078f2:	2013      	movs	r0, #19
 80078f4:	f7f8 ff5e 	bl	80007b4 <HAL_NVIC_EnableIRQ>
    HAL_NVIC_SetPriority(FDCAN1_IT1_IRQn, 0, 0);
 80078f8:	4622      	mov	r2, r4
 80078fa:	4621      	mov	r1, r4
 80078fc:	2015      	movs	r0, #21
 80078fe:	f7f8 ff27 	bl	8000750 <HAL_NVIC_SetPriority>
    HAL_NVIC_EnableIRQ(FDCAN1_IT1_IRQn);
 8007902:	2015      	movs	r0, #21
 8007904:	f7f8 ff56 	bl	80007b4 <HAL_NVIC_EnableIRQ>
 8007908:	e7cb      	b.n	80078a2 <HAL_FDCAN_MspInit+0x1e>
      __HAL_RCC_FDCAN_CLK_ENABLE();
 800790a:	4b22      	ldr	r3, [pc, #136]	; (8007994 <HAL_FDCAN_MspInit+0x110>)
 800790c:	f8d3 20ec 	ldr.w	r2, [r3, #236]	; 0xec
 8007910:	f442 7280 	orr.w	r2, r2, #256	; 0x100
 8007914:	f8c3 20ec 	str.w	r2, [r3, #236]	; 0xec
 8007918:	f8d3 30ec 	ldr.w	r3, [r3, #236]	; 0xec
 800791c:	f403 7380 	and.w	r3, r3, #256	; 0x100
 8007920:	9301      	str	r3, [sp, #4]
 8007922:	9b01      	ldr	r3, [sp, #4]
 8007924:	e7c5      	b.n	80078b2 <HAL_FDCAN_MspInit+0x2e>
    HAL_RCC_FDCAN_CLK_ENABLED++;
 8007926:	4a1a      	ldr	r2, [pc, #104]	; (8007990 <HAL_FDCAN_MspInit+0x10c>)
 8007928:	6813      	ldr	r3, [r2, #0]
 800792a:	3301      	adds	r3, #1
 800792c:	6013      	str	r3, [r2, #0]
    if(HAL_RCC_FDCAN_CLK_ENABLED==1){
 800792e:	2b01      	cmp	r3, #1
 8007930:	d01b      	beq.n	800796a <HAL_FDCAN_MspInit+0xe6>
    __HAL_RCC_GPIOB_CLK_ENABLE();
 8007932:	4b18      	ldr	r3, [pc, #96]	; (8007994 <HAL_FDCAN_MspInit+0x110>)
 8007934:	f8d3 20e0 	ldr.w	r2, [r3, #224]	; 0xe0
 8007938:	f042 0202 	orr.w	r2, r2, #2
 800793c:	f8c3 20e0 	str.w	r2, [r3, #224]	; 0xe0
 8007940:	f8d3 30e0 	ldr.w	r3, [r3, #224]	; 0xe0
 8007944:	f003 0302 	and.w	r3, r3, #2
 8007948:	9304      	str	r3, [sp, #16]
 800794a:	9b04      	ldr	r3, [sp, #16]
    GPIO_InitStruct.Pin = GPIO_PIN_12|GPIO_PIN_13;
 800794c:	f44f 5340 	mov.w	r3, #12288	; 0x3000
 8007950:	9305      	str	r3, [sp, #20]
    GPIO_InitStruct.Mode = GPIO_MODE_AF_PP;
 8007952:	2302      	movs	r3, #2
 8007954:	9306      	str	r3, [sp, #24]
    GPIO_InitStruct.Pull = GPIO_NOPULL;
 8007956:	2300      	movs	r3, #0
 8007958:	9307      	str	r3, [sp, #28]
    GPIO_InitStruct.Speed = GPIO_SPEED_FREQ_LOW;
 800795a:	9308      	str	r3, [sp, #32]
    GPIO_InitStruct.Alternate = GPIO_AF9_FDCAN2;
 800795c:	2309      	movs	r3, #9
 800795e:	9309      	str	r3, [sp, #36]	; 0x24
    HAL_GPIO_Init(GPIOB, &GPIO_InitStruct);
 8007960:	a905      	add	r1, sp, #20
 8007962:	480e      	ldr	r0, [pc, #56]	; (800799c <HAL_FDCAN_MspInit+0x118>)
 8007964:	f7f9 fd30 	bl	80013c8 <HAL_GPIO_Init>
}
 8007968:	e79b      	b.n	80078a2 <HAL_FDCAN_MspInit+0x1e>
      __HAL_RCC_FDCAN_CLK_ENABLE();
 800796a:	4b0a      	ldr	r3, [pc, #40]	; (8007994 <HAL_FDCAN_MspInit+0x110>)
 800796c:	f8d3 20ec 	ldr.w	r2, [r3, #236]	; 0xec
 8007970:	f442 7280 	orr.w	r2, r2, #256	; 0x100
 8007974:	f8c3 20ec 	str.w	r2, [r3, #236]	; 0xec
 8007978:	f8d3 30ec 	ldr.w	r3, [r3, #236]	; 0xec
 800797c:	f403 7380 	and.w	r3, r3, #256	; 0x100
 8007980:	9303      	str	r3, [sp, #12]
 8007982:	9b03      	ldr	r3, [sp, #12]
 8007984:	e7d5      	b.n	8007932 <HAL_FDCAN_MspInit+0xae>
 8007986:	bf00      	nop
 8007988:	4000a000 	.word	0x4000a000
 800798c:	4000a400 	.word	0x4000a400
 8007990:	200005f8 	.word	0x200005f8
 8007994:	58024400 	.word	0x58024400
 8007998:	58020000 	.word	0x58020000
 800799c:	58020400 	.word	0x58020400

080079a0 <HAL_I2C_MspInit>:
* This function configures the hardware resources used in this example
* @param hi2c: I2C handle pointer
* @retval None
*/
void HAL_I2C_MspInit(I2C_HandleTypeDef* hi2c)
{
 80079a0:	b510      	push	{r4, lr}
 80079a2:	b088      	sub	sp, #32
  GPIO_InitTypeDef GPIO_InitStruct = {0};
 80079a4:	2300      	movs	r3, #0
 80079a6:	9303      	str	r3, [sp, #12]
 80079a8:	9304      	str	r3, [sp, #16]
 80079aa:	9305      	str	r3, [sp, #20]
 80079ac:	9306      	str	r3, [sp, #24]
 80079ae:	9307      	str	r3, [sp, #28]
  if(hi2c->Instance==I2C1)
 80079b0:	6802      	ldr	r2, [r0, #0]
 80079b2:	4b16      	ldr	r3, [pc, #88]	; (8007a0c <HAL_I2C_MspInit+0x6c>)
 80079b4:	429a      	cmp	r2, r3
 80079b6:	d001      	beq.n	80079bc <HAL_I2C_MspInit+0x1c>
  /* USER CODE BEGIN I2C1_MspInit 1 */

  /* USER CODE END I2C1_MspInit 1 */
  }

}
 80079b8:	b008      	add	sp, #32
 80079ba:	bd10      	pop	{r4, pc}
    __HAL_RCC_GPIOB_CLK_ENABLE();
 80079bc:	4c14      	ldr	r4, [pc, #80]	; (8007a10 <HAL_I2C_MspInit+0x70>)
 80079be:	f8d4 30e0 	ldr.w	r3, [r4, #224]	; 0xe0
 80079c2:	f043 0302 	orr.w	r3, r3, #2
 80079c6:	f8c4 30e0 	str.w	r3, [r4, #224]	; 0xe0
 80079ca:	f8d4 30e0 	ldr.w	r3, [r4, #224]	; 0xe0
 80079ce:	f003 0302 	and.w	r3, r3, #2
 80079d2:	9301      	str	r3, [sp, #4]
 80079d4:	9b01      	ldr	r3, [sp, #4]
    GPIO_InitStruct.Pin = GPIO_PIN_7|GPIO_PIN_8;
 80079d6:	f44f 73c0 	mov.w	r3, #384	; 0x180
 80079da:	9303      	str	r3, [sp, #12]
    GPIO_InitStruct.Mode = GPIO_MODE_AF_OD;
 80079dc:	2312      	movs	r3, #18
 80079de:	9304      	str	r3, [sp, #16]
    GPIO_InitStruct.Pull = GPIO_NOPULL;
 80079e0:	2300      	movs	r3, #0
 80079e2:	9305      	str	r3, [sp, #20]
    GPIO_InitStruct.Speed = GPIO_SPEED_FREQ_LOW;
 80079e4:	9306      	str	r3, [sp, #24]
    GPIO_InitStruct.Alternate = GPIO_AF4_I2C1;
 80079e6:	2304      	movs	r3, #4
 80079e8:	9307      	str	r3, [sp, #28]
    HAL_GPIO_Init(GPIOB, &GPIO_InitStruct);
 80079ea:	a903      	add	r1, sp, #12
 80079ec:	4809      	ldr	r0, [pc, #36]	; (8007a14 <HAL_I2C_MspInit+0x74>)
 80079ee:	f7f9 fceb 	bl	80013c8 <HAL_GPIO_Init>
    __HAL_RCC_I2C1_CLK_ENABLE();
 80079f2:	f8d4 30e8 	ldr.w	r3, [r4, #232]	; 0xe8
 80079f6:	f443 1300 	orr.w	r3, r3, #2097152	; 0x200000
 80079fa:	f8c4 30e8 	str.w	r3, [r4, #232]	; 0xe8
 80079fe:	f8d4 30e8 	ldr.w	r3, [r4, #232]	; 0xe8
 8007a02:	f403 1300 	and.w	r3, r3, #2097152	; 0x200000
 8007a06:	9302      	str	r3, [sp, #8]
 8007a08:	9b02      	ldr	r3, [sp, #8]
}
 8007a0a:	e7d5      	b.n	80079b8 <HAL_I2C_MspInit+0x18>
 8007a0c:	40005400 	.word	0x40005400
 8007a10:	58024400 	.word	0x58024400
 8007a14:	58020400 	.word	0x58020400

08007a18 <HAL_RTC_MspInit>:
* @param hrtc: RTC handle pointer
* @retval None
*/
void HAL_RTC_MspInit(RTC_HandleTypeDef* hrtc)
{
  if(hrtc->Instance==RTC)
 8007a18:	6802      	ldr	r2, [r0, #0]
 8007a1a:	4b05      	ldr	r3, [pc, #20]	; (8007a30 <HAL_RTC_MspInit+0x18>)
 8007a1c:	429a      	cmp	r2, r3
 8007a1e:	d000      	beq.n	8007a22 <HAL_RTC_MspInit+0xa>
  /* USER CODE BEGIN RTC_MspInit 1 */

  /* USER CODE END RTC_MspInit 1 */
  }

}
 8007a20:	4770      	bx	lr
    __HAL_RCC_RTC_ENABLE();
 8007a22:	4a04      	ldr	r2, [pc, #16]	; (8007a34 <HAL_RTC_MspInit+0x1c>)
 8007a24:	6f13      	ldr	r3, [r2, #112]	; 0x70
 8007a26:	f443 4300 	orr.w	r3, r3, #32768	; 0x8000
 8007a2a:	6713      	str	r3, [r2, #112]	; 0x70
}
 8007a2c:	e7f8      	b.n	8007a20 <HAL_RTC_MspInit+0x8>
 8007a2e:	bf00      	nop
 8007a30:	58004000 	.word	0x58004000
 8007a34:	58024400 	.word	0x58024400

08007a38 <HAL_SPI_MspInit>:
* This function configures the hardware resources used in this example
* @param hspi: SPI handle pointer
* @retval None
*/
void HAL_SPI_MspInit(SPI_HandleTypeDef* hspi)
{
 8007a38:	b500      	push	{lr}
 8007a3a:	b089      	sub	sp, #36	; 0x24
  GPIO_InitTypeDef GPIO_InitStruct = {0};
 8007a3c:	2300      	movs	r3, #0
 8007a3e:	9303      	str	r3, [sp, #12]
 8007a40:	9304      	str	r3, [sp, #16]
 8007a42:	9305      	str	r3, [sp, #20]
 8007a44:	9306      	str	r3, [sp, #24]
 8007a46:	9307      	str	r3, [sp, #28]
  if(hspi->Instance==SPI1)
 8007a48:	6802      	ldr	r2, [r0, #0]
 8007a4a:	4b16      	ldr	r3, [pc, #88]	; (8007aa4 <HAL_SPI_MspInit+0x6c>)
 8007a4c:	429a      	cmp	r2, r3
 8007a4e:	d002      	beq.n	8007a56 <HAL_SPI_MspInit+0x1e>
  /* USER CODE BEGIN SPI1_MspInit 1 */

  /* USER CODE END SPI1_MspInit 1 */
  }

}
 8007a50:	b009      	add	sp, #36	; 0x24
 8007a52:	f85d fb04 	ldr.w	pc, [sp], #4
    __HAL_RCC_SPI1_CLK_ENABLE();
 8007a56:	4b14      	ldr	r3, [pc, #80]	; (8007aa8 <HAL_SPI_MspInit+0x70>)
 8007a58:	f8d3 20f0 	ldr.w	r2, [r3, #240]	; 0xf0
 8007a5c:	f442 5280 	orr.w	r2, r2, #4096	; 0x1000
 8007a60:	f8c3 20f0 	str.w	r2, [r3, #240]	; 0xf0
 8007a64:	f8d3 20f0 	ldr.w	r2, [r3, #240]	; 0xf0
 8007a68:	f402 5280 	and.w	r2, r2, #4096	; 0x1000
 8007a6c:	9201      	str	r2, [sp, #4]
 8007a6e:	9a01      	ldr	r2, [sp, #4]
    __HAL_RCC_GPIOA_CLK_ENABLE();
 8007a70:	f8d3 20e0 	ldr.w	r2, [r3, #224]	; 0xe0
 8007a74:	f042 0201 	orr.w	r2, r2, #1
 8007a78:	f8c3 20e0 	str.w	r2, [r3, #224]	; 0xe0
 8007a7c:	f8d3 30e0 	ldr.w	r3, [r3, #224]	; 0xe0
 8007a80:	f003 0301 	and.w	r3, r3, #1
 8007a84:	9302      	str	r3, [sp, #8]
 8007a86:	9b02      	ldr	r3, [sp, #8]
    GPIO_InitStruct.Pin = GPIO_PIN_5|GPIO_PIN_6|GPIO_PIN_7;
 8007a88:	23e0      	movs	r3, #224	; 0xe0
 8007a8a:	9303      	str	r3, [sp, #12]
    GPIO_InitStruct.Mode = GPIO_MODE_AF_PP;
 8007a8c:	2302      	movs	r3, #2
 8007a8e:	9304      	str	r3, [sp, #16]
    GPIO_InitStruct.Pull = GPIO_NOPULL;
 8007a90:	2300      	movs	r3, #0
 8007a92:	9305      	str	r3, [sp, #20]
    GPIO_InitStruct.Speed = GPIO_SPEED_FREQ_LOW;
 8007a94:	9306      	str	r3, [sp, #24]
    GPIO_InitStruct.Alternate = GPIO_AF5_SPI1;
 8007a96:	2305      	movs	r3, #5
 8007a98:	9307      	str	r3, [sp, #28]
    HAL_GPIO_Init(GPIOA, &GPIO_InitStruct);
 8007a9a:	a903      	add	r1, sp, #12
 8007a9c:	4803      	ldr	r0, [pc, #12]	; (8007aac <HAL_SPI_MspInit+0x74>)
 8007a9e:	f7f9 fc93 	bl	80013c8 <HAL_GPIO_Init>
}
 8007aa2:	e7d5      	b.n	8007a50 <HAL_SPI_MspInit+0x18>
 8007aa4:	40013000 	.word	0x40013000
 8007aa8:	58024400 	.word	0x58024400
 8007aac:	58020000 	.word	0x58020000

08007ab0 <HAL_TIM_Base_MspInit>:
* @param htim_base: TIM_Base handle pointer
* @retval None
*/
void HAL_TIM_Base_MspInit(TIM_HandleTypeDef* htim_base)
{
  if(htim_base->Instance==TIM2)
 8007ab0:	6803      	ldr	r3, [r0, #0]
 8007ab2:	f1b3 4f80 	cmp.w	r3, #1073741824	; 0x40000000
 8007ab6:	d000      	beq.n	8007aba <HAL_TIM_Base_MspInit+0xa>
 8007ab8:	4770      	bx	lr
{
 8007aba:	b082      	sub	sp, #8
  {
  /* USER CODE BEGIN TIM2_MspInit 0 */

  /* USER CODE END TIM2_MspInit 0 */
    /* Peripheral clock enable */
    __HAL_RCC_TIM2_CLK_ENABLE();
 8007abc:	4b07      	ldr	r3, [pc, #28]	; (8007adc <HAL_TIM_Base_MspInit+0x2c>)
 8007abe:	f8d3 20e8 	ldr.w	r2, [r3, #232]	; 0xe8
 8007ac2:	f042 0201 	orr.w	r2, r2, #1
 8007ac6:	f8c3 20e8 	str.w	r2, [r3, #232]	; 0xe8
 8007aca:	f8d3 30e8 	ldr.w	r3, [r3, #232]	; 0xe8
 8007ace:	f003 0301 	and.w	r3, r3, #1
 8007ad2:	9301      	str	r3, [sp, #4]
 8007ad4:	9b01      	ldr	r3, [sp, #4]
  /* USER CODE BEGIN TIM2_MspInit 1 */

  /* USER CODE END TIM2_MspInit 1 */
  }

}
 8007ad6:	b002      	add	sp, #8
 8007ad8:	4770      	bx	lr
 8007ada:	bf00      	nop
 8007adc:	58024400 	.word	0x58024400

08007ae0 <HAL_UART_MspInit>:
* This function configures the hardware resources used in this example
* @param huart: UART handle pointer
* @retval None
*/
void HAL_UART_MspInit(UART_HandleTypeDef* huart)
{
 8007ae0:	b500      	push	{lr}
 8007ae2:	b089      	sub	sp, #36	; 0x24
  GPIO_InitTypeDef GPIO_InitStruct = {0};
 8007ae4:	2300      	movs	r3, #0
 8007ae6:	9303      	str	r3, [sp, #12]
 8007ae8:	9304      	str	r3, [sp, #16]
 8007aea:	9305      	str	r3, [sp, #20]
 8007aec:	9306      	str	r3, [sp, #24]
 8007aee:	9307      	str	r3, [sp, #28]
  if(huart->Instance==USART1)
 8007af0:	6802      	ldr	r2, [r0, #0]
 8007af2:	f103 4380 	add.w	r3, r3, #1073741824	; 0x40000000
 8007af6:	f503 3388 	add.w	r3, r3, #69632	; 0x11000
 8007afa:	429a      	cmp	r2, r3
 8007afc:	d002      	beq.n	8007b04 <HAL_UART_MspInit+0x24>
  /* USER CODE BEGIN USART1_MspInit 1 */

  /* USER CODE END USART1_MspInit 1 */
  }

}
 8007afe:	b009      	add	sp, #36	; 0x24
 8007b00:	f85d fb04 	ldr.w	pc, [sp], #4
    __HAL_RCC_USART1_CLK_ENABLE();
 8007b04:	4b13      	ldr	r3, [pc, #76]	; (8007b54 <HAL_UART_MspInit+0x74>)
 8007b06:	f8d3 20f0 	ldr.w	r2, [r3, #240]	; 0xf0
 8007b0a:	f042 0210 	orr.w	r2, r2, #16
 8007b0e:	f8c3 20f0 	str.w	r2, [r3, #240]	; 0xf0
 8007b12:	f8d3 20f0 	ldr.w	r2, [r3, #240]	; 0xf0
 8007b16:	f002 0210 	and.w	r2, r2, #16
 8007b1a:	9201      	str	r2, [sp, #4]
 8007b1c:	9a01      	ldr	r2, [sp, #4]
    __HAL_RCC_GPIOA_CLK_ENABLE();
 8007b1e:	f8d3 20e0 	ldr.w	r2, [r3, #224]	; 0xe0
 8007b22:	f042 0201 	orr.w	r2, r2, #1
 8007b26:	f8c3 20e0 	str.w	r2, [r3, #224]	; 0xe0
 8007b2a:	f8d3 30e0 	ldr.w	r3, [r3, #224]	; 0xe0
 8007b2e:	f003 0301 	and.w	r3, r3, #1
 8007b32:	9302      	str	r3, [sp, #8]
 8007b34:	9b02      	ldr	r3, [sp, #8]
    GPIO_InitStruct.Pin = GPIO_PIN_9|GPIO_PIN_10;
 8007b36:	f44f 63c0 	mov.w	r3, #1536	; 0x600
 8007b3a:	9303      	str	r3, [sp, #12]
    GPIO_InitStruct.Mode = GPIO_MODE_AF_PP;
 8007b3c:	2302      	movs	r3, #2
 8007b3e:	9304      	str	r3, [sp, #16]
    GPIO_InitStruct.Pull = GPIO_NOPULL;
 8007b40:	2300      	movs	r3, #0
 8007b42:	9305      	str	r3, [sp, #20]
    GPIO_InitStruct.Speed = GPIO_SPEED_FREQ_LOW;
 8007b44:	9306      	str	r3, [sp, #24]
    GPIO_InitStruct.Alternate = GPIO_AF7_USART1;
 8007b46:	2307      	movs	r3, #7
 8007b48:	9307      	str	r3, [sp, #28]
    HAL_GPIO_Init(GPIOA, &GPIO_InitStruct);
 8007b4a:	a903      	add	r1, sp, #12
 8007b4c:	4802      	ldr	r0, [pc, #8]	; (8007b58 <HAL_UART_MspInit+0x78>)
 8007b4e:	f7f9 fc3b 	bl	80013c8 <HAL_GPIO_Init>
}
 8007b52:	e7d4      	b.n	8007afe <HAL_UART_MspInit+0x1e>
 8007b54:	58024400 	.word	0x58024400
 8007b58:	58020000 	.word	0x58020000

08007b5c <HAL_InitTick>:
  *         reset by HAL_Init() or at any time when clock is configured, by HAL_RCC_ClockConfig().
  * @param  TickPriority: Tick interrupt priority.
  * @retval HAL status
  */
HAL_StatusTypeDef HAL_InitTick(uint32_t TickPriority)
{
 8007b5c:	b500      	push	{lr}
 8007b5e:	b08b      	sub	sp, #44	; 0x2c
 8007b60:	4601      	mov	r1, r0
  RCC_ClkInitTypeDef    clkconfig;
  uint32_t              uwTimclock = 0;
  uint32_t              uwPrescalerValue = 0;
  uint32_t              pFLatency;
  /*Configure the TIM1 IRQ priority */
  HAL_NVIC_SetPriority(TIM1_UP_IRQn, TickPriority ,0);
 8007b62:	2200      	movs	r2, #0
 8007b64:	2019      	movs	r0, #25
 8007b66:	f7f8 fdf3 	bl	8000750 <HAL_NVIC_SetPriority>

  /* Enable the TIM1 global Interrupt */
  HAL_NVIC_EnableIRQ(TIM1_UP_IRQn);
 8007b6a:	2019      	movs	r0, #25
 8007b6c:	f7f8 fe22 	bl	80007b4 <HAL_NVIC_EnableIRQ>
  /* Enable TIM1 clock */
  __HAL_RCC_TIM1_CLK_ENABLE();
 8007b70:	4b16      	ldr	r3, [pc, #88]	; (8007bcc <HAL_InitTick+0x70>)
 8007b72:	f8d3 20f0 	ldr.w	r2, [r3, #240]	; 0xf0
 8007b76:	f042 0201 	orr.w	r2, r2, #1
 8007b7a:	f8c3 20f0 	str.w	r2, [r3, #240]	; 0xf0
 8007b7e:	f8d3 30f0 	ldr.w	r3, [r3, #240]	; 0xf0
 8007b82:	f003 0301 	and.w	r3, r3, #1
 8007b86:	9300      	str	r3, [sp, #0]
 8007b88:	9b00      	ldr	r3, [sp, #0]

  /* Get clock configuration */
  HAL_RCC_GetClockConfig(&clkconfig, &pFLatency);
 8007b8a:	a901      	add	r1, sp, #4
 8007b8c:	a802      	add	r0, sp, #8
 8007b8e:	f7fb f99d 	bl	8002ecc <HAL_RCC_GetClockConfig>

  /* Compute TIM1 clock */
  uwTimclock = 2*HAL_RCC_GetPCLK2Freq();
 8007b92:	f7fb f989 	bl	8002ea8 <HAL_RCC_GetPCLK2Freq>
 8007b96:	0043      	lsls	r3, r0, #1

  /* Compute the prescaler value to have TIM1 counter clock equal to 1MHz */
  uwPrescalerValue = (uint32_t) ((uwTimclock / 1000000) - 1);
 8007b98:	480d      	ldr	r0, [pc, #52]	; (8007bd0 <HAL_InitTick+0x74>)
 8007b9a:	fba0 2303 	umull	r2, r3, r0, r3
 8007b9e:	0c9b      	lsrs	r3, r3, #18
 8007ba0:	3b01      	subs	r3, #1

  /* Initialize TIM1 */
  htim1.Instance = TIM1;
 8007ba2:	480c      	ldr	r0, [pc, #48]	; (8007bd4 <HAL_InitTick+0x78>)
 8007ba4:	4a0c      	ldr	r2, [pc, #48]	; (8007bd8 <HAL_InitTick+0x7c>)
 8007ba6:	6002      	str	r2, [r0, #0]
  + Period = [(TIM1CLK/1000) - 1]. to have a (1/1000) s time base.
  + Prescaler = (uwTimclock/1000000 - 1) to have a 1MHz counter clock.
  + ClockDivision = 0
  + Counter direction = Up
  */
  htim1.Init.Period = (1000000 / 1000) - 1;
 8007ba8:	f240 32e7 	movw	r2, #999	; 0x3e7
 8007bac:	60c2      	str	r2, [r0, #12]
  htim1.Init.Prescaler = uwPrescalerValue;
 8007bae:	6043      	str	r3, [r0, #4]
  htim1.Init.ClockDivision = 0;
 8007bb0:	2300      	movs	r3, #0
 8007bb2:	6103      	str	r3, [r0, #16]
  htim1.Init.CounterMode = TIM_COUNTERMODE_UP;
 8007bb4:	6083      	str	r3, [r0, #8]
  if(HAL_TIM_Base_Init(&htim1) == HAL_OK)
 8007bb6:	f7fc fec7 	bl	8004948 <HAL_TIM_Base_Init>
 8007bba:	b118      	cbz	r0, 8007bc4 <HAL_InitTick+0x68>
    /* Start the TIM time Base generation in interrupt mode */
    return HAL_TIM_Base_Start_IT(&htim1);
  }

  /* Return function status */
  return HAL_ERROR;
 8007bbc:	2001      	movs	r0, #1
}
 8007bbe:	b00b      	add	sp, #44	; 0x2c
 8007bc0:	f85d fb04 	ldr.w	pc, [sp], #4
    return HAL_TIM_Base_Start_IT(&htim1);
 8007bc4:	4803      	ldr	r0, [pc, #12]	; (8007bd4 <HAL_InitTick+0x78>)
 8007bc6:	f7fc fd4b 	bl	8004660 <HAL_TIM_Base_Start_IT>
 8007bca:	e7f8      	b.n	8007bbe <HAL_InitTick+0x62>
 8007bcc:	58024400 	.word	0x58024400
 8007bd0:	431bde83 	.word	0x431bde83
 8007bd4:	20000610 	.word	0x20000610
 8007bd8:	40010000 	.word	0x40010000

08007bdc <NMI_Handler>:

  /* USER CODE END NonMaskableInt_IRQn 0 */
  /* USER CODE BEGIN NonMaskableInt_IRQn 1 */

  /* USER CODE END NonMaskableInt_IRQn 1 */
}
 8007bdc:	4770      	bx	lr

08007bde <HardFault_Handler>:
void HardFault_Handler(void)
{
  /* USER CODE BEGIN HardFault_IRQn 0 */

  /* USER CODE END HardFault_IRQn 0 */
  while (1)
 8007bde:	e7fe      	b.n	8007bde <HardFault_Handler>

08007be0 <MemManage_Handler>:
void MemManage_Handler(void)
{
  /* USER CODE BEGIN MemoryManagement_IRQn 0 */

  /* USER CODE END MemoryManagement_IRQn 0 */
  while (1)
 8007be0:	e7fe      	b.n	8007be0 <MemManage_Handler>

08007be2 <BusFault_Handler>:
void BusFault_Handler(void)
{
  /* USER CODE BEGIN BusFault_IRQn 0 */

  /* USER CODE END BusFault_IRQn 0 */
  while (1)
 8007be2:	e7fe      	b.n	8007be2 <BusFault_Handler>

08007be4 <UsageFault_Handler>:
void UsageFault_Handler(void)
{
  /* USER CODE BEGIN UsageFault_IRQn 0 */

  /* USER CODE END UsageFault_IRQn 0 */
  while (1)
 8007be4:	e7fe      	b.n	8007be4 <UsageFault_Handler>

08007be6 <SVC_Handler>:

  /* USER CODE END SVCall_IRQn 0 */
  /* USER CODE BEGIN SVCall_IRQn 1 */

  /* USER CODE END SVCall_IRQn 1 */
}
 8007be6:	4770      	bx	lr

08007be8 <DebugMon_Handler>:

  /* USER CODE END DebugMonitor_IRQn 0 */
  /* USER CODE BEGIN DebugMonitor_IRQn 1 */

  /* USER CODE END DebugMonitor_IRQn 1 */
}
 8007be8:	4770      	bx	lr

08007bea <PendSV_Handler>:

  /* USER CODE END PendSV_IRQn 0 */
  /* USER CODE BEGIN PendSV_IRQn 1 */

  /* USER CODE END PendSV_IRQn 1 */
}
 8007bea:	4770      	bx	lr

08007bec <FDCAN1_IT0_IRQHandler>:

/**
  * @brief This function handles FDCAN1 interrupt 0.
  */
void FDCAN1_IT0_IRQHandler(void)
{
 8007bec:	b508      	push	{r3, lr}
  /* USER CODE BEGIN FDCAN1_IT0_IRQn 0 */

  /* USER CODE END FDCAN1_IT0_IRQn 0 */
  HAL_FDCAN_IRQHandler(&hfdcan1);
 8007bee:	4802      	ldr	r0, [pc, #8]	; (8007bf8 <FDCAN1_IT0_IRQHandler+0xc>)
 8007bf0:	f7f9 fa54 	bl	800109c <HAL_FDCAN_IRQHandler>
  /* USER CODE BEGIN FDCAN1_IT0_IRQn 1 */

  /* USER CODE END FDCAN1_IT0_IRQn 1 */
}
 8007bf4:	bd08      	pop	{r3, pc}
 8007bf6:	bf00      	nop
 8007bf8:	20000208 	.word	0x20000208

08007bfc <FDCAN1_IT1_IRQHandler>:

/**
  * @brief This function handles FDCAN1 interrupt 1.
  */
void FDCAN1_IT1_IRQHandler(void)
{
 8007bfc:	b508      	push	{r3, lr}
  /* USER CODE BEGIN FDCAN1_IT1_IRQn 0 */

  /* USER CODE END FDCAN1_IT1_IRQn 0 */
  HAL_FDCAN_IRQHandler(&hfdcan1);
 8007bfe:	4802      	ldr	r0, [pc, #8]	; (8007c08 <FDCAN1_IT1_IRQHandler+0xc>)
 8007c00:	f7f9 fa4c 	bl	800109c <HAL_FDCAN_IRQHandler>
  /* USER CODE BEGIN FDCAN1_IT1_IRQn 1 */

  /* USER CODE END FDCAN1_IT1_IRQn 1 */
}
 8007c04:	bd08      	pop	{r3, pc}
 8007c06:	bf00      	nop
 8007c08:	20000208 	.word	0x20000208

08007c0c <TIM1_UP_IRQHandler>:

/**
  * @brief This function handles TIM1 update interrupt.
  */
void TIM1_UP_IRQHandler(void)
{
 8007c0c:	b508      	push	{r3, lr}
  /* USER CODE BEGIN TIM1_UP_IRQn 0 */

  /* USER CODE END TIM1_UP_IRQn 0 */
  HAL_TIM_IRQHandler(&htim1);
 8007c0e:	4802      	ldr	r0, [pc, #8]	; (8007c18 <TIM1_UP_IRQHandler+0xc>)
 8007c10:	f7fc fd4d 	bl	80046ae <HAL_TIM_IRQHandler>
  /* USER CODE BEGIN TIM1_UP_IRQn 1 */

  /* USER CODE END TIM1_UP_IRQn 1 */
}
 8007c14:	bd08      	pop	{r3, pc}
 8007c16:	bf00      	nop
 8007c18:	20000610 	.word	0x20000610

08007c1c <OTG_HS_IRQHandler>:

/**
  * @brief This function handles USB On The Go HS global interrupt.
  */
void OTG_HS_IRQHandler(void)
{
 8007c1c:	b508      	push	{r3, lr}
  /* USER CODE BEGIN OTG_HS_IRQn 0 */

  /* USER CODE END OTG_HS_IRQn 0 */
  HAL_PCD_IRQHandler(&hpcd_USB_OTG_HS);
 8007c1e:	4802      	ldr	r0, [pc, #8]	; (8007c28 <OTG_HS_IRQHandler+0xc>)
 8007c20:	f7f9 ff4a 	bl	8001ab8 <HAL_PCD_IRQHandler>
  /* USER CODE BEGIN OTG_HS_IRQn 1 */

  /* USER CODE END OTG_HS_IRQn 1 */
}
 8007c24:	bd08      	pop	{r3, pc}
 8007c26:	bf00      	nop
 8007c28:	2000192c 	.word	0x2000192c

08007c2c <_read>:
	_kill(status, -1);
	while (1) {}		/* Make sure we hang here */
}

__attribute__((weak)) int _read(int file, char *ptr, int len)
{
 8007c2c:	b570      	push	{r4, r5, r6, lr}
 8007c2e:	460c      	mov	r4, r1
 8007c30:	4616      	mov	r6, r2
	int DataIdx;

	for (DataIdx = 0; DataIdx < len; DataIdx++)
 8007c32:	2500      	movs	r5, #0
 8007c34:	42b5      	cmp	r5, r6
 8007c36:	da07      	bge.n	8007c48 <_read+0x1c>
	{
		*ptr++ = __io_getchar();
 8007c38:	f3af 8000 	nop.w
 8007c3c:	4621      	mov	r1, r4
 8007c3e:	f801 0b01 	strb.w	r0, [r1], #1
	for (DataIdx = 0; DataIdx < len; DataIdx++)
 8007c42:	3501      	adds	r5, #1
		*ptr++ = __io_getchar();
 8007c44:	460c      	mov	r4, r1
 8007c46:	e7f5      	b.n	8007c34 <_read+0x8>
	}

return len;
}
 8007c48:	4630      	mov	r0, r6
 8007c4a:	bd70      	pop	{r4, r5, r6, pc}

08007c4c <_write>:

__attribute__((weak)) int _write(int file, char *ptr, int len)
{
 8007c4c:	b570      	push	{r4, r5, r6, lr}
 8007c4e:	460c      	mov	r4, r1
 8007c50:	4616      	mov	r6, r2
	int DataIdx;

	for (DataIdx = 0; DataIdx < len; DataIdx++)
 8007c52:	2500      	movs	r5, #0
 8007c54:	42b5      	cmp	r5, r6
 8007c56:	da05      	bge.n	8007c64 <_write+0x18>
	{
		__io_putchar(*ptr++);
 8007c58:	f814 0b01 	ldrb.w	r0, [r4], #1
 8007c5c:	f3af 8000 	nop.w
	for (DataIdx = 0; DataIdx < len; DataIdx++)
 8007c60:	3501      	adds	r5, #1
 8007c62:	e7f7      	b.n	8007c54 <_write+0x8>
	}
	return len;
}
 8007c64:	4630      	mov	r0, r6
 8007c66:	bd70      	pop	{r4, r5, r6, pc}

08007c68 <_sbrk>:

caddr_t _sbrk(int incr)
{
 8007c68:	b508      	push	{r3, lr}
 8007c6a:	4603      	mov	r3, r0
	extern char end asm("end");
	static char *heap_end;
	char *prev_heap_end;

	if (heap_end == 0)
 8007c6c:	4a0b      	ldr	r2, [pc, #44]	; (8007c9c <_sbrk+0x34>)
 8007c6e:	6812      	ldr	r2, [r2, #0]
 8007c70:	b142      	cbz	r2, 8007c84 <_sbrk+0x1c>
		heap_end = &end;

	prev_heap_end = heap_end;
 8007c72:	4a0a      	ldr	r2, [pc, #40]	; (8007c9c <_sbrk+0x34>)
 8007c74:	6810      	ldr	r0, [r2, #0]
	if (heap_end + incr > stack_ptr)
 8007c76:	4403      	add	r3, r0
 8007c78:	466a      	mov	r2, sp
 8007c7a:	4293      	cmp	r3, r2
 8007c7c:	d806      	bhi.n	8007c8c <_sbrk+0x24>
//		abort();
		errno = ENOMEM;
		return (caddr_t) -1;
	}

	heap_end += incr;
 8007c7e:	4a07      	ldr	r2, [pc, #28]	; (8007c9c <_sbrk+0x34>)
 8007c80:	6013      	str	r3, [r2, #0]

	return (caddr_t) prev_heap_end;
}
 8007c82:	bd08      	pop	{r3, pc}
		heap_end = &end;
 8007c84:	4a05      	ldr	r2, [pc, #20]	; (8007c9c <_sbrk+0x34>)
 8007c86:	4906      	ldr	r1, [pc, #24]	; (8007ca0 <_sbrk+0x38>)
 8007c88:	6011      	str	r1, [r2, #0]
 8007c8a:	e7f2      	b.n	8007c72 <_sbrk+0xa>
		errno = ENOMEM;
 8007c8c:	f000 fad4 	bl	8008238 <__errno>
 8007c90:	230c      	movs	r3, #12
 8007c92:	6003      	str	r3, [r0, #0]
		return (caddr_t) -1;
 8007c94:	f04f 30ff 	mov.w	r0, #4294967295
 8007c98:	e7f3      	b.n	8007c82 <_sbrk+0x1a>
 8007c9a:	bf00      	nop
 8007c9c:	200005fc 	.word	0x200005fc
 8007ca0:	20001f48 	.word	0x20001f48

08007ca4 <_close>:

int _close(int file)
{
	return -1;
}
 8007ca4:	f04f 30ff 	mov.w	r0, #4294967295
 8007ca8:	4770      	bx	lr

08007caa <_fstat>:


int _fstat(int file, struct stat *st)
{
	st->st_mode = S_IFCHR;
 8007caa:	f44f 5300 	mov.w	r3, #8192	; 0x2000
 8007cae:	604b      	str	r3, [r1, #4]
	return 0;
}
 8007cb0:	2000      	movs	r0, #0
 8007cb2:	4770      	bx	lr

08007cb4 <_isatty>:

int _isatty(int file)
{
	return 1;
}
 8007cb4:	2001      	movs	r0, #1
 8007cb6:	4770      	bx	lr

08007cb8 <_lseek>:

int _lseek(int file, int ptr, int dir)
{
	return 0;
}
 8007cb8:	2000      	movs	r0, #0
 8007cba:	4770      	bx	lr

08007cbc <SystemInit>:
 __IO uint32_t tmpreg;
#endif /* DATA_IN_D2_SRAM */

  /* FPU settings ------------------------------------------------------------*/
  #if (__FPU_PRESENT == 1) && (__FPU_USED == 1)
    SCB->CPACR |= ((3UL << (10*2))|(3UL << (11*2)));  /* set CP10 and CP11 Full Access */
 8007cbc:	4a18      	ldr	r2, [pc, #96]	; (8007d20 <SystemInit+0x64>)
 8007cbe:	f8d2 3088 	ldr.w	r3, [r2, #136]	; 0x88
 8007cc2:	f443 0370 	orr.w	r3, r3, #15728640	; 0xf00000
 8007cc6:	f8c2 3088 	str.w	r3, [r2, #136]	; 0x88
  #endif
  /* Reset the RCC clock configuration to the default reset state ------------*/
  /* Set HSION bit */
  RCC->CR |= RCC_CR_HSION;
 8007cca:	4b16      	ldr	r3, [pc, #88]	; (8007d24 <SystemInit+0x68>)
 8007ccc:	681a      	ldr	r2, [r3, #0]
 8007cce:	f042 0201 	orr.w	r2, r2, #1
 8007cd2:	601a      	str	r2, [r3, #0]

  /* Reset CFGR register */
  RCC->CFGR = 0x00000000;
 8007cd4:	2200      	movs	r2, #0
 8007cd6:	611a      	str	r2, [r3, #16]

  /* Reset HSEON, CSSON , CSION,RC48ON, CSIKERON PLL1ON, PLL2ON and PLL3ON bits */
  RCC->CR &= 0xEAF6ED7FU;
 8007cd8:	6818      	ldr	r0, [r3, #0]
 8007cda:	4913      	ldr	r1, [pc, #76]	; (8007d28 <SystemInit+0x6c>)
 8007cdc:	4001      	ands	r1, r0
 8007cde:	6019      	str	r1, [r3, #0]

  /* Reset D1CFGR register */
  RCC->D1CFGR = 0x00000000;
 8007ce0:	619a      	str	r2, [r3, #24]

  /* Reset D2CFGR register */
  RCC->D2CFGR = 0x00000000;
 8007ce2:	61da      	str	r2, [r3, #28]

  /* Reset D3CFGR register */
  RCC->D3CFGR = 0x00000000;
 8007ce4:	621a      	str	r2, [r3, #32]

  /* Reset PLLCKSELR register */
  RCC->PLLCKSELR = 0x00000000;
 8007ce6:	629a      	str	r2, [r3, #40]	; 0x28

  /* Reset PLLCFGR register */
  RCC->PLLCFGR = 0x00000000;
 8007ce8:	62da      	str	r2, [r3, #44]	; 0x2c
  /* Reset PLL1DIVR register */
  RCC->PLL1DIVR = 0x00000000;
 8007cea:	631a      	str	r2, [r3, #48]	; 0x30
  /* Reset PLL1FRACR register */
  RCC->PLL1FRACR = 0x00000000;
 8007cec:	635a      	str	r2, [r3, #52]	; 0x34

  /* Reset PLL2DIVR register */
  RCC->PLL2DIVR = 0x00000000;
 8007cee:	639a      	str	r2, [r3, #56]	; 0x38

  /* Reset PLL2FRACR register */

  RCC->PLL2FRACR = 0x00000000;
 8007cf0:	63da      	str	r2, [r3, #60]	; 0x3c
  /* Reset PLL3DIVR register */
  RCC->PLL3DIVR = 0x00000000;
 8007cf2:	641a      	str	r2, [r3, #64]	; 0x40

  /* Reset PLL3FRACR register */
  RCC->PLL3FRACR = 0x00000000;
 8007cf4:	645a      	str	r2, [r3, #68]	; 0x44

  /* Reset HSEBYP bit */
  RCC->CR &= 0xFFFBFFFFU;
 8007cf6:	6819      	ldr	r1, [r3, #0]
 8007cf8:	f421 2180 	bic.w	r1, r1, #262144	; 0x40000
 8007cfc:	6019      	str	r1, [r3, #0]

  /* Disable all interrupts */
  RCC->CIER = 0x00000000;
 8007cfe:	661a      	str	r2, [r3, #96]	; 0x60
  SCB->VTOR = FLASH_BANK2_BASE | VECT_TAB_OFFSET; /* Vector Table Relocation in Internal FLASH */
#endif /* VECT_TAB_SRAM */

#else
  /* dual core CM7 or single core line */
  if((DBGMCU->IDCODE & 0xFFFF0000U) < 0x20000000U)
 8007d00:	4b0a      	ldr	r3, [pc, #40]	; (8007d2c <SystemInit+0x70>)
 8007d02:	681a      	ldr	r2, [r3, #0]
 8007d04:	4b0a      	ldr	r3, [pc, #40]	; (8007d30 <SystemInit+0x74>)
 8007d06:	4013      	ands	r3, r2
 8007d08:	f1b3 5f00 	cmp.w	r3, #536870912	; 0x20000000
 8007d0c:	d202      	bcs.n	8007d14 <SystemInit+0x58>
  {
    /* if stm32h7 revY*/
    /* Change  the switch matrix read issuing capability to 1 for the AXI SRAM target (Target 7) */
    *((__IO uint32_t*)0x51008108) = 0x000000001U;
 8007d0e:	4b09      	ldr	r3, [pc, #36]	; (8007d34 <SystemInit+0x78>)
 8007d10:	2201      	movs	r2, #1
 8007d12:	601a      	str	r2, [r3, #0]

  /* Configure the Vector Table location add offset address for cortex-M7 ------------------*/
#ifdef VECT_TAB_SRAM
  SCB->VTOR = D1_AXISRAM_BASE  | VECT_TAB_OFFSET; /* Vector Table Relocation in Internal D1 AXI-RAM */
#else
  SCB->VTOR = FLASH_BANK1_BASE | VECT_TAB_OFFSET; /* Vector Table Relocation in Internal FLASH */
 8007d14:	4b02      	ldr	r3, [pc, #8]	; (8007d20 <SystemInit+0x64>)
 8007d16:	f04f 6200 	mov.w	r2, #134217728	; 0x8000000
 8007d1a:	609a      	str	r2, [r3, #8]
#endif

#endif /*DUAL_CORE && CORE_CM4*/

}
 8007d1c:	4770      	bx	lr
 8007d1e:	bf00      	nop
 8007d20:	e000ed00 	.word	0xe000ed00
 8007d24:	58024400 	.word	0x58024400
 8007d28:	eaf6ed7f 	.word	0xeaf6ed7f
 8007d2c:	5c001000 	.word	0x5c001000
 8007d30:	ffff0000 	.word	0xffff0000
 8007d34:	51008108 	.word	0x51008108

08007d38 <Error_Handler>:

void Error_Handler(void)
{
  /* USER CODE BEGIN Error_Handler_Debug */
  /* User can add his own implementation to report the HAL error return state */
  while(1);
 8007d38:	e7fe      	b.n	8007d38 <Error_Handler>
	...

08007d3c <MX_USB_DEVICE_Init>:
  /* USER CODE END Error_Handler_Debug */
}

void MX_USB_DEVICE_Init(void)
{
 8007d3c:	b508      	push	{r3, lr}
  /* USER CODE BEGIN USB_DEVICE_Init_PreTreatment */

  /* USER CODE END USB_DEVICE_Init_PreTreatment */

  /* Init Device Library, add supported class and start the library. */
  if (USBD_Init(&hUsbDeviceHS, &HS_Desc, DEVICE_HS) != USBD_OK)
 8007d3e:	2201      	movs	r2, #1
 8007d40:	490e      	ldr	r1, [pc, #56]	; (8007d7c <MX_USB_DEVICE_Init+0x40>)
 8007d42:	480f      	ldr	r0, [pc, #60]	; (8007d80 <MX_USB_DEVICE_Init+0x44>)
 8007d44:	f7fe fbbc 	bl	80064c0 <USBD_Init>
 8007d48:	b980      	cbnz	r0, 8007d6c <MX_USB_DEVICE_Init+0x30>
  {
    Error_Handler();
  }
  if (USBD_RegisterClass(&hUsbDeviceHS, &USBD_CDC) != USBD_OK)
 8007d4a:	490e      	ldr	r1, [pc, #56]	; (8007d84 <MX_USB_DEVICE_Init+0x48>)
 8007d4c:	480c      	ldr	r0, [pc, #48]	; (8007d80 <MX_USB_DEVICE_Init+0x44>)
 8007d4e:	f7fe fbe1 	bl	8006514 <USBD_RegisterClass>
 8007d52:	b968      	cbnz	r0, 8007d70 <MX_USB_DEVICE_Init+0x34>
  {
    Error_Handler();
  }
  if (USBD_CDC_RegisterInterface(&hUsbDeviceHS, &USBD_Interface_fops_HS) != USBD_OK)
 8007d54:	490c      	ldr	r1, [pc, #48]	; (8007d88 <MX_USB_DEVICE_Init+0x4c>)
 8007d56:	480a      	ldr	r0, [pc, #40]	; (8007d80 <MX_USB_DEVICE_Init+0x44>)
 8007d58:	f7fe fb6a 	bl	8006430 <USBD_CDC_RegisterInterface>
 8007d5c:	b950      	cbnz	r0, 8007d74 <MX_USB_DEVICE_Init+0x38>
  {
    Error_Handler();
  }
  if (USBD_Start(&hUsbDeviceHS) != USBD_OK)
 8007d5e:	4808      	ldr	r0, [pc, #32]	; (8007d80 <MX_USB_DEVICE_Init+0x44>)
 8007d60:	f7fe fbfa 	bl	8006558 <USBD_Start>
 8007d64:	b940      	cbnz	r0, 8007d78 <MX_USB_DEVICE_Init+0x3c>
  {
    Error_Handler();
  }

  /* USER CODE BEGIN USB_DEVICE_Init_PostTreatment */
  HAL_PWREx_EnableUSBVoltageDetector();
 8007d66:	f7fa faf9 	bl	800235c <HAL_PWREx_EnableUSBVoltageDetector>

  /* USER CODE END USB_DEVICE_Init_PostTreatment */
}
 8007d6a:	bd08      	pop	{r3, pc}
    Error_Handler();
 8007d6c:	f7ff ffe4 	bl	8007d38 <Error_Handler>
    Error_Handler();
 8007d70:	f7ff ffe2 	bl	8007d38 <Error_Handler>
    Error_Handler();
 8007d74:	f7ff ffe0 	bl	8007d38 <Error_Handler>
    Error_Handler();
 8007d78:	f7ff ffde 	bl	8007d38 <Error_Handler>
 8007d7c:	20000168 	.word	0x20000168
 8007d80:	2000065c 	.word	0x2000065c
 8007d84:	200000e0 	.word	0x200000e0
 8007d88:	20000120 	.word	0x20000120

08007d8c <CDC_DeInit_HS>:
static int8_t CDC_DeInit_HS(void)
{
  /* USER CODE BEGIN 9 */
  return (USBD_OK);
  /* USER CODE END 9 */
}
 8007d8c:	2000      	movs	r0, #0
 8007d8e:	4770      	bx	lr

08007d90 <CDC_Control_HS>:
    break;
  }

  return (USBD_OK);
  /* USER CODE END 10 */
}
 8007d90:	2000      	movs	r0, #0
 8007d92:	4770      	bx	lr

08007d94 <CDC_TransmitCplt_HS>:
  UNUSED(Buf);
  UNUSED(Len);
  UNUSED(epnum);
  /* USER CODE END 14 */
  return result;
}
 8007d94:	2000      	movs	r0, #0
 8007d96:	4770      	bx	lr

08007d98 <CDC_Receive_HS>:
{
 8007d98:	b510      	push	{r4, lr}
 8007d9a:	4601      	mov	r1, r0
  USBD_CDC_SetRxBuffer(&hUsbDeviceHS, &Buf[0]);
 8007d9c:	4c04      	ldr	r4, [pc, #16]	; (8007db0 <CDC_Receive_HS+0x18>)
 8007d9e:	4620      	mov	r0, r4
 8007da0:	f7fe fb55 	bl	800644e <USBD_CDC_SetRxBuffer>
  USBD_CDC_ReceivePacket(&hUsbDeviceHS);
 8007da4:	4620      	mov	r0, r4
 8007da6:	f7fe fb72 	bl	800648e <USBD_CDC_ReceivePacket>
}
 8007daa:	2000      	movs	r0, #0
 8007dac:	bd10      	pop	{r4, pc}
 8007dae:	bf00      	nop
 8007db0:	2000065c 	.word	0x2000065c

08007db4 <CDC_Init_HS>:
{
 8007db4:	b510      	push	{r4, lr}
  USBD_CDC_SetTxBuffer(&hUsbDeviceHS, UserTxBufferHS, 0);
 8007db6:	4c06      	ldr	r4, [pc, #24]	; (8007dd0 <CDC_Init_HS+0x1c>)
 8007db8:	2200      	movs	r2, #0
 8007dba:	4906      	ldr	r1, [pc, #24]	; (8007dd4 <CDC_Init_HS+0x20>)
 8007dbc:	4620      	mov	r0, r4
 8007dbe:	f7fe fb3e 	bl	800643e <USBD_CDC_SetTxBuffer>
  USBD_CDC_SetRxBuffer(&hUsbDeviceHS, UserRxBufferHS);
 8007dc2:	4905      	ldr	r1, [pc, #20]	; (8007dd8 <CDC_Init_HS+0x24>)
 8007dc4:	4620      	mov	r0, r4
 8007dc6:	f7fe fb42 	bl	800644e <USBD_CDC_SetRxBuffer>
}
 8007dca:	2000      	movs	r0, #0
 8007dcc:	bd10      	pop	{r4, pc}
 8007dce:	bf00      	nop
 8007dd0:	2000065c 	.word	0x2000065c
 8007dd4:	2000112c 	.word	0x2000112c
 8007dd8:	2000092c 	.word	0x2000092c

08007ddc <CDC_Transmit_HS>:
  USBD_CDC_HandleTypeDef *hcdc = (USBD_CDC_HandleTypeDef*)hUsbDeviceHS.pClassData;
 8007ddc:	4b09      	ldr	r3, [pc, #36]	; (8007e04 <CDC_Transmit_HS+0x28>)
 8007dde:	f8d3 32bc 	ldr.w	r3, [r3, #700]	; 0x2bc
  if (hcdc->TxState != 0){
 8007de2:	f8d3 3814 	ldr.w	r3, [r3, #2068]	; 0x814
 8007de6:	b10b      	cbz	r3, 8007dec <CDC_Transmit_HS+0x10>
    return USBD_BUSY;
 8007de8:	2001      	movs	r0, #1
}
 8007dea:	4770      	bx	lr
{
 8007dec:	b510      	push	{r4, lr}
  USBD_CDC_SetTxBuffer(&hUsbDeviceHS, Buf, Len);
 8007dee:	4c05      	ldr	r4, [pc, #20]	; (8007e04 <CDC_Transmit_HS+0x28>)
 8007df0:	460a      	mov	r2, r1
 8007df2:	4601      	mov	r1, r0
 8007df4:	4620      	mov	r0, r4
 8007df6:	f7fe fb22 	bl	800643e <USBD_CDC_SetTxBuffer>
  result = USBD_CDC_TransmitPacket(&hUsbDeviceHS);
 8007dfa:	4620      	mov	r0, r4
 8007dfc:	f7fe fb2d 	bl	800645a <USBD_CDC_TransmitPacket>
}
 8007e00:	bd10      	pop	{r4, pc}
 8007e02:	bf00      	nop
 8007e04:	2000065c 	.word	0x2000065c

08007e08 <HAL_PCD_MspInit>:
                       LL Driver Callbacks (PCD -> USB Device Library)
*******************************************************************************/
/* MSP Init */

void HAL_PCD_MspInit(PCD_HandleTypeDef* pcdHandle)
{
 8007e08:	b530      	push	{r4, r5, lr}
 8007e0a:	b089      	sub	sp, #36	; 0x24
  GPIO_InitTypeDef GPIO_InitStruct = {0};
 8007e0c:	2300      	movs	r3, #0
 8007e0e:	9303      	str	r3, [sp, #12]
 8007e10:	9304      	str	r3, [sp, #16]
 8007e12:	9305      	str	r3, [sp, #20]
 8007e14:	9306      	str	r3, [sp, #24]
 8007e16:	9307      	str	r3, [sp, #28]
  if(pcdHandle->Instance==USB_OTG_HS)
 8007e18:	6802      	ldr	r2, [r0, #0]
 8007e1a:	4b1b      	ldr	r3, [pc, #108]	; (8007e88 <HAL_PCD_MspInit+0x80>)
 8007e1c:	429a      	cmp	r2, r3
 8007e1e:	d001      	beq.n	8007e24 <HAL_PCD_MspInit+0x1c>
    HAL_NVIC_EnableIRQ(OTG_HS_IRQn);
  /* USER CODE BEGIN USB_OTG_HS_MspInit 1 */

  /* USER CODE END USB_OTG_HS_MspInit 1 */
  }
}
 8007e20:	b009      	add	sp, #36	; 0x24
 8007e22:	bd30      	pop	{r4, r5, pc}
    __HAL_RCC_GPIOB_CLK_ENABLE();
 8007e24:	4c19      	ldr	r4, [pc, #100]	; (8007e8c <HAL_PCD_MspInit+0x84>)
 8007e26:	f8d4 30e0 	ldr.w	r3, [r4, #224]	; 0xe0
 8007e2a:	f043 0302 	orr.w	r3, r3, #2
 8007e2e:	f8c4 30e0 	str.w	r3, [r4, #224]	; 0xe0
 8007e32:	f8d4 30e0 	ldr.w	r3, [r4, #224]	; 0xe0
 8007e36:	f003 0302 	and.w	r3, r3, #2
 8007e3a:	9301      	str	r3, [sp, #4]
 8007e3c:	9b01      	ldr	r3, [sp, #4]
    GPIO_InitStruct.Pin = GPIO_PIN_14|GPIO_PIN_15;
 8007e3e:	f44f 4340 	mov.w	r3, #49152	; 0xc000
 8007e42:	9303      	str	r3, [sp, #12]
    GPIO_InitStruct.Mode = GPIO_MODE_AF_PP;
 8007e44:	2302      	movs	r3, #2
 8007e46:	9304      	str	r3, [sp, #16]
    GPIO_InitStruct.Pull = GPIO_NOPULL;
 8007e48:	2500      	movs	r5, #0
 8007e4a:	9505      	str	r5, [sp, #20]
    GPIO_InitStruct.Speed = GPIO_SPEED_FREQ_LOW;
 8007e4c:	9506      	str	r5, [sp, #24]
    GPIO_InitStruct.Alternate = GPIO_AF12_OTG2_FS;
 8007e4e:	230c      	movs	r3, #12
 8007e50:	9307      	str	r3, [sp, #28]
    HAL_GPIO_Init(GPIOB, &GPIO_InitStruct);
 8007e52:	eb0d 0103 	add.w	r1, sp, r3
 8007e56:	480e      	ldr	r0, [pc, #56]	; (8007e90 <HAL_PCD_MspInit+0x88>)
 8007e58:	f7f9 fab6 	bl	80013c8 <HAL_GPIO_Init>
    __HAL_RCC_USB_OTG_HS_CLK_ENABLE();
 8007e5c:	f8d4 30d8 	ldr.w	r3, [r4, #216]	; 0xd8
 8007e60:	f043 7300 	orr.w	r3, r3, #33554432	; 0x2000000
 8007e64:	f8c4 30d8 	str.w	r3, [r4, #216]	; 0xd8
 8007e68:	f8d4 30d8 	ldr.w	r3, [r4, #216]	; 0xd8
 8007e6c:	f003 7300 	and.w	r3, r3, #33554432	; 0x2000000
 8007e70:	9302      	str	r3, [sp, #8]
 8007e72:	9b02      	ldr	r3, [sp, #8]
    HAL_NVIC_SetPriority(OTG_HS_IRQn, 0, 0);
 8007e74:	462a      	mov	r2, r5
 8007e76:	4629      	mov	r1, r5
 8007e78:	204d      	movs	r0, #77	; 0x4d
 8007e7a:	f7f8 fc69 	bl	8000750 <HAL_NVIC_SetPriority>
    HAL_NVIC_EnableIRQ(OTG_HS_IRQn);
 8007e7e:	204d      	movs	r0, #77	; 0x4d
 8007e80:	f7f8 fc98 	bl	80007b4 <HAL_NVIC_EnableIRQ>
}
 8007e84:	e7cc      	b.n	8007e20 <HAL_PCD_MspInit+0x18>
 8007e86:	bf00      	nop
 8007e88:	40040000 	.word	0x40040000
 8007e8c:	58024400 	.word	0x58024400
 8007e90:	58020400 	.word	0x58020400

08007e94 <HAL_PCD_SetupStageCallback>:
#if (USE_HAL_PCD_REGISTER_CALLBACKS == 1U)
static void PCD_SetupStageCallback(PCD_HandleTypeDef *hpcd)
#else
void HAL_PCD_SetupStageCallback(PCD_HandleTypeDef *hpcd)
#endif /* USE_HAL_PCD_REGISTER_CALLBACKS */
{
 8007e94:	b508      	push	{r3, lr}
  USBD_LL_SetupStage((USBD_HandleTypeDef*)hpcd->pData, (uint8_t *)hpcd->Setup);
 8007e96:	f500 7171 	add.w	r1, r0, #964	; 0x3c4
 8007e9a:	f8d0 0404 	ldr.w	r0, [r0, #1028]	; 0x404
 8007e9e:	f7fe fb70 	bl	8006582 <USBD_LL_SetupStage>
}
 8007ea2:	bd08      	pop	{r3, pc}

08007ea4 <HAL_PCD_DataOutStageCallback>:
#if (USE_HAL_PCD_REGISTER_CALLBACKS == 1U)
static void PCD_DataOutStageCallback(PCD_HandleTypeDef *hpcd, uint8_t epnum)
#else
void HAL_PCD_DataOutStageCallback(PCD_HandleTypeDef *hpcd, uint8_t epnum)
#endif /* USE_HAL_PCD_REGISTER_CALLBACKS */
{
 8007ea4:	b508      	push	{r3, lr}
  USBD_LL_DataOutStage((USBD_HandleTypeDef*)hpcd->pData, epnum, hpcd->OUT_ep[epnum].xfer_buff);
 8007ea6:	ebc1 03c1 	rsb	r3, r1, r1, lsl #3
 8007eaa:	eb00 0383 	add.w	r3, r0, r3, lsl #2
 8007eae:	f8d3 2208 	ldr.w	r2, [r3, #520]	; 0x208
 8007eb2:	f8d0 0404 	ldr.w	r0, [r0, #1028]	; 0x404
 8007eb6:	f7fe fb90 	bl	80065da <USBD_LL_DataOutStage>
}
 8007eba:	bd08      	pop	{r3, pc}

08007ebc <HAL_PCD_DataInStageCallback>:
#if (USE_HAL_PCD_REGISTER_CALLBACKS == 1U)
static void PCD_DataInStageCallback(PCD_HandleTypeDef *hpcd, uint8_t epnum)
#else
void HAL_PCD_DataInStageCallback(PCD_HandleTypeDef *hpcd, uint8_t epnum)
#endif /* USE_HAL_PCD_REGISTER_CALLBACKS */
{
 8007ebc:	b508      	push	{r3, lr}
  USBD_LL_DataInStage((USBD_HandleTypeDef*)hpcd->pData, epnum, hpcd->IN_ep[epnum].xfer_buff);
 8007ebe:	ebc1 03c1 	rsb	r3, r1, r1, lsl #3
 8007ec2:	eb00 0383 	add.w	r3, r0, r3, lsl #2
 8007ec6:	6c9a      	ldr	r2, [r3, #72]	; 0x48
 8007ec8:	f8d0 0404 	ldr.w	r0, [r0, #1028]	; 0x404
 8007ecc:	f7fe fbbe 	bl	800664c <USBD_LL_DataInStage>
}
 8007ed0:	bd08      	pop	{r3, pc}

08007ed2 <HAL_PCD_SOFCallback>:
#if (USE_HAL_PCD_REGISTER_CALLBACKS == 1U)
static void PCD_SOFCallback(PCD_HandleTypeDef *hpcd)
#else
void HAL_PCD_SOFCallback(PCD_HandleTypeDef *hpcd)
#endif /* USE_HAL_PCD_REGISTER_CALLBACKS */
{
 8007ed2:	b508      	push	{r3, lr}
  USBD_LL_SOF((USBD_HandleTypeDef*)hpcd->pData);
 8007ed4:	f8d0 0404 	ldr.w	r0, [r0, #1028]	; 0x404
 8007ed8:	f7fe fc54 	bl	8006784 <USBD_LL_SOF>
}
 8007edc:	bd08      	pop	{r3, pc}

08007ede <HAL_PCD_ResetCallback>:
#if (USE_HAL_PCD_REGISTER_CALLBACKS == 1U)
static void PCD_ResetCallback(PCD_HandleTypeDef *hpcd)
#else
void HAL_PCD_ResetCallback(PCD_HandleTypeDef *hpcd)
#endif /* USE_HAL_PCD_REGISTER_CALLBACKS */
{
 8007ede:	b510      	push	{r4, lr}
 8007ee0:	4604      	mov	r4, r0
  USBD_SpeedTypeDef speed = USBD_SPEED_FULL;

  if ( hpcd->Init.speed == PCD_SPEED_HIGH)
 8007ee2:	68c3      	ldr	r3, [r0, #12]
 8007ee4:	b13b      	cbz	r3, 8007ef6 <HAL_PCD_ResetCallback+0x18>
  {
    speed = USBD_SPEED_HIGH;
  }
  else if ( hpcd->Init.speed == PCD_SPEED_FULL)
 8007ee6:	2b02      	cmp	r3, #2
 8007ee8:	d101      	bne.n	8007eee <HAL_PCD_ResetCallback+0x10>
  {
    speed = USBD_SPEED_FULL;
 8007eea:	2101      	movs	r1, #1
 8007eec:	e004      	b.n	8007ef8 <HAL_PCD_ResetCallback+0x1a>
  }
  else
  {
    Error_Handler();
 8007eee:	f7ff ff23 	bl	8007d38 <Error_Handler>
  USBD_SpeedTypeDef speed = USBD_SPEED_FULL;
 8007ef2:	2101      	movs	r1, #1
 8007ef4:	e000      	b.n	8007ef8 <HAL_PCD_ResetCallback+0x1a>
    speed = USBD_SPEED_HIGH;
 8007ef6:	2100      	movs	r1, #0
  }
    /* Set Speed. */
  USBD_LL_SetSpeed((USBD_HandleTypeDef*)hpcd->pData, speed);
 8007ef8:	f8d4 0404 	ldr.w	r0, [r4, #1028]	; 0x404
 8007efc:	f7fe fc2b 	bl	8006756 <USBD_LL_SetSpeed>

  /* Reset Device. */
  USBD_LL_Reset((USBD_HandleTypeDef*)hpcd->pData);
 8007f00:	f8d4 0404 	ldr.w	r0, [r4, #1028]	; 0x404
 8007f04:	f7fe fbfe 	bl	8006704 <USBD_LL_Reset>
}
 8007f08:	bd10      	pop	{r4, pc}
	...

08007f0c <HAL_PCD_SuspendCallback>:
#if (USE_HAL_PCD_REGISTER_CALLBACKS == 1U)
static void PCD_SuspendCallback(PCD_HandleTypeDef *hpcd)
#else
void HAL_PCD_SuspendCallback(PCD_HandleTypeDef *hpcd)
#endif /* USE_HAL_PCD_REGISTER_CALLBACKS */
{
 8007f0c:	b510      	push	{r4, lr}
 8007f0e:	4604      	mov	r4, r0
  /* Inform USB library that core enters in suspend Mode. */
  USBD_LL_Suspend((USBD_HandleTypeDef*)hpcd->pData);
 8007f10:	f8d0 0404 	ldr.w	r0, [r0, #1028]	; 0x404
 8007f14:	f7fe fc22 	bl	800675c <USBD_LL_Suspend>
  __HAL_PCD_GATE_PHYCLOCK(hpcd);
 8007f18:	6822      	ldr	r2, [r4, #0]
 8007f1a:	f8d2 3e00 	ldr.w	r3, [r2, #3584]	; 0xe00
 8007f1e:	f043 0301 	orr.w	r3, r3, #1
 8007f22:	f8c2 3e00 	str.w	r3, [r2, #3584]	; 0xe00
  /* Enter in STOP mode. */
  /* USER CODE BEGIN 2 */
  if (hpcd->Init.low_power_enable)
 8007f26:	6a23      	ldr	r3, [r4, #32]
 8007f28:	b123      	cbz	r3, 8007f34 <HAL_PCD_SuspendCallback+0x28>
  {
    /* Set SLEEPDEEP bit and SleepOnExit of Cortex System Control Register. */
    SCB->SCR |= (uint32_t)((uint32_t)(SCB_SCR_SLEEPDEEP_Msk | SCB_SCR_SLEEPONEXIT_Msk));
 8007f2a:	4a03      	ldr	r2, [pc, #12]	; (8007f38 <HAL_PCD_SuspendCallback+0x2c>)
 8007f2c:	6913      	ldr	r3, [r2, #16]
 8007f2e:	f043 0306 	orr.w	r3, r3, #6
 8007f32:	6113      	str	r3, [r2, #16]
  }
  /* USER CODE END 2 */
}
 8007f34:	bd10      	pop	{r4, pc}
 8007f36:	bf00      	nop
 8007f38:	e000ed00 	.word	0xe000ed00

08007f3c <HAL_PCD_ResumeCallback>:
#if (USE_HAL_PCD_REGISTER_CALLBACKS == 1U)
static void PCD_ResumeCallback(PCD_HandleTypeDef *hpcd)
#else
void HAL_PCD_ResumeCallback(PCD_HandleTypeDef *hpcd)
#endif /* USE_HAL_PCD_REGISTER_CALLBACKS */
{
 8007f3c:	b508      	push	{r3, lr}
  /* USER CODE BEGIN 3 */

  /* USER CODE END 3 */
  USBD_LL_Resume((USBD_HandleTypeDef*)hpcd->pData);
 8007f3e:	f8d0 0404 	ldr.w	r0, [r0, #1028]	; 0x404
 8007f42:	f7fe fc14 	bl	800676e <USBD_LL_Resume>
}
 8007f46:	bd08      	pop	{r3, pc}

08007f48 <HAL_PCD_ISOOUTIncompleteCallback>:
#if (USE_HAL_PCD_REGISTER_CALLBACKS == 1U)
static void PCD_ISOOUTIncompleteCallback(PCD_HandleTypeDef *hpcd, uint8_t epnum)
#else
void HAL_PCD_ISOOUTIncompleteCallback(PCD_HandleTypeDef *hpcd, uint8_t epnum)
#endif /* USE_HAL_PCD_REGISTER_CALLBACKS */
{
 8007f48:	b508      	push	{r3, lr}
  USBD_LL_IsoOUTIncomplete((USBD_HandleTypeDef*)hpcd->pData, epnum);
 8007f4a:	f8d0 0404 	ldr.w	r0, [r0, #1028]	; 0x404
 8007f4e:	f7fe fc29 	bl	80067a4 <USBD_LL_IsoOUTIncomplete>
}
 8007f52:	bd08      	pop	{r3, pc}

08007f54 <HAL_PCD_ISOINIncompleteCallback>:
#if (USE_HAL_PCD_REGISTER_CALLBACKS == 1U)
static void PCD_ISOINIncompleteCallback(PCD_HandleTypeDef *hpcd, uint8_t epnum)
#else
void HAL_PCD_ISOINIncompleteCallback(PCD_HandleTypeDef *hpcd, uint8_t epnum)
#endif /* USE_HAL_PCD_REGISTER_CALLBACKS */
{
 8007f54:	b508      	push	{r3, lr}
  USBD_LL_IsoINIncomplete((USBD_HandleTypeDef*)hpcd->pData, epnum);
 8007f56:	f8d0 0404 	ldr.w	r0, [r0, #1028]	; 0x404
 8007f5a:	f7fe fc21 	bl	80067a0 <USBD_LL_IsoINIncomplete>
}
 8007f5e:	bd08      	pop	{r3, pc}

08007f60 <HAL_PCD_ConnectCallback>:
#if (USE_HAL_PCD_REGISTER_CALLBACKS == 1U)
static void PCD_ConnectCallback(PCD_HandleTypeDef *hpcd)
#else
void HAL_PCD_ConnectCallback(PCD_HandleTypeDef *hpcd)
#endif /* USE_HAL_PCD_REGISTER_CALLBACKS */
{
 8007f60:	b508      	push	{r3, lr}
  USBD_LL_DevConnected((USBD_HandleTypeDef*)hpcd->pData);
 8007f62:	f8d0 0404 	ldr.w	r0, [r0, #1028]	; 0x404
 8007f66:	f7fe fc1f 	bl	80067a8 <USBD_LL_DevConnected>
}
 8007f6a:	bd08      	pop	{r3, pc}

08007f6c <HAL_PCD_DisconnectCallback>:
#if (USE_HAL_PCD_REGISTER_CALLBACKS == 1U)
static void PCD_DisconnectCallback(PCD_HandleTypeDef *hpcd)
#else
void HAL_PCD_DisconnectCallback(PCD_HandleTypeDef *hpcd)
#endif /* USE_HAL_PCD_REGISTER_CALLBACKS */
{
 8007f6c:	b508      	push	{r3, lr}
  USBD_LL_DevDisconnected((USBD_HandleTypeDef*)hpcd->pData);
 8007f6e:	f8d0 0404 	ldr.w	r0, [r0, #1028]	; 0x404
 8007f72:	f7fe fc1b 	bl	80067ac <USBD_LL_DevDisconnected>
}
 8007f76:	bd08      	pop	{r3, pc}

08007f78 <USBD_LL_Init>:
  * @retval USBD status
  */
USBD_StatusTypeDef USBD_LL_Init(USBD_HandleTypeDef *pdev)
{
  /* Init USB Ip. */
  if (pdev->id == DEVICE_HS) {
 8007f78:	7803      	ldrb	r3, [r0, #0]
 8007f7a:	2b01      	cmp	r3, #1
 8007f7c:	d001      	beq.n	8007f82 <USBD_LL_Init+0xa>
  HAL_PCDEx_SetRxFiFo(&hpcd_USB_OTG_HS, 0x200);
  HAL_PCDEx_SetTxFiFo(&hpcd_USB_OTG_HS, 0, 0x80);
  HAL_PCDEx_SetTxFiFo(&hpcd_USB_OTG_HS, 1, 0x174);
  }
  return USBD_OK;
}
 8007f7e:	2000      	movs	r0, #0
 8007f80:	4770      	bx	lr
{
 8007f82:	b510      	push	{r4, lr}
  hpcd_USB_OTG_HS.pData = pdev;
 8007f84:	4b17      	ldr	r3, [pc, #92]	; (8007fe4 <USBD_LL_Init+0x6c>)
 8007f86:	f8c3 0404 	str.w	r0, [r3, #1028]	; 0x404
  pdev->pData = &hpcd_USB_OTG_HS;
 8007f8a:	f8c0 32c4 	str.w	r3, [r0, #708]	; 0x2c4
  hpcd_USB_OTG_HS.Instance = USB_OTG_HS;
 8007f8e:	4a16      	ldr	r2, [pc, #88]	; (8007fe8 <USBD_LL_Init+0x70>)
 8007f90:	601a      	str	r2, [r3, #0]
  hpcd_USB_OTG_HS.Init.dev_endpoints = 9;
 8007f92:	2209      	movs	r2, #9
 8007f94:	605a      	str	r2, [r3, #4]
  hpcd_USB_OTG_HS.Init.speed = PCD_SPEED_FULL;
 8007f96:	2102      	movs	r1, #2
 8007f98:	60d9      	str	r1, [r3, #12]
  hpcd_USB_OTG_HS.Init.dma_enable = DISABLE;
 8007f9a:	2200      	movs	r2, #0
 8007f9c:	611a      	str	r2, [r3, #16]
  hpcd_USB_OTG_HS.Init.phy_itface = USB_OTG_EMBEDDED_PHY;
 8007f9e:	6199      	str	r1, [r3, #24]
  hpcd_USB_OTG_HS.Init.Sof_enable = DISABLE;
 8007fa0:	61da      	str	r2, [r3, #28]
  hpcd_USB_OTG_HS.Init.low_power_enable = DISABLE;
 8007fa2:	621a      	str	r2, [r3, #32]
  hpcd_USB_OTG_HS.Init.lpm_enable = DISABLE;
 8007fa4:	625a      	str	r2, [r3, #36]	; 0x24
  hpcd_USB_OTG_HS.Init.battery_charging_enable = ENABLE;
 8007fa6:	2101      	movs	r1, #1
 8007fa8:	6299      	str	r1, [r3, #40]	; 0x28
  hpcd_USB_OTG_HS.Init.vbus_sensing_enable = DISABLE;
 8007faa:	62da      	str	r2, [r3, #44]	; 0x2c
  hpcd_USB_OTG_HS.Init.use_dedicated_ep1 = DISABLE;
 8007fac:	631a      	str	r2, [r3, #48]	; 0x30
  hpcd_USB_OTG_HS.Init.use_external_vbus = DISABLE;
 8007fae:	635a      	str	r2, [r3, #52]	; 0x34
  if (HAL_PCD_Init(&hpcd_USB_OTG_HS) != HAL_OK)
 8007fb0:	4618      	mov	r0, r3
 8007fb2:	f7f9 fc22 	bl	80017fa <HAL_PCD_Init>
 8007fb6:	b990      	cbnz	r0, 8007fde <USBD_LL_Init+0x66>
  HAL_PCDEx_SetRxFiFo(&hpcd_USB_OTG_HS, 0x200);
 8007fb8:	4c0a      	ldr	r4, [pc, #40]	; (8007fe4 <USBD_LL_Init+0x6c>)
 8007fba:	f44f 7100 	mov.w	r1, #512	; 0x200
 8007fbe:	4620      	mov	r0, r4
 8007fc0:	f7fa f987 	bl	80022d2 <HAL_PCDEx_SetRxFiFo>
  HAL_PCDEx_SetTxFiFo(&hpcd_USB_OTG_HS, 0, 0x80);
 8007fc4:	2280      	movs	r2, #128	; 0x80
 8007fc6:	2100      	movs	r1, #0
 8007fc8:	4620      	mov	r0, r4
 8007fca:	f7fa f95e 	bl	800228a <HAL_PCDEx_SetTxFiFo>
  HAL_PCDEx_SetTxFiFo(&hpcd_USB_OTG_HS, 1, 0x174);
 8007fce:	f44f 72ba 	mov.w	r2, #372	; 0x174
 8007fd2:	2101      	movs	r1, #1
 8007fd4:	4620      	mov	r0, r4
 8007fd6:	f7fa f958 	bl	800228a <HAL_PCDEx_SetTxFiFo>
}
 8007fda:	2000      	movs	r0, #0
 8007fdc:	bd10      	pop	{r4, pc}
    Error_Handler( );
 8007fde:	f7ff feab 	bl	8007d38 <Error_Handler>
 8007fe2:	e7e9      	b.n	8007fb8 <USBD_LL_Init+0x40>
 8007fe4:	2000192c 	.word	0x2000192c
 8007fe8:	40040000 	.word	0x40040000

08007fec <USBD_LL_IsStallEP>:
  * @param  ep_addr: Endpoint number
  * @retval Stall (1: Yes, 0: No)
  */
uint8_t USBD_LL_IsStallEP(USBD_HandleTypeDef *pdev, uint8_t ep_addr)
{
  PCD_HandleTypeDef *hpcd = (PCD_HandleTypeDef*) pdev->pData;
 8007fec:	f8d0 32c4 	ldr.w	r3, [r0, #708]	; 0x2c4

  if((ep_addr & 0x80) == 0x80)
 8007ff0:	f011 0f80 	tst.w	r1, #128	; 0x80
 8007ff4:	d108      	bne.n	8008008 <USBD_LL_IsStallEP+0x1c>
  {
    return hpcd->IN_ep[ep_addr & 0x7F].is_stall;
  }
  else
  {
    return hpcd->OUT_ep[ep_addr & 0x7F].is_stall;
 8007ff6:	f001 017f 	and.w	r1, r1, #127	; 0x7f
 8007ffa:	ebc1 01c1 	rsb	r1, r1, r1, lsl #3
 8007ffe:	eb03 0181 	add.w	r1, r3, r1, lsl #2
 8008002:	f891 01fe 	ldrb.w	r0, [r1, #510]	; 0x1fe
  }
}
 8008006:	4770      	bx	lr
    return hpcd->IN_ep[ep_addr & 0x7F].is_stall;
 8008008:	f001 017f 	and.w	r1, r1, #127	; 0x7f
 800800c:	ebc1 01c1 	rsb	r1, r1, r1, lsl #3
 8008010:	eb03 0181 	add.w	r1, r3, r1, lsl #2
 8008014:	f891 003e 	ldrb.w	r0, [r1, #62]	; 0x3e
 8008018:	4770      	bx	lr

0800801a <USBD_LL_GetRxDataSize>:
  * @param  pdev: Device handle
  * @param  ep_addr: Endpoint number
  * @retval Recived Data Size
  */
uint32_t USBD_LL_GetRxDataSize(USBD_HandleTypeDef *pdev, uint8_t ep_addr)
{
 800801a:	b508      	push	{r3, lr}
  return HAL_PCD_EP_GetRxCount((PCD_HandleTypeDef*) pdev->pData, ep_addr);
 800801c:	f8d0 02c4 	ldr.w	r0, [r0, #708]	; 0x2c4
 8008020:	f7fa f880 	bl	8002124 <HAL_PCD_EP_GetRxCount>
}
 8008024:	bd08      	pop	{r3, pc}

08008026 <USBD_Get_USB_Status>:
  */
USBD_StatusTypeDef USBD_Get_USB_Status(HAL_StatusTypeDef hal_status)
{
  USBD_StatusTypeDef usb_status = USBD_OK;

  switch (hal_status)
 8008026:	2803      	cmp	r0, #3
 8008028:	d805      	bhi.n	8008036 <USBD_Get_USB_Status+0x10>
 800802a:	e8df f000 	tbb	[pc, r0]
 800802e:	0405      	.short	0x0405
 8008030:	0502      	.short	0x0502
    break;
    case HAL_ERROR :
      usb_status = USBD_FAIL;
    break;
    case HAL_BUSY :
      usb_status = USBD_BUSY;
 8008032:	2001      	movs	r0, #1
    break;
 8008034:	4770      	bx	lr
      usb_status = USBD_FAIL;
 8008036:	2003      	movs	r0, #3
    default :
      usb_status = USBD_FAIL;
    break;
  }
  return usb_status;
}
 8008038:	4770      	bx	lr

0800803a <USBD_LL_Start>:
{
 800803a:	b508      	push	{r3, lr}
  hal_status = HAL_PCD_Start(pdev->pData);
 800803c:	f8d0 02c4 	ldr.w	r0, [r0, #708]	; 0x2c4
 8008040:	f7f9 fc75 	bl	800192e <HAL_PCD_Start>
  usb_status =  USBD_Get_USB_Status(hal_status);
 8008044:	f7ff ffef 	bl	8008026 <USBD_Get_USB_Status>
}
 8008048:	bd08      	pop	{r3, pc}

0800804a <USBD_LL_OpenEP>:
{
 800804a:	b510      	push	{r4, lr}
 800804c:	4614      	mov	r4, r2
 800804e:	461a      	mov	r2, r3
  hal_status = HAL_PCD_EP_Open(pdev->pData, ep_addr, ep_mps, ep_type);
 8008050:	4623      	mov	r3, r4
 8008052:	f8d0 02c4 	ldr.w	r0, [r0, #708]	; 0x2c4
 8008056:	f7f9 ffba 	bl	8001fce <HAL_PCD_EP_Open>
  usb_status =  USBD_Get_USB_Status(hal_status);
 800805a:	f7ff ffe4 	bl	8008026 <USBD_Get_USB_Status>
}
 800805e:	bd10      	pop	{r4, pc}

08008060 <USBD_LL_CloseEP>:
{
 8008060:	b508      	push	{r3, lr}
  hal_status = HAL_PCD_EP_Close(pdev->pData, ep_addr);
 8008062:	f8d0 02c4 	ldr.w	r0, [r0, #708]	; 0x2c4
 8008066:	f7f9 fff5 	bl	8002054 <HAL_PCD_EP_Close>
  usb_status =  USBD_Get_USB_Status(hal_status);
 800806a:	f7ff ffdc 	bl	8008026 <USBD_Get_USB_Status>
}
 800806e:	bd08      	pop	{r3, pc}

08008070 <USBD_LL_StallEP>:
{
 8008070:	b508      	push	{r3, lr}
  hal_status = HAL_PCD_EP_SetStall(pdev->pData, ep_addr);
 8008072:	f8d0 02c4 	ldr.w	r0, [r0, #708]	; 0x2c4
 8008076:	f7fa f889 	bl	800218c <HAL_PCD_EP_SetStall>
  usb_status =  USBD_Get_USB_Status(hal_status);
 800807a:	f7ff ffd4 	bl	8008026 <USBD_Get_USB_Status>
}
 800807e:	bd08      	pop	{r3, pc}

08008080 <USBD_LL_ClearStallEP>:
{
 8008080:	b508      	push	{r3, lr}
  hal_status = HAL_PCD_EP_ClrStall(pdev->pData, ep_addr);
 8008082:	f8d0 02c4 	ldr.w	r0, [r0, #708]	; 0x2c4
 8008086:	f7fa f8c5 	bl	8002214 <HAL_PCD_EP_ClrStall>
  usb_status =  USBD_Get_USB_Status(hal_status);
 800808a:	f7ff ffcc 	bl	8008026 <USBD_Get_USB_Status>
}
 800808e:	bd08      	pop	{r3, pc}

08008090 <USBD_LL_SetUSBAddress>:
{
 8008090:	b508      	push	{r3, lr}
  hal_status = HAL_PCD_SetAddress(pdev->pData, dev_addr);
 8008092:	f8d0 02c4 	ldr.w	r0, [r0, #708]	; 0x2c4
 8008096:	f7f9 ff86 	bl	8001fa6 <HAL_PCD_SetAddress>
  usb_status =  USBD_Get_USB_Status(hal_status);
 800809a:	f7ff ffc4 	bl	8008026 <USBD_Get_USB_Status>
}
 800809e:	bd08      	pop	{r3, pc}

080080a0 <USBD_LL_Transmit>:
{
 80080a0:	b508      	push	{r3, lr}
  hal_status = HAL_PCD_EP_Transmit(pdev->pData, ep_addr, pbuf, size);
 80080a2:	f8d0 02c4 	ldr.w	r0, [r0, #708]	; 0x2c4
 80080a6:	f7fa f846 	bl	8002136 <HAL_PCD_EP_Transmit>
  usb_status =  USBD_Get_USB_Status(hal_status);
 80080aa:	f7ff ffbc 	bl	8008026 <USBD_Get_USB_Status>
}
 80080ae:	bd08      	pop	{r3, pc}

080080b0 <USBD_LL_PrepareReceive>:
{
 80080b0:	b508      	push	{r3, lr}
  hal_status = HAL_PCD_EP_Receive(pdev->pData, ep_addr, pbuf, size);
 80080b2:	f8d0 02c4 	ldr.w	r0, [r0, #708]	; 0x2c4
 80080b6:	f7fa f806 	bl	80020c6 <HAL_PCD_EP_Receive>
  usb_status =  USBD_Get_USB_Status(hal_status);
 80080ba:	f7ff ffb4 	bl	8008026 <USBD_Get_USB_Status>
}
 80080be:	bd08      	pop	{r3, pc}

080080c0 <USBD_HS_DeviceDescriptor>:
  * @retval Pointer to descriptor buffer
  */
uint8_t * USBD_HS_DeviceDescriptor(USBD_SpeedTypeDef speed, uint16_t *length)
{
  UNUSED(speed);
  *length = sizeof(USBD_HS_DeviceDesc);
 80080c0:	2312      	movs	r3, #18
 80080c2:	800b      	strh	r3, [r1, #0]
  return USBD_HS_DeviceDesc;
}
 80080c4:	4800      	ldr	r0, [pc, #0]	; (80080c8 <USBD_HS_DeviceDescriptor+0x8>)
 80080c6:	4770      	bx	lr
 80080c8:	20000134 	.word	0x20000134

080080cc <USBD_HS_LangIDStrDescriptor>:
  * @retval Pointer to descriptor buffer
  */
uint8_t * USBD_HS_LangIDStrDescriptor(USBD_SpeedTypeDef speed, uint16_t *length)
{
  UNUSED(speed);
  *length = sizeof(USBD_LangIDDesc);
 80080cc:	2304      	movs	r3, #4
 80080ce:	800b      	strh	r3, [r1, #0]
  return USBD_LangIDDesc;
}
 80080d0:	4800      	ldr	r0, [pc, #0]	; (80080d4 <USBD_HS_LangIDStrDescriptor+0x8>)
 80080d2:	4770      	bx	lr
 80080d4:	20000148 	.word	0x20000148

080080d8 <IntToUnicode>:
  */
static void IntToUnicode(uint32_t value, uint8_t * pbuf, uint8_t len)
{
  uint8_t idx = 0;

  for (idx = 0; idx < len; idx++)
 80080d8:	2300      	movs	r3, #0
 80080da:	4293      	cmp	r3, r2
 80080dc:	d217      	bcs.n	800810e <IntToUnicode+0x36>
{
 80080de:	b430      	push	{r4, r5}
 80080e0:	e00b      	b.n	80080fa <IntToUnicode+0x22>
    {
      pbuf[2 * idx] = (value >> 28) + '0';
    }
    else
    {
      pbuf[2 * idx] = (value >> 28) + 'A' - 10;
 80080e2:	3437      	adds	r4, #55	; 0x37
 80080e4:	f801 4013 	strb.w	r4, [r1, r3, lsl #1]
    }

    value = value << 4;
 80080e8:	0100      	lsls	r0, r0, #4

    pbuf[2 * idx + 1] = 0;
 80080ea:	005c      	lsls	r4, r3, #1
 80080ec:	3401      	adds	r4, #1
 80080ee:	2500      	movs	r5, #0
 80080f0:	550d      	strb	r5, [r1, r4]
  for (idx = 0; idx < len; idx++)
 80080f2:	3301      	adds	r3, #1
 80080f4:	b2db      	uxtb	r3, r3
 80080f6:	4293      	cmp	r3, r2
 80080f8:	d207      	bcs.n	800810a <IntToUnicode+0x32>
    if (((value >> 28)) < 0xA)
 80080fa:	0f04      	lsrs	r4, r0, #28
 80080fc:	f1b0 4f20 	cmp.w	r0, #2684354560	; 0xa0000000
 8008100:	d2ef      	bcs.n	80080e2 <IntToUnicode+0xa>
      pbuf[2 * idx] = (value >> 28) + '0';
 8008102:	3430      	adds	r4, #48	; 0x30
 8008104:	f801 4013 	strb.w	r4, [r1, r3, lsl #1]
 8008108:	e7ee      	b.n	80080e8 <IntToUnicode+0x10>
  }
}
 800810a:	bc30      	pop	{r4, r5}
 800810c:	4770      	bx	lr
 800810e:	4770      	bx	lr

08008110 <Get_SerialNum>:
{
 8008110:	b538      	push	{r3, r4, r5, lr}
  deviceserial0 = *(uint32_t *) DEVICE_ID1;
 8008112:	4b0b      	ldr	r3, [pc, #44]	; (8008140 <Get_SerialNum+0x30>)
 8008114:	6818      	ldr	r0, [r3, #0]
  deviceserial1 = *(uint32_t *) DEVICE_ID2;
 8008116:	3304      	adds	r3, #4
 8008118:	681c      	ldr	r4, [r3, #0]
  deviceserial2 = *(uint32_t *) DEVICE_ID3;
 800811a:	3304      	adds	r3, #4
 800811c:	681b      	ldr	r3, [r3, #0]
  if (deviceserial0 != 0)
 800811e:	18c0      	adds	r0, r0, r3
 8008120:	d100      	bne.n	8008124 <Get_SerialNum+0x14>
}
 8008122:	bd38      	pop	{r3, r4, r5, pc}
    IntToUnicode(deviceserial0, &USBD_StringSerial[2], 8);
 8008124:	4d07      	ldr	r5, [pc, #28]	; (8008144 <Get_SerialNum+0x34>)
 8008126:	2208      	movs	r2, #8
 8008128:	f105 011a 	add.w	r1, r5, #26
 800812c:	f7ff ffd4 	bl	80080d8 <IntToUnicode>
    IntToUnicode(deviceserial1, &USBD_StringSerial[18], 4);
 8008130:	2204      	movs	r2, #4
 8008132:	f105 012a 	add.w	r1, r5, #42	; 0x2a
 8008136:	4620      	mov	r0, r4
 8008138:	f7ff ffce 	bl	80080d8 <IntToUnicode>
}
 800813c:	e7f1      	b.n	8008122 <Get_SerialNum+0x12>
 800813e:	bf00      	nop
 8008140:	1ff1e800 	.word	0x1ff1e800
 8008144:	20000134 	.word	0x20000134

08008148 <USBD_HS_SerialStrDescriptor>:
{
 8008148:	b508      	push	{r3, lr}
  *length = USB_SIZ_STRING_SERIAL;
 800814a:	231a      	movs	r3, #26
 800814c:	800b      	strh	r3, [r1, #0]
  Get_SerialNum();
 800814e:	f7ff ffdf 	bl	8008110 <Get_SerialNum>
}
 8008152:	4801      	ldr	r0, [pc, #4]	; (8008158 <USBD_HS_SerialStrDescriptor+0x10>)
 8008154:	bd08      	pop	{r3, pc}
 8008156:	bf00      	nop
 8008158:	2000014c 	.word	0x2000014c

0800815c <USBD_HS_ProductStrDescriptor>:
{
 800815c:	b508      	push	{r3, lr}
 800815e:	460a      	mov	r2, r1
  if(speed == 0)
 8008160:	b928      	cbnz	r0, 800816e <USBD_HS_ProductStrDescriptor+0x12>
    USBD_GetString((uint8_t *)USBD_PRODUCT_STRING_HS, USBD_StrDesc, length);
 8008162:	4905      	ldr	r1, [pc, #20]	; (8008178 <USBD_HS_ProductStrDescriptor+0x1c>)
 8008164:	4805      	ldr	r0, [pc, #20]	; (800817c <USBD_HS_ProductStrDescriptor+0x20>)
 8008166:	f7fe fe70 	bl	8006e4a <USBD_GetString>
}
 800816a:	4803      	ldr	r0, [pc, #12]	; (8008178 <USBD_HS_ProductStrDescriptor+0x1c>)
 800816c:	bd08      	pop	{r3, pc}
    USBD_GetString((uint8_t *)USBD_PRODUCT_STRING_HS, USBD_StrDesc, length);
 800816e:	4902      	ldr	r1, [pc, #8]	; (8008178 <USBD_HS_ProductStrDescriptor+0x1c>)
 8008170:	4802      	ldr	r0, [pc, #8]	; (800817c <USBD_HS_ProductStrDescriptor+0x20>)
 8008172:	f7fe fe6a 	bl	8006e4a <USBD_GetString>
 8008176:	e7f8      	b.n	800816a <USBD_HS_ProductStrDescriptor+0xe>
 8008178:	20001d34 	.word	0x20001d34
 800817c:	08009328 	.word	0x08009328

08008180 <USBD_HS_ManufacturerStrDescriptor>:
{
 8008180:	b510      	push	{r4, lr}
 8008182:	460a      	mov	r2, r1
  USBD_GetString((uint8_t *)USBD_MANUFACTURER_STRING, USBD_StrDesc, length);
 8008184:	4c03      	ldr	r4, [pc, #12]	; (8008194 <USBD_HS_ManufacturerStrDescriptor+0x14>)
 8008186:	4621      	mov	r1, r4
 8008188:	4803      	ldr	r0, [pc, #12]	; (8008198 <USBD_HS_ManufacturerStrDescriptor+0x18>)
 800818a:	f7fe fe5e 	bl	8006e4a <USBD_GetString>
}
 800818e:	4620      	mov	r0, r4
 8008190:	bd10      	pop	{r4, pc}
 8008192:	bf00      	nop
 8008194:	20001d34 	.word	0x20001d34
 8008198:	08009340 	.word	0x08009340

0800819c <USBD_HS_ConfigStrDescriptor>:
{
 800819c:	b508      	push	{r3, lr}
 800819e:	460a      	mov	r2, r1
  if(speed == USBD_SPEED_HIGH)
 80081a0:	b928      	cbnz	r0, 80081ae <USBD_HS_ConfigStrDescriptor+0x12>
    USBD_GetString((uint8_t *)USBD_CONFIGURATION_STRING_HS, USBD_StrDesc, length);
 80081a2:	4905      	ldr	r1, [pc, #20]	; (80081b8 <USBD_HS_ConfigStrDescriptor+0x1c>)
 80081a4:	4805      	ldr	r0, [pc, #20]	; (80081bc <USBD_HS_ConfigStrDescriptor+0x20>)
 80081a6:	f7fe fe50 	bl	8006e4a <USBD_GetString>
}
 80081aa:	4803      	ldr	r0, [pc, #12]	; (80081b8 <USBD_HS_ConfigStrDescriptor+0x1c>)
 80081ac:	bd08      	pop	{r3, pc}
    USBD_GetString((uint8_t *)USBD_CONFIGURATION_STRING_HS, USBD_StrDesc, length);
 80081ae:	4902      	ldr	r1, [pc, #8]	; (80081b8 <USBD_HS_ConfigStrDescriptor+0x1c>)
 80081b0:	4802      	ldr	r0, [pc, #8]	; (80081bc <USBD_HS_ConfigStrDescriptor+0x20>)
 80081b2:	f7fe fe4a 	bl	8006e4a <USBD_GetString>
 80081b6:	e7f8      	b.n	80081aa <USBD_HS_ConfigStrDescriptor+0xe>
 80081b8:	20001d34 	.word	0x20001d34
 80081bc:	08009354 	.word	0x08009354

080081c0 <USBD_HS_InterfaceStrDescriptor>:
{
 80081c0:	b508      	push	{r3, lr}
 80081c2:	460a      	mov	r2, r1
  if(speed == 0)
 80081c4:	b928      	cbnz	r0, 80081d2 <USBD_HS_InterfaceStrDescriptor+0x12>
    USBD_GetString((uint8_t *)USBD_INTERFACE_STRING_HS, USBD_StrDesc, length);
 80081c6:	4905      	ldr	r1, [pc, #20]	; (80081dc <USBD_HS_InterfaceStrDescriptor+0x1c>)
 80081c8:	4805      	ldr	r0, [pc, #20]	; (80081e0 <USBD_HS_InterfaceStrDescriptor+0x20>)
 80081ca:	f7fe fe3e 	bl	8006e4a <USBD_GetString>
}
 80081ce:	4803      	ldr	r0, [pc, #12]	; (80081dc <USBD_HS_InterfaceStrDescriptor+0x1c>)
 80081d0:	bd08      	pop	{r3, pc}
    USBD_GetString((uint8_t *)USBD_INTERFACE_STRING_HS, USBD_StrDesc, length);
 80081d2:	4902      	ldr	r1, [pc, #8]	; (80081dc <USBD_HS_InterfaceStrDescriptor+0x1c>)
 80081d4:	4802      	ldr	r0, [pc, #8]	; (80081e0 <USBD_HS_InterfaceStrDescriptor+0x20>)
 80081d6:	f7fe fe38 	bl	8006e4a <USBD_GetString>
 80081da:	e7f8      	b.n	80081ce <USBD_HS_InterfaceStrDescriptor+0xe>
 80081dc:	20001d34 	.word	0x20001d34
 80081e0:	08009360 	.word	0x08009360

080081e4 <Reset_Handler>:

    .section  .text.Reset_Handler
  .weak  Reset_Handler
  .type  Reset_Handler, %function
Reset_Handler:  
  ldr   sp, =_estack      /* set stack pointer */
 80081e4:	f8df d034 	ldr.w	sp, [pc, #52]	; 800821c <LoopFillZerobss+0x14>

/* Copy the data segment initializers from flash to SRAM */  
  movs  r1, #0
 80081e8:	2100      	movs	r1, #0
  b  LoopCopyDataInit
 80081ea:	e003      	b.n	80081f4 <LoopCopyDataInit>

080081ec <CopyDataInit>:

CopyDataInit:
  ldr  r3, =_sidata
 80081ec:	4b0c      	ldr	r3, [pc, #48]	; (8008220 <LoopFillZerobss+0x18>)
  ldr  r3, [r3, r1]
 80081ee:	585b      	ldr	r3, [r3, r1]
  str  r3, [r0, r1]
 80081f0:	5043      	str	r3, [r0, r1]
  adds  r1, r1, #4
 80081f2:	3104      	adds	r1, #4

080081f4 <LoopCopyDataInit>:
    
LoopCopyDataInit:
  ldr  r0, =_sdata
 80081f4:	480b      	ldr	r0, [pc, #44]	; (8008224 <LoopFillZerobss+0x1c>)
  ldr  r3, =_edata
 80081f6:	4b0c      	ldr	r3, [pc, #48]	; (8008228 <LoopFillZerobss+0x20>)
  adds  r2, r0, r1
 80081f8:	1842      	adds	r2, r0, r1
  cmp  r2, r3
 80081fa:	429a      	cmp	r2, r3
  bcc  CopyDataInit
 80081fc:	d3f6      	bcc.n	80081ec <CopyDataInit>
  ldr  r2, =_sbss
 80081fe:	4a0b      	ldr	r2, [pc, #44]	; (800822c <LoopFillZerobss+0x24>)
  b  LoopFillZerobss
 8008200:	e002      	b.n	8008208 <LoopFillZerobss>

08008202 <FillZerobss>:
/* Zero fill the bss segment. */  
FillZerobss:
  movs  r3, #0
 8008202:	2300      	movs	r3, #0
  str  r3, [r2], #4
 8008204:	f842 3b04 	str.w	r3, [r2], #4

08008208 <LoopFillZerobss>:
    
LoopFillZerobss:
  ldr  r3, = _ebss
 8008208:	4b09      	ldr	r3, [pc, #36]	; (8008230 <LoopFillZerobss+0x28>)
  cmp  r2, r3
 800820a:	429a      	cmp	r2, r3
  bcc  FillZerobss
 800820c:	d3f9      	bcc.n	8008202 <FillZerobss>

/* Call the clock system intitialization function.*/
  bl  SystemInit   
 800820e:	f7ff fd55 	bl	8007cbc <SystemInit>
/* Call static constructors */
    bl __libc_init_array
 8008212:	f000 f817 	bl	8008244 <__libc_init_array>
/* Call the application's entry point.*/
  bl  main
 8008216:	f7ff fb0d 	bl	8007834 <main>
  bx  lr    
 800821a:	4770      	bx	lr
  ldr   sp, =_estack      /* set stack pointer */
 800821c:	20020000 	.word	0x20020000
  ldr  r3, =_sidata
 8008220:	08009420 	.word	0x08009420
  ldr  r0, =_sdata
 8008224:	20000000 	.word	0x20000000
  ldr  r3, =_edata
 8008228:	200001e8 	.word	0x200001e8
  ldr  r2, =_sbss
 800822c:	200001e8 	.word	0x200001e8
  ldr  r3, = _ebss
 8008230:	20001f44 	.word	0x20001f44

08008234 <ADC3_IRQHandler>:
 * @retval None       
*/
    .section  .text.Default_Handler,"ax",%progbits
Default_Handler:
Infinite_Loop:
  b  Infinite_Loop
 8008234:	e7fe      	b.n	8008234 <ADC3_IRQHandler>
	...

08008238 <__errno>:
 8008238:	4b01      	ldr	r3, [pc, #4]	; (8008240 <__errno+0x8>)
 800823a:	6818      	ldr	r0, [r3, #0]
 800823c:	4770      	bx	lr
 800823e:	bf00      	nop
 8008240:	20000184 	.word	0x20000184

08008244 <__libc_init_array>:
 8008244:	b570      	push	{r4, r5, r6, lr}
 8008246:	4d0d      	ldr	r5, [pc, #52]	; (800827c <__libc_init_array+0x38>)
 8008248:	4c0d      	ldr	r4, [pc, #52]	; (8008280 <__libc_init_array+0x3c>)
 800824a:	1b64      	subs	r4, r4, r5
 800824c:	10a4      	asrs	r4, r4, #2
 800824e:	2600      	movs	r6, #0
 8008250:	42a6      	cmp	r6, r4
 8008252:	d109      	bne.n	8008268 <__libc_init_array+0x24>
 8008254:	4d0b      	ldr	r5, [pc, #44]	; (8008284 <__libc_init_array+0x40>)
 8008256:	4c0c      	ldr	r4, [pc, #48]	; (8008288 <__libc_init_array+0x44>)
 8008258:	f000 fff2 	bl	8009240 <_init>
 800825c:	1b64      	subs	r4, r4, r5
 800825e:	10a4      	asrs	r4, r4, #2
 8008260:	2600      	movs	r6, #0
 8008262:	42a6      	cmp	r6, r4
 8008264:	d105      	bne.n	8008272 <__libc_init_array+0x2e>
 8008266:	bd70      	pop	{r4, r5, r6, pc}
 8008268:	f855 3b04 	ldr.w	r3, [r5], #4
 800826c:	4798      	blx	r3
 800826e:	3601      	adds	r6, #1
 8008270:	e7ee      	b.n	8008250 <__libc_init_array+0xc>
 8008272:	f855 3b04 	ldr.w	r3, [r5], #4
 8008276:	4798      	blx	r3
 8008278:	3601      	adds	r6, #1
 800827a:	e7f2      	b.n	8008262 <__libc_init_array+0x1e>
 800827c:	08009410 	.word	0x08009410
 8008280:	08009410 	.word	0x08009410
 8008284:	08009410 	.word	0x08009410
 8008288:	08009418 	.word	0x08009418

0800828c <malloc>:
 800828c:	4b02      	ldr	r3, [pc, #8]	; (8008298 <malloc+0xc>)
 800828e:	4601      	mov	r1, r0
 8008290:	6818      	ldr	r0, [r3, #0]
 8008292:	f000 b871 	b.w	8008378 <_malloc_r>
 8008296:	bf00      	nop
 8008298:	20000184 	.word	0x20000184

0800829c <free>:
 800829c:	4b02      	ldr	r3, [pc, #8]	; (80082a8 <free+0xc>)
 800829e:	4601      	mov	r1, r0
 80082a0:	6818      	ldr	r0, [r3, #0]
 80082a2:	f000 b819 	b.w	80082d8 <_free_r>
 80082a6:	bf00      	nop
 80082a8:	20000184 	.word	0x20000184

080082ac <memcpy>:
 80082ac:	440a      	add	r2, r1
 80082ae:	4291      	cmp	r1, r2
 80082b0:	f100 33ff 	add.w	r3, r0, #4294967295
 80082b4:	d100      	bne.n	80082b8 <memcpy+0xc>
 80082b6:	4770      	bx	lr
 80082b8:	b510      	push	{r4, lr}
 80082ba:	f811 4b01 	ldrb.w	r4, [r1], #1
 80082be:	f803 4f01 	strb.w	r4, [r3, #1]!
 80082c2:	4291      	cmp	r1, r2
 80082c4:	d1f9      	bne.n	80082ba <memcpy+0xe>
 80082c6:	bd10      	pop	{r4, pc}

080082c8 <memset>:
 80082c8:	4402      	add	r2, r0
 80082ca:	4603      	mov	r3, r0
 80082cc:	4293      	cmp	r3, r2
 80082ce:	d100      	bne.n	80082d2 <memset+0xa>
 80082d0:	4770      	bx	lr
 80082d2:	f803 1b01 	strb.w	r1, [r3], #1
 80082d6:	e7f9      	b.n	80082cc <memset+0x4>

080082d8 <_free_r>:
 80082d8:	b537      	push	{r0, r1, r2, r4, r5, lr}
 80082da:	2900      	cmp	r1, #0
 80082dc:	d048      	beq.n	8008370 <_free_r+0x98>
 80082de:	f851 3c04 	ldr.w	r3, [r1, #-4]
 80082e2:	9001      	str	r0, [sp, #4]
 80082e4:	2b00      	cmp	r3, #0
 80082e6:	f1a1 0404 	sub.w	r4, r1, #4
 80082ea:	bfb8      	it	lt
 80082ec:	18e4      	addlt	r4, r4, r3
 80082ee:	f000 f9d3 	bl	8008698 <__malloc_lock>
 80082f2:	4a20      	ldr	r2, [pc, #128]	; (8008374 <_free_r+0x9c>)
 80082f4:	9801      	ldr	r0, [sp, #4]
 80082f6:	6813      	ldr	r3, [r2, #0]
 80082f8:	4615      	mov	r5, r2
 80082fa:	b933      	cbnz	r3, 800830a <_free_r+0x32>
 80082fc:	6063      	str	r3, [r4, #4]
 80082fe:	6014      	str	r4, [r2, #0]
 8008300:	b003      	add	sp, #12
 8008302:	e8bd 4030 	ldmia.w	sp!, {r4, r5, lr}
 8008306:	f000 b9cd 	b.w	80086a4 <__malloc_unlock>
 800830a:	42a3      	cmp	r3, r4
 800830c:	d90b      	bls.n	8008326 <_free_r+0x4e>
 800830e:	6821      	ldr	r1, [r4, #0]
 8008310:	1862      	adds	r2, r4, r1
 8008312:	4293      	cmp	r3, r2
 8008314:	bf04      	itt	eq
 8008316:	681a      	ldreq	r2, [r3, #0]
 8008318:	685b      	ldreq	r3, [r3, #4]
 800831a:	6063      	str	r3, [r4, #4]
 800831c:	bf04      	itt	eq
 800831e:	1852      	addeq	r2, r2, r1
 8008320:	6022      	streq	r2, [r4, #0]
 8008322:	602c      	str	r4, [r5, #0]
 8008324:	e7ec      	b.n	8008300 <_free_r+0x28>
 8008326:	461a      	mov	r2, r3
 8008328:	685b      	ldr	r3, [r3, #4]
 800832a:	b10b      	cbz	r3, 8008330 <_free_r+0x58>
 800832c:	42a3      	cmp	r3, r4
 800832e:	d9fa      	bls.n	8008326 <_free_r+0x4e>
 8008330:	6811      	ldr	r1, [r2, #0]
 8008332:	1855      	adds	r5, r2, r1
 8008334:	42a5      	cmp	r5, r4
 8008336:	d10b      	bne.n	8008350 <_free_r+0x78>
 8008338:	6824      	ldr	r4, [r4, #0]
 800833a:	4421      	add	r1, r4
 800833c:	1854      	adds	r4, r2, r1
 800833e:	42a3      	cmp	r3, r4
 8008340:	6011      	str	r1, [r2, #0]
 8008342:	d1dd      	bne.n	8008300 <_free_r+0x28>
 8008344:	681c      	ldr	r4, [r3, #0]
 8008346:	685b      	ldr	r3, [r3, #4]
 8008348:	6053      	str	r3, [r2, #4]
 800834a:	4421      	add	r1, r4
 800834c:	6011      	str	r1, [r2, #0]
 800834e:	e7d7      	b.n	8008300 <_free_r+0x28>
 8008350:	d902      	bls.n	8008358 <_free_r+0x80>
 8008352:	230c      	movs	r3, #12
 8008354:	6003      	str	r3, [r0, #0]
 8008356:	e7d3      	b.n	8008300 <_free_r+0x28>
 8008358:	6825      	ldr	r5, [r4, #0]
 800835a:	1961      	adds	r1, r4, r5
 800835c:	428b      	cmp	r3, r1
 800835e:	bf04      	itt	eq
 8008360:	6819      	ldreq	r1, [r3, #0]
 8008362:	685b      	ldreq	r3, [r3, #4]
 8008364:	6063      	str	r3, [r4, #4]
 8008366:	bf04      	itt	eq
 8008368:	1949      	addeq	r1, r1, r5
 800836a:	6021      	streq	r1, [r4, #0]
 800836c:	6054      	str	r4, [r2, #4]
 800836e:	e7c7      	b.n	8008300 <_free_r+0x28>
 8008370:	b003      	add	sp, #12
 8008372:	bd30      	pop	{r4, r5, pc}
 8008374:	20000604 	.word	0x20000604

08008378 <_malloc_r>:
 8008378:	b5f8      	push	{r3, r4, r5, r6, r7, lr}
 800837a:	1ccd      	adds	r5, r1, #3
 800837c:	f025 0503 	bic.w	r5, r5, #3
 8008380:	3508      	adds	r5, #8
 8008382:	2d0c      	cmp	r5, #12
 8008384:	bf38      	it	cc
 8008386:	250c      	movcc	r5, #12
 8008388:	2d00      	cmp	r5, #0
 800838a:	4606      	mov	r6, r0
 800838c:	db01      	blt.n	8008392 <_malloc_r+0x1a>
 800838e:	42a9      	cmp	r1, r5
 8008390:	d903      	bls.n	800839a <_malloc_r+0x22>
 8008392:	230c      	movs	r3, #12
 8008394:	6033      	str	r3, [r6, #0]
 8008396:	2000      	movs	r0, #0
 8008398:	bdf8      	pop	{r3, r4, r5, r6, r7, pc}
 800839a:	f000 f97d 	bl	8008698 <__malloc_lock>
 800839e:	4921      	ldr	r1, [pc, #132]	; (8008424 <_malloc_r+0xac>)
 80083a0:	680a      	ldr	r2, [r1, #0]
 80083a2:	4614      	mov	r4, r2
 80083a4:	b99c      	cbnz	r4, 80083ce <_malloc_r+0x56>
 80083a6:	4f20      	ldr	r7, [pc, #128]	; (8008428 <_malloc_r+0xb0>)
 80083a8:	683b      	ldr	r3, [r7, #0]
 80083aa:	b923      	cbnz	r3, 80083b6 <_malloc_r+0x3e>
 80083ac:	4621      	mov	r1, r4
 80083ae:	4630      	mov	r0, r6
 80083b0:	f000 f86a 	bl	8008488 <_sbrk_r>
 80083b4:	6038      	str	r0, [r7, #0]
 80083b6:	4629      	mov	r1, r5
 80083b8:	4630      	mov	r0, r6
 80083ba:	f000 f865 	bl	8008488 <_sbrk_r>
 80083be:	1c43      	adds	r3, r0, #1
 80083c0:	d123      	bne.n	800840a <_malloc_r+0x92>
 80083c2:	230c      	movs	r3, #12
 80083c4:	6033      	str	r3, [r6, #0]
 80083c6:	4630      	mov	r0, r6
 80083c8:	f000 f96c 	bl	80086a4 <__malloc_unlock>
 80083cc:	e7e3      	b.n	8008396 <_malloc_r+0x1e>
 80083ce:	6823      	ldr	r3, [r4, #0]
 80083d0:	1b5b      	subs	r3, r3, r5
 80083d2:	d417      	bmi.n	8008404 <_malloc_r+0x8c>
 80083d4:	2b0b      	cmp	r3, #11
 80083d6:	d903      	bls.n	80083e0 <_malloc_r+0x68>
 80083d8:	6023      	str	r3, [r4, #0]
 80083da:	441c      	add	r4, r3
 80083dc:	6025      	str	r5, [r4, #0]
 80083de:	e004      	b.n	80083ea <_malloc_r+0x72>
 80083e0:	6863      	ldr	r3, [r4, #4]
 80083e2:	42a2      	cmp	r2, r4
 80083e4:	bf0c      	ite	eq
 80083e6:	600b      	streq	r3, [r1, #0]
 80083e8:	6053      	strne	r3, [r2, #4]
 80083ea:	4630      	mov	r0, r6
 80083ec:	f000 f95a 	bl	80086a4 <__malloc_unlock>
 80083f0:	f104 000b 	add.w	r0, r4, #11
 80083f4:	1d23      	adds	r3, r4, #4
 80083f6:	f020 0007 	bic.w	r0, r0, #7
 80083fa:	1ac2      	subs	r2, r0, r3
 80083fc:	d0cc      	beq.n	8008398 <_malloc_r+0x20>
 80083fe:	1a1b      	subs	r3, r3, r0
 8008400:	50a3      	str	r3, [r4, r2]
 8008402:	e7c9      	b.n	8008398 <_malloc_r+0x20>
 8008404:	4622      	mov	r2, r4
 8008406:	6864      	ldr	r4, [r4, #4]
 8008408:	e7cc      	b.n	80083a4 <_malloc_r+0x2c>
 800840a:	1cc4      	adds	r4, r0, #3
 800840c:	f024 0403 	bic.w	r4, r4, #3
 8008410:	42a0      	cmp	r0, r4
 8008412:	d0e3      	beq.n	80083dc <_malloc_r+0x64>
 8008414:	1a21      	subs	r1, r4, r0
 8008416:	4630      	mov	r0, r6
 8008418:	f000 f836 	bl	8008488 <_sbrk_r>
 800841c:	3001      	adds	r0, #1
 800841e:	d1dd      	bne.n	80083dc <_malloc_r+0x64>
 8008420:	e7cf      	b.n	80083c2 <_malloc_r+0x4a>
 8008422:	bf00      	nop
 8008424:	20000604 	.word	0x20000604
 8008428:	20000608 	.word	0x20000608

0800842c <iprintf>:
 800842c:	b40f      	push	{r0, r1, r2, r3}
 800842e:	4b0a      	ldr	r3, [pc, #40]	; (8008458 <iprintf+0x2c>)
 8008430:	b513      	push	{r0, r1, r4, lr}
 8008432:	681c      	ldr	r4, [r3, #0]
 8008434:	b124      	cbz	r4, 8008440 <iprintf+0x14>
 8008436:	69a3      	ldr	r3, [r4, #24]
 8008438:	b913      	cbnz	r3, 8008440 <iprintf+0x14>
 800843a:	4620      	mov	r0, r4
 800843c:	f000 f88c 	bl	8008558 <__sinit>
 8008440:	ab05      	add	r3, sp, #20
 8008442:	9a04      	ldr	r2, [sp, #16]
 8008444:	68a1      	ldr	r1, [r4, #8]
 8008446:	9301      	str	r3, [sp, #4]
 8008448:	4620      	mov	r0, r4
 800844a:	f000 f95b 	bl	8008704 <_vfiprintf_r>
 800844e:	b002      	add	sp, #8
 8008450:	e8bd 4010 	ldmia.w	sp!, {r4, lr}
 8008454:	b004      	add	sp, #16
 8008456:	4770      	bx	lr
 8008458:	20000184 	.word	0x20000184

0800845c <putchar>:
 800845c:	4b09      	ldr	r3, [pc, #36]	; (8008484 <putchar+0x28>)
 800845e:	b513      	push	{r0, r1, r4, lr}
 8008460:	681c      	ldr	r4, [r3, #0]
 8008462:	4601      	mov	r1, r0
 8008464:	b134      	cbz	r4, 8008474 <putchar+0x18>
 8008466:	69a3      	ldr	r3, [r4, #24]
 8008468:	b923      	cbnz	r3, 8008474 <putchar+0x18>
 800846a:	9001      	str	r0, [sp, #4]
 800846c:	4620      	mov	r0, r4
 800846e:	f000 f873 	bl	8008558 <__sinit>
 8008472:	9901      	ldr	r1, [sp, #4]
 8008474:	68a2      	ldr	r2, [r4, #8]
 8008476:	4620      	mov	r0, r4
 8008478:	b002      	add	sp, #8
 800847a:	e8bd 4010 	ldmia.w	sp!, {r4, lr}
 800847e:	f000 bc05 	b.w	8008c8c <_putc_r>
 8008482:	bf00      	nop
 8008484:	20000184 	.word	0x20000184

08008488 <_sbrk_r>:
 8008488:	b538      	push	{r3, r4, r5, lr}
 800848a:	4d06      	ldr	r5, [pc, #24]	; (80084a4 <_sbrk_r+0x1c>)
 800848c:	2300      	movs	r3, #0
 800848e:	4604      	mov	r4, r0
 8008490:	4608      	mov	r0, r1
 8008492:	602b      	str	r3, [r5, #0]
 8008494:	f7ff fbe8 	bl	8007c68 <_sbrk>
 8008498:	1c43      	adds	r3, r0, #1
 800849a:	d102      	bne.n	80084a2 <_sbrk_r+0x1a>
 800849c:	682b      	ldr	r3, [r5, #0]
 800849e:	b103      	cbz	r3, 80084a2 <_sbrk_r+0x1a>
 80084a0:	6023      	str	r3, [r4, #0]
 80084a2:	bd38      	pop	{r3, r4, r5, pc}
 80084a4:	20001f40 	.word	0x20001f40

080084a8 <std>:
 80084a8:	2300      	movs	r3, #0
 80084aa:	b510      	push	{r4, lr}
 80084ac:	4604      	mov	r4, r0
 80084ae:	e9c0 3300 	strd	r3, r3, [r0]
 80084b2:	e9c0 3304 	strd	r3, r3, [r0, #16]
 80084b6:	6083      	str	r3, [r0, #8]
 80084b8:	8181      	strh	r1, [r0, #12]
 80084ba:	6643      	str	r3, [r0, #100]	; 0x64
 80084bc:	81c2      	strh	r2, [r0, #14]
 80084be:	6183      	str	r3, [r0, #24]
 80084c0:	4619      	mov	r1, r3
 80084c2:	2208      	movs	r2, #8
 80084c4:	305c      	adds	r0, #92	; 0x5c
 80084c6:	f7ff feff 	bl	80082c8 <memset>
 80084ca:	4b05      	ldr	r3, [pc, #20]	; (80084e0 <std+0x38>)
 80084cc:	6263      	str	r3, [r4, #36]	; 0x24
 80084ce:	4b05      	ldr	r3, [pc, #20]	; (80084e4 <std+0x3c>)
 80084d0:	62a3      	str	r3, [r4, #40]	; 0x28
 80084d2:	4b05      	ldr	r3, [pc, #20]	; (80084e8 <std+0x40>)
 80084d4:	62e3      	str	r3, [r4, #44]	; 0x2c
 80084d6:	4b05      	ldr	r3, [pc, #20]	; (80084ec <std+0x44>)
 80084d8:	6224      	str	r4, [r4, #32]
 80084da:	6323      	str	r3, [r4, #48]	; 0x30
 80084dc:	bd10      	pop	{r4, pc}
 80084de:	bf00      	nop
 80084e0:	08008d1d 	.word	0x08008d1d
 80084e4:	08008d3f 	.word	0x08008d3f
 80084e8:	08008d77 	.word	0x08008d77
 80084ec:	08008d9b 	.word	0x08008d9b

080084f0 <_cleanup_r>:
 80084f0:	4901      	ldr	r1, [pc, #4]	; (80084f8 <_cleanup_r+0x8>)
 80084f2:	f000 b8af 	b.w	8008654 <_fwalk_reent>
 80084f6:	bf00      	nop
 80084f8:	08009075 	.word	0x08009075

080084fc <__sfmoreglue>:
 80084fc:	b570      	push	{r4, r5, r6, lr}
 80084fe:	1e4a      	subs	r2, r1, #1
 8008500:	2568      	movs	r5, #104	; 0x68
 8008502:	4355      	muls	r5, r2
 8008504:	460e      	mov	r6, r1
 8008506:	f105 0174 	add.w	r1, r5, #116	; 0x74
 800850a:	f7ff ff35 	bl	8008378 <_malloc_r>
 800850e:	4604      	mov	r4, r0
 8008510:	b140      	cbz	r0, 8008524 <__sfmoreglue+0x28>
 8008512:	2100      	movs	r1, #0
 8008514:	e9c0 1600 	strd	r1, r6, [r0]
 8008518:	300c      	adds	r0, #12
 800851a:	60a0      	str	r0, [r4, #8]
 800851c:	f105 0268 	add.w	r2, r5, #104	; 0x68
 8008520:	f7ff fed2 	bl	80082c8 <memset>
 8008524:	4620      	mov	r0, r4
 8008526:	bd70      	pop	{r4, r5, r6, pc}

08008528 <__sfp_lock_acquire>:
 8008528:	4801      	ldr	r0, [pc, #4]	; (8008530 <__sfp_lock_acquire+0x8>)
 800852a:	f000 b8b3 	b.w	8008694 <__retarget_lock_acquire_recursive>
 800852e:	bf00      	nop
 8008530:	20001f3c 	.word	0x20001f3c

08008534 <__sfp_lock_release>:
 8008534:	4801      	ldr	r0, [pc, #4]	; (800853c <__sfp_lock_release+0x8>)
 8008536:	f000 b8ae 	b.w	8008696 <__retarget_lock_release_recursive>
 800853a:	bf00      	nop
 800853c:	20001f3c 	.word	0x20001f3c

08008540 <__sinit_lock_acquire>:
 8008540:	4801      	ldr	r0, [pc, #4]	; (8008548 <__sinit_lock_acquire+0x8>)
 8008542:	f000 b8a7 	b.w	8008694 <__retarget_lock_acquire_recursive>
 8008546:	bf00      	nop
 8008548:	20001f37 	.word	0x20001f37

0800854c <__sinit_lock_release>:
 800854c:	4801      	ldr	r0, [pc, #4]	; (8008554 <__sinit_lock_release+0x8>)
 800854e:	f000 b8a2 	b.w	8008696 <__retarget_lock_release_recursive>
 8008552:	bf00      	nop
 8008554:	20001f37 	.word	0x20001f37

08008558 <__sinit>:
 8008558:	b510      	push	{r4, lr}
 800855a:	4604      	mov	r4, r0
 800855c:	f7ff fff0 	bl	8008540 <__sinit_lock_acquire>
 8008560:	69a3      	ldr	r3, [r4, #24]
 8008562:	b11b      	cbz	r3, 800856c <__sinit+0x14>
 8008564:	e8bd 4010 	ldmia.w	sp!, {r4, lr}
 8008568:	f7ff bff0 	b.w	800854c <__sinit_lock_release>
 800856c:	e9c4 3312 	strd	r3, r3, [r4, #72]	; 0x48
 8008570:	6523      	str	r3, [r4, #80]	; 0x50
 8008572:	4b13      	ldr	r3, [pc, #76]	; (80085c0 <__sinit+0x68>)
 8008574:	4a13      	ldr	r2, [pc, #76]	; (80085c4 <__sinit+0x6c>)
 8008576:	681b      	ldr	r3, [r3, #0]
 8008578:	62a2      	str	r2, [r4, #40]	; 0x28
 800857a:	42a3      	cmp	r3, r4
 800857c:	bf04      	itt	eq
 800857e:	2301      	moveq	r3, #1
 8008580:	61a3      	streq	r3, [r4, #24]
 8008582:	4620      	mov	r0, r4
 8008584:	f000 f820 	bl	80085c8 <__sfp>
 8008588:	6060      	str	r0, [r4, #4]
 800858a:	4620      	mov	r0, r4
 800858c:	f000 f81c 	bl	80085c8 <__sfp>
 8008590:	60a0      	str	r0, [r4, #8]
 8008592:	4620      	mov	r0, r4
 8008594:	f000 f818 	bl	80085c8 <__sfp>
 8008598:	2200      	movs	r2, #0
 800859a:	60e0      	str	r0, [r4, #12]
 800859c:	2104      	movs	r1, #4
 800859e:	6860      	ldr	r0, [r4, #4]
 80085a0:	f7ff ff82 	bl	80084a8 <std>
 80085a4:	68a0      	ldr	r0, [r4, #8]
 80085a6:	2201      	movs	r2, #1
 80085a8:	2109      	movs	r1, #9
 80085aa:	f7ff ff7d 	bl	80084a8 <std>
 80085ae:	68e0      	ldr	r0, [r4, #12]
 80085b0:	2202      	movs	r2, #2
 80085b2:	2112      	movs	r1, #18
 80085b4:	f7ff ff78 	bl	80084a8 <std>
 80085b8:	2301      	movs	r3, #1
 80085ba:	61a3      	str	r3, [r4, #24]
 80085bc:	e7d2      	b.n	8008564 <__sinit+0xc>
 80085be:	bf00      	nop
 80085c0:	08009370 	.word	0x08009370
 80085c4:	080084f1 	.word	0x080084f1

080085c8 <__sfp>:
 80085c8:	b5f8      	push	{r3, r4, r5, r6, r7, lr}
 80085ca:	4607      	mov	r7, r0
 80085cc:	f7ff ffac 	bl	8008528 <__sfp_lock_acquire>
 80085d0:	4b1e      	ldr	r3, [pc, #120]	; (800864c <__sfp+0x84>)
 80085d2:	681e      	ldr	r6, [r3, #0]
 80085d4:	69b3      	ldr	r3, [r6, #24]
 80085d6:	b913      	cbnz	r3, 80085de <__sfp+0x16>
 80085d8:	4630      	mov	r0, r6
 80085da:	f7ff ffbd 	bl	8008558 <__sinit>
 80085de:	3648      	adds	r6, #72	; 0x48
 80085e0:	e9d6 3401 	ldrd	r3, r4, [r6, #4]
 80085e4:	3b01      	subs	r3, #1
 80085e6:	d503      	bpl.n	80085f0 <__sfp+0x28>
 80085e8:	6833      	ldr	r3, [r6, #0]
 80085ea:	b30b      	cbz	r3, 8008630 <__sfp+0x68>
 80085ec:	6836      	ldr	r6, [r6, #0]
 80085ee:	e7f7      	b.n	80085e0 <__sfp+0x18>
 80085f0:	f9b4 500c 	ldrsh.w	r5, [r4, #12]
 80085f4:	b9d5      	cbnz	r5, 800862c <__sfp+0x64>
 80085f6:	4b16      	ldr	r3, [pc, #88]	; (8008650 <__sfp+0x88>)
 80085f8:	60e3      	str	r3, [r4, #12]
 80085fa:	f104 0058 	add.w	r0, r4, #88	; 0x58
 80085fe:	6665      	str	r5, [r4, #100]	; 0x64
 8008600:	f000 f847 	bl	8008692 <__retarget_lock_init_recursive>
 8008604:	f7ff ff96 	bl	8008534 <__sfp_lock_release>
 8008608:	e9c4 5501 	strd	r5, r5, [r4, #4]
 800860c:	e9c4 5504 	strd	r5, r5, [r4, #16]
 8008610:	6025      	str	r5, [r4, #0]
 8008612:	61a5      	str	r5, [r4, #24]
 8008614:	2208      	movs	r2, #8
 8008616:	4629      	mov	r1, r5
 8008618:	f104 005c 	add.w	r0, r4, #92	; 0x5c
 800861c:	f7ff fe54 	bl	80082c8 <memset>
 8008620:	e9c4 550d 	strd	r5, r5, [r4, #52]	; 0x34
 8008624:	e9c4 5512 	strd	r5, r5, [r4, #72]	; 0x48
 8008628:	4620      	mov	r0, r4
 800862a:	bdf8      	pop	{r3, r4, r5, r6, r7, pc}
 800862c:	3468      	adds	r4, #104	; 0x68
 800862e:	e7d9      	b.n	80085e4 <__sfp+0x1c>
 8008630:	2104      	movs	r1, #4
 8008632:	4638      	mov	r0, r7
 8008634:	f7ff ff62 	bl	80084fc <__sfmoreglue>
 8008638:	4604      	mov	r4, r0
 800863a:	6030      	str	r0, [r6, #0]
 800863c:	2800      	cmp	r0, #0
 800863e:	d1d5      	bne.n	80085ec <__sfp+0x24>
 8008640:	f7ff ff78 	bl	8008534 <__sfp_lock_release>
 8008644:	230c      	movs	r3, #12
 8008646:	603b      	str	r3, [r7, #0]
 8008648:	e7ee      	b.n	8008628 <__sfp+0x60>
 800864a:	bf00      	nop
 800864c:	08009370 	.word	0x08009370
 8008650:	ffff0001 	.word	0xffff0001

08008654 <_fwalk_reent>:
 8008654:	e92d 43f8 	stmdb	sp!, {r3, r4, r5, r6, r7, r8, r9, lr}
 8008658:	4606      	mov	r6, r0
 800865a:	4688      	mov	r8, r1
 800865c:	f100 0448 	add.w	r4, r0, #72	; 0x48
 8008660:	2700      	movs	r7, #0
 8008662:	e9d4 9501 	ldrd	r9, r5, [r4, #4]
 8008666:	f1b9 0901 	subs.w	r9, r9, #1
 800866a:	d505      	bpl.n	8008678 <_fwalk_reent+0x24>
 800866c:	6824      	ldr	r4, [r4, #0]
 800866e:	2c00      	cmp	r4, #0
 8008670:	d1f7      	bne.n	8008662 <_fwalk_reent+0xe>
 8008672:	4638      	mov	r0, r7
 8008674:	e8bd 83f8 	ldmia.w	sp!, {r3, r4, r5, r6, r7, r8, r9, pc}
 8008678:	89ab      	ldrh	r3, [r5, #12]
 800867a:	2b01      	cmp	r3, #1
 800867c:	d907      	bls.n	800868e <_fwalk_reent+0x3a>
 800867e:	f9b5 300e 	ldrsh.w	r3, [r5, #14]
 8008682:	3301      	adds	r3, #1
 8008684:	d003      	beq.n	800868e <_fwalk_reent+0x3a>
 8008686:	4629      	mov	r1, r5
 8008688:	4630      	mov	r0, r6
 800868a:	47c0      	blx	r8
 800868c:	4307      	orrs	r7, r0
 800868e:	3568      	adds	r5, #104	; 0x68
 8008690:	e7e9      	b.n	8008666 <_fwalk_reent+0x12>

08008692 <__retarget_lock_init_recursive>:
 8008692:	4770      	bx	lr

08008694 <__retarget_lock_acquire_recursive>:
 8008694:	4770      	bx	lr

08008696 <__retarget_lock_release_recursive>:
 8008696:	4770      	bx	lr

08008698 <__malloc_lock>:
 8008698:	4801      	ldr	r0, [pc, #4]	; (80086a0 <__malloc_lock+0x8>)
 800869a:	f7ff bffb 	b.w	8008694 <__retarget_lock_acquire_recursive>
 800869e:	bf00      	nop
 80086a0:	20001f38 	.word	0x20001f38

080086a4 <__malloc_unlock>:
 80086a4:	4801      	ldr	r0, [pc, #4]	; (80086ac <__malloc_unlock+0x8>)
 80086a6:	f7ff bff6 	b.w	8008696 <__retarget_lock_release_recursive>
 80086aa:	bf00      	nop
 80086ac:	20001f38 	.word	0x20001f38

080086b0 <__sfputc_r>:
 80086b0:	6893      	ldr	r3, [r2, #8]
 80086b2:	3b01      	subs	r3, #1
 80086b4:	2b00      	cmp	r3, #0
 80086b6:	b410      	push	{r4}
 80086b8:	6093      	str	r3, [r2, #8]
 80086ba:	da08      	bge.n	80086ce <__sfputc_r+0x1e>
 80086bc:	6994      	ldr	r4, [r2, #24]
 80086be:	42a3      	cmp	r3, r4
 80086c0:	db01      	blt.n	80086c6 <__sfputc_r+0x16>
 80086c2:	290a      	cmp	r1, #10
 80086c4:	d103      	bne.n	80086ce <__sfputc_r+0x1e>
 80086c6:	f85d 4b04 	ldr.w	r4, [sp], #4
 80086ca:	f000 bb6b 	b.w	8008da4 <__swbuf_r>
 80086ce:	6813      	ldr	r3, [r2, #0]
 80086d0:	1c58      	adds	r0, r3, #1
 80086d2:	6010      	str	r0, [r2, #0]
 80086d4:	7019      	strb	r1, [r3, #0]
 80086d6:	4608      	mov	r0, r1
 80086d8:	f85d 4b04 	ldr.w	r4, [sp], #4
 80086dc:	4770      	bx	lr

080086de <__sfputs_r>:
 80086de:	b5f8      	push	{r3, r4, r5, r6, r7, lr}
 80086e0:	4606      	mov	r6, r0
 80086e2:	460f      	mov	r7, r1
 80086e4:	4614      	mov	r4, r2
 80086e6:	18d5      	adds	r5, r2, r3
 80086e8:	42ac      	cmp	r4, r5
 80086ea:	d101      	bne.n	80086f0 <__sfputs_r+0x12>
 80086ec:	2000      	movs	r0, #0
 80086ee:	e007      	b.n	8008700 <__sfputs_r+0x22>
 80086f0:	f814 1b01 	ldrb.w	r1, [r4], #1
 80086f4:	463a      	mov	r2, r7
 80086f6:	4630      	mov	r0, r6
 80086f8:	f7ff ffda 	bl	80086b0 <__sfputc_r>
 80086fc:	1c43      	adds	r3, r0, #1
 80086fe:	d1f3      	bne.n	80086e8 <__sfputs_r+0xa>
 8008700:	bdf8      	pop	{r3, r4, r5, r6, r7, pc}
	...

08008704 <_vfiprintf_r>:
 8008704:	e92d 4ff0 	stmdb	sp!, {r4, r5, r6, r7, r8, r9, sl, fp, lr}
 8008708:	460d      	mov	r5, r1
 800870a:	b09d      	sub	sp, #116	; 0x74
 800870c:	4614      	mov	r4, r2
 800870e:	4698      	mov	r8, r3
 8008710:	4606      	mov	r6, r0
 8008712:	b118      	cbz	r0, 800871c <_vfiprintf_r+0x18>
 8008714:	6983      	ldr	r3, [r0, #24]
 8008716:	b90b      	cbnz	r3, 800871c <_vfiprintf_r+0x18>
 8008718:	f7ff ff1e 	bl	8008558 <__sinit>
 800871c:	4b89      	ldr	r3, [pc, #548]	; (8008944 <_vfiprintf_r+0x240>)
 800871e:	429d      	cmp	r5, r3
 8008720:	d11b      	bne.n	800875a <_vfiprintf_r+0x56>
 8008722:	6875      	ldr	r5, [r6, #4]
 8008724:	6e6b      	ldr	r3, [r5, #100]	; 0x64
 8008726:	07d9      	lsls	r1, r3, #31
 8008728:	d405      	bmi.n	8008736 <_vfiprintf_r+0x32>
 800872a:	89ab      	ldrh	r3, [r5, #12]
 800872c:	059a      	lsls	r2, r3, #22
 800872e:	d402      	bmi.n	8008736 <_vfiprintf_r+0x32>
 8008730:	6da8      	ldr	r0, [r5, #88]	; 0x58
 8008732:	f7ff ffaf 	bl	8008694 <__retarget_lock_acquire_recursive>
 8008736:	89ab      	ldrh	r3, [r5, #12]
 8008738:	071b      	lsls	r3, r3, #28
 800873a:	d501      	bpl.n	8008740 <_vfiprintf_r+0x3c>
 800873c:	692b      	ldr	r3, [r5, #16]
 800873e:	b9eb      	cbnz	r3, 800877c <_vfiprintf_r+0x78>
 8008740:	4629      	mov	r1, r5
 8008742:	4630      	mov	r0, r6
 8008744:	f000 fb92 	bl	8008e6c <__swsetup_r>
 8008748:	b1c0      	cbz	r0, 800877c <_vfiprintf_r+0x78>
 800874a:	6e6b      	ldr	r3, [r5, #100]	; 0x64
 800874c:	07dc      	lsls	r4, r3, #31
 800874e:	d50e      	bpl.n	800876e <_vfiprintf_r+0x6a>
 8008750:	f04f 30ff 	mov.w	r0, #4294967295
 8008754:	b01d      	add	sp, #116	; 0x74
 8008756:	e8bd 8ff0 	ldmia.w	sp!, {r4, r5, r6, r7, r8, r9, sl, fp, pc}
 800875a:	4b7b      	ldr	r3, [pc, #492]	; (8008948 <_vfiprintf_r+0x244>)
 800875c:	429d      	cmp	r5, r3
 800875e:	d101      	bne.n	8008764 <_vfiprintf_r+0x60>
 8008760:	68b5      	ldr	r5, [r6, #8]
 8008762:	e7df      	b.n	8008724 <_vfiprintf_r+0x20>
 8008764:	4b79      	ldr	r3, [pc, #484]	; (800894c <_vfiprintf_r+0x248>)
 8008766:	429d      	cmp	r5, r3
 8008768:	bf08      	it	eq
 800876a:	68f5      	ldreq	r5, [r6, #12]
 800876c:	e7da      	b.n	8008724 <_vfiprintf_r+0x20>
 800876e:	89ab      	ldrh	r3, [r5, #12]
 8008770:	0598      	lsls	r0, r3, #22
 8008772:	d4ed      	bmi.n	8008750 <_vfiprintf_r+0x4c>
 8008774:	6da8      	ldr	r0, [r5, #88]	; 0x58
 8008776:	f7ff ff8e 	bl	8008696 <__retarget_lock_release_recursive>
 800877a:	e7e9      	b.n	8008750 <_vfiprintf_r+0x4c>
 800877c:	2300      	movs	r3, #0
 800877e:	9309      	str	r3, [sp, #36]	; 0x24
 8008780:	2320      	movs	r3, #32
 8008782:	f88d 3029 	strb.w	r3, [sp, #41]	; 0x29
 8008786:	f8cd 800c 	str.w	r8, [sp, #12]
 800878a:	2330      	movs	r3, #48	; 0x30
 800878c:	f8df 81c0 	ldr.w	r8, [pc, #448]	; 8008950 <_vfiprintf_r+0x24c>
 8008790:	f88d 302a 	strb.w	r3, [sp, #42]	; 0x2a
 8008794:	f04f 0901 	mov.w	r9, #1
 8008798:	4623      	mov	r3, r4
 800879a:	469a      	mov	sl, r3
 800879c:	f813 2b01 	ldrb.w	r2, [r3], #1
 80087a0:	b10a      	cbz	r2, 80087a6 <_vfiprintf_r+0xa2>
 80087a2:	2a25      	cmp	r2, #37	; 0x25
 80087a4:	d1f9      	bne.n	800879a <_vfiprintf_r+0x96>
 80087a6:	ebba 0b04 	subs.w	fp, sl, r4
 80087aa:	d00b      	beq.n	80087c4 <_vfiprintf_r+0xc0>
 80087ac:	465b      	mov	r3, fp
 80087ae:	4622      	mov	r2, r4
 80087b0:	4629      	mov	r1, r5
 80087b2:	4630      	mov	r0, r6
 80087b4:	f7ff ff93 	bl	80086de <__sfputs_r>
 80087b8:	3001      	adds	r0, #1
 80087ba:	f000 80aa 	beq.w	8008912 <_vfiprintf_r+0x20e>
 80087be:	9a09      	ldr	r2, [sp, #36]	; 0x24
 80087c0:	445a      	add	r2, fp
 80087c2:	9209      	str	r2, [sp, #36]	; 0x24
 80087c4:	f89a 3000 	ldrb.w	r3, [sl]
 80087c8:	2b00      	cmp	r3, #0
 80087ca:	f000 80a2 	beq.w	8008912 <_vfiprintf_r+0x20e>
 80087ce:	2300      	movs	r3, #0
 80087d0:	f04f 32ff 	mov.w	r2, #4294967295
 80087d4:	e9cd 2305 	strd	r2, r3, [sp, #20]
 80087d8:	f10a 0a01 	add.w	sl, sl, #1
 80087dc:	9304      	str	r3, [sp, #16]
 80087de:	9307      	str	r3, [sp, #28]
 80087e0:	f88d 3053 	strb.w	r3, [sp, #83]	; 0x53
 80087e4:	931a      	str	r3, [sp, #104]	; 0x68
 80087e6:	4654      	mov	r4, sl
 80087e8:	2205      	movs	r2, #5
 80087ea:	f814 1b01 	ldrb.w	r1, [r4], #1
 80087ee:	4858      	ldr	r0, [pc, #352]	; (8008950 <_vfiprintf_r+0x24c>)
 80087f0:	f7f7 fd76 	bl	80002e0 <memchr>
 80087f4:	9a04      	ldr	r2, [sp, #16]
 80087f6:	b9d8      	cbnz	r0, 8008830 <_vfiprintf_r+0x12c>
 80087f8:	06d1      	lsls	r1, r2, #27
 80087fa:	bf44      	itt	mi
 80087fc:	2320      	movmi	r3, #32
 80087fe:	f88d 3053 	strbmi.w	r3, [sp, #83]	; 0x53
 8008802:	0713      	lsls	r3, r2, #28
 8008804:	bf44      	itt	mi
 8008806:	232b      	movmi	r3, #43	; 0x2b
 8008808:	f88d 3053 	strbmi.w	r3, [sp, #83]	; 0x53
 800880c:	f89a 3000 	ldrb.w	r3, [sl]
 8008810:	2b2a      	cmp	r3, #42	; 0x2a
 8008812:	d015      	beq.n	8008840 <_vfiprintf_r+0x13c>
 8008814:	9a07      	ldr	r2, [sp, #28]
 8008816:	4654      	mov	r4, sl
 8008818:	2000      	movs	r0, #0
 800881a:	f04f 0c0a 	mov.w	ip, #10
 800881e:	4621      	mov	r1, r4
 8008820:	f811 3b01 	ldrb.w	r3, [r1], #1
 8008824:	3b30      	subs	r3, #48	; 0x30
 8008826:	2b09      	cmp	r3, #9
 8008828:	d94e      	bls.n	80088c8 <_vfiprintf_r+0x1c4>
 800882a:	b1b0      	cbz	r0, 800885a <_vfiprintf_r+0x156>
 800882c:	9207      	str	r2, [sp, #28]
 800882e:	e014      	b.n	800885a <_vfiprintf_r+0x156>
 8008830:	eba0 0308 	sub.w	r3, r0, r8
 8008834:	fa09 f303 	lsl.w	r3, r9, r3
 8008838:	4313      	orrs	r3, r2
 800883a:	9304      	str	r3, [sp, #16]
 800883c:	46a2      	mov	sl, r4
 800883e:	e7d2      	b.n	80087e6 <_vfiprintf_r+0xe2>
 8008840:	9b03      	ldr	r3, [sp, #12]
 8008842:	1d19      	adds	r1, r3, #4
 8008844:	681b      	ldr	r3, [r3, #0]
 8008846:	9103      	str	r1, [sp, #12]
 8008848:	2b00      	cmp	r3, #0
 800884a:	bfbb      	ittet	lt
 800884c:	425b      	neglt	r3, r3
 800884e:	f042 0202 	orrlt.w	r2, r2, #2
 8008852:	9307      	strge	r3, [sp, #28]
 8008854:	9307      	strlt	r3, [sp, #28]
 8008856:	bfb8      	it	lt
 8008858:	9204      	strlt	r2, [sp, #16]
 800885a:	7823      	ldrb	r3, [r4, #0]
 800885c:	2b2e      	cmp	r3, #46	; 0x2e
 800885e:	d10c      	bne.n	800887a <_vfiprintf_r+0x176>
 8008860:	7863      	ldrb	r3, [r4, #1]
 8008862:	2b2a      	cmp	r3, #42	; 0x2a
 8008864:	d135      	bne.n	80088d2 <_vfiprintf_r+0x1ce>
 8008866:	9b03      	ldr	r3, [sp, #12]
 8008868:	1d1a      	adds	r2, r3, #4
 800886a:	681b      	ldr	r3, [r3, #0]
 800886c:	9203      	str	r2, [sp, #12]
 800886e:	2b00      	cmp	r3, #0
 8008870:	bfb8      	it	lt
 8008872:	f04f 33ff 	movlt.w	r3, #4294967295
 8008876:	3402      	adds	r4, #2
 8008878:	9305      	str	r3, [sp, #20]
 800887a:	f8df a0e4 	ldr.w	sl, [pc, #228]	; 8008960 <_vfiprintf_r+0x25c>
 800887e:	7821      	ldrb	r1, [r4, #0]
 8008880:	2203      	movs	r2, #3
 8008882:	4650      	mov	r0, sl
 8008884:	f7f7 fd2c 	bl	80002e0 <memchr>
 8008888:	b140      	cbz	r0, 800889c <_vfiprintf_r+0x198>
 800888a:	2340      	movs	r3, #64	; 0x40
 800888c:	eba0 000a 	sub.w	r0, r0, sl
 8008890:	fa03 f000 	lsl.w	r0, r3, r0
 8008894:	9b04      	ldr	r3, [sp, #16]
 8008896:	4303      	orrs	r3, r0
 8008898:	3401      	adds	r4, #1
 800889a:	9304      	str	r3, [sp, #16]
 800889c:	f814 1b01 	ldrb.w	r1, [r4], #1
 80088a0:	482c      	ldr	r0, [pc, #176]	; (8008954 <_vfiprintf_r+0x250>)
 80088a2:	f88d 1028 	strb.w	r1, [sp, #40]	; 0x28
 80088a6:	2206      	movs	r2, #6
 80088a8:	f7f7 fd1a 	bl	80002e0 <memchr>
 80088ac:	2800      	cmp	r0, #0
 80088ae:	d03f      	beq.n	8008930 <_vfiprintf_r+0x22c>
 80088b0:	4b29      	ldr	r3, [pc, #164]	; (8008958 <_vfiprintf_r+0x254>)
 80088b2:	bb1b      	cbnz	r3, 80088fc <_vfiprintf_r+0x1f8>
 80088b4:	9b03      	ldr	r3, [sp, #12]
 80088b6:	3307      	adds	r3, #7
 80088b8:	f023 0307 	bic.w	r3, r3, #7
 80088bc:	3308      	adds	r3, #8
 80088be:	9303      	str	r3, [sp, #12]
 80088c0:	9b09      	ldr	r3, [sp, #36]	; 0x24
 80088c2:	443b      	add	r3, r7
 80088c4:	9309      	str	r3, [sp, #36]	; 0x24
 80088c6:	e767      	b.n	8008798 <_vfiprintf_r+0x94>
 80088c8:	fb0c 3202 	mla	r2, ip, r2, r3
 80088cc:	460c      	mov	r4, r1
 80088ce:	2001      	movs	r0, #1
 80088d0:	e7a5      	b.n	800881e <_vfiprintf_r+0x11a>
 80088d2:	2300      	movs	r3, #0
 80088d4:	3401      	adds	r4, #1
 80088d6:	9305      	str	r3, [sp, #20]
 80088d8:	4619      	mov	r1, r3
 80088da:	f04f 0c0a 	mov.w	ip, #10
 80088de:	4620      	mov	r0, r4
 80088e0:	f810 2b01 	ldrb.w	r2, [r0], #1
 80088e4:	3a30      	subs	r2, #48	; 0x30
 80088e6:	2a09      	cmp	r2, #9
 80088e8:	d903      	bls.n	80088f2 <_vfiprintf_r+0x1ee>
 80088ea:	2b00      	cmp	r3, #0
 80088ec:	d0c5      	beq.n	800887a <_vfiprintf_r+0x176>
 80088ee:	9105      	str	r1, [sp, #20]
 80088f0:	e7c3      	b.n	800887a <_vfiprintf_r+0x176>
 80088f2:	fb0c 2101 	mla	r1, ip, r1, r2
 80088f6:	4604      	mov	r4, r0
 80088f8:	2301      	movs	r3, #1
 80088fa:	e7f0      	b.n	80088de <_vfiprintf_r+0x1da>
 80088fc:	ab03      	add	r3, sp, #12
 80088fe:	9300      	str	r3, [sp, #0]
 8008900:	462a      	mov	r2, r5
 8008902:	4b16      	ldr	r3, [pc, #88]	; (800895c <_vfiprintf_r+0x258>)
 8008904:	a904      	add	r1, sp, #16
 8008906:	4630      	mov	r0, r6
 8008908:	f3af 8000 	nop.w
 800890c:	4607      	mov	r7, r0
 800890e:	1c78      	adds	r0, r7, #1
 8008910:	d1d6      	bne.n	80088c0 <_vfiprintf_r+0x1bc>
 8008912:	6e6b      	ldr	r3, [r5, #100]	; 0x64
 8008914:	07d9      	lsls	r1, r3, #31
 8008916:	d405      	bmi.n	8008924 <_vfiprintf_r+0x220>
 8008918:	89ab      	ldrh	r3, [r5, #12]
 800891a:	059a      	lsls	r2, r3, #22
 800891c:	d402      	bmi.n	8008924 <_vfiprintf_r+0x220>
 800891e:	6da8      	ldr	r0, [r5, #88]	; 0x58
 8008920:	f7ff feb9 	bl	8008696 <__retarget_lock_release_recursive>
 8008924:	89ab      	ldrh	r3, [r5, #12]
 8008926:	065b      	lsls	r3, r3, #25
 8008928:	f53f af12 	bmi.w	8008750 <_vfiprintf_r+0x4c>
 800892c:	9809      	ldr	r0, [sp, #36]	; 0x24
 800892e:	e711      	b.n	8008754 <_vfiprintf_r+0x50>
 8008930:	ab03      	add	r3, sp, #12
 8008932:	9300      	str	r3, [sp, #0]
 8008934:	462a      	mov	r2, r5
 8008936:	4b09      	ldr	r3, [pc, #36]	; (800895c <_vfiprintf_r+0x258>)
 8008938:	a904      	add	r1, sp, #16
 800893a:	4630      	mov	r0, r6
 800893c:	f000 f880 	bl	8008a40 <_printf_i>
 8008940:	e7e4      	b.n	800890c <_vfiprintf_r+0x208>
 8008942:	bf00      	nop
 8008944:	08009394 	.word	0x08009394
 8008948:	080093b4 	.word	0x080093b4
 800894c:	08009374 	.word	0x08009374
 8008950:	080093d4 	.word	0x080093d4
 8008954:	080093de 	.word	0x080093de
 8008958:	00000000 	.word	0x00000000
 800895c:	080086df 	.word	0x080086df
 8008960:	080093da 	.word	0x080093da

08008964 <_printf_common>:
 8008964:	e92d 47f0 	stmdb	sp!, {r4, r5, r6, r7, r8, r9, sl, lr}
 8008968:	4616      	mov	r6, r2
 800896a:	4699      	mov	r9, r3
 800896c:	688a      	ldr	r2, [r1, #8]
 800896e:	690b      	ldr	r3, [r1, #16]
 8008970:	f8dd 8020 	ldr.w	r8, [sp, #32]
 8008974:	4293      	cmp	r3, r2
 8008976:	bfb8      	it	lt
 8008978:	4613      	movlt	r3, r2
 800897a:	6033      	str	r3, [r6, #0]
 800897c:	f891 2043 	ldrb.w	r2, [r1, #67]	; 0x43
 8008980:	4607      	mov	r7, r0
 8008982:	460c      	mov	r4, r1
 8008984:	b10a      	cbz	r2, 800898a <_printf_common+0x26>
 8008986:	3301      	adds	r3, #1
 8008988:	6033      	str	r3, [r6, #0]
 800898a:	6823      	ldr	r3, [r4, #0]
 800898c:	0699      	lsls	r1, r3, #26
 800898e:	bf42      	ittt	mi
 8008990:	6833      	ldrmi	r3, [r6, #0]
 8008992:	3302      	addmi	r3, #2
 8008994:	6033      	strmi	r3, [r6, #0]
 8008996:	6825      	ldr	r5, [r4, #0]
 8008998:	f015 0506 	ands.w	r5, r5, #6
 800899c:	d106      	bne.n	80089ac <_printf_common+0x48>
 800899e:	f104 0a19 	add.w	sl, r4, #25
 80089a2:	68e3      	ldr	r3, [r4, #12]
 80089a4:	6832      	ldr	r2, [r6, #0]
 80089a6:	1a9b      	subs	r3, r3, r2
 80089a8:	42ab      	cmp	r3, r5
 80089aa:	dc26      	bgt.n	80089fa <_printf_common+0x96>
 80089ac:	f894 2043 	ldrb.w	r2, [r4, #67]	; 0x43
 80089b0:	1e13      	subs	r3, r2, #0
 80089b2:	6822      	ldr	r2, [r4, #0]
 80089b4:	bf18      	it	ne
 80089b6:	2301      	movne	r3, #1
 80089b8:	0692      	lsls	r2, r2, #26
 80089ba:	d42b      	bmi.n	8008a14 <_printf_common+0xb0>
 80089bc:	f104 0243 	add.w	r2, r4, #67	; 0x43
 80089c0:	4649      	mov	r1, r9
 80089c2:	4638      	mov	r0, r7
 80089c4:	47c0      	blx	r8
 80089c6:	3001      	adds	r0, #1
 80089c8:	d01e      	beq.n	8008a08 <_printf_common+0xa4>
 80089ca:	6823      	ldr	r3, [r4, #0]
 80089cc:	68e5      	ldr	r5, [r4, #12]
 80089ce:	6832      	ldr	r2, [r6, #0]
 80089d0:	f003 0306 	and.w	r3, r3, #6
 80089d4:	2b04      	cmp	r3, #4
 80089d6:	bf08      	it	eq
 80089d8:	1aad      	subeq	r5, r5, r2
 80089da:	68a3      	ldr	r3, [r4, #8]
 80089dc:	6922      	ldr	r2, [r4, #16]
 80089de:	bf0c      	ite	eq
 80089e0:	ea25 75e5 	biceq.w	r5, r5, r5, asr #31
 80089e4:	2500      	movne	r5, #0
 80089e6:	4293      	cmp	r3, r2
 80089e8:	bfc4      	itt	gt
 80089ea:	1a9b      	subgt	r3, r3, r2
 80089ec:	18ed      	addgt	r5, r5, r3
 80089ee:	2600      	movs	r6, #0
 80089f0:	341a      	adds	r4, #26
 80089f2:	42b5      	cmp	r5, r6
 80089f4:	d11a      	bne.n	8008a2c <_printf_common+0xc8>
 80089f6:	2000      	movs	r0, #0
 80089f8:	e008      	b.n	8008a0c <_printf_common+0xa8>
 80089fa:	2301      	movs	r3, #1
 80089fc:	4652      	mov	r2, sl
 80089fe:	4649      	mov	r1, r9
 8008a00:	4638      	mov	r0, r7
 8008a02:	47c0      	blx	r8
 8008a04:	3001      	adds	r0, #1
 8008a06:	d103      	bne.n	8008a10 <_printf_common+0xac>
 8008a08:	f04f 30ff 	mov.w	r0, #4294967295
 8008a0c:	e8bd 87f0 	ldmia.w	sp!, {r4, r5, r6, r7, r8, r9, sl, pc}
 8008a10:	3501      	adds	r5, #1
 8008a12:	e7c6      	b.n	80089a2 <_printf_common+0x3e>
 8008a14:	18e1      	adds	r1, r4, r3
 8008a16:	1c5a      	adds	r2, r3, #1
 8008a18:	2030      	movs	r0, #48	; 0x30
 8008a1a:	f881 0043 	strb.w	r0, [r1, #67]	; 0x43
 8008a1e:	4422      	add	r2, r4
 8008a20:	f894 1045 	ldrb.w	r1, [r4, #69]	; 0x45
 8008a24:	f882 1043 	strb.w	r1, [r2, #67]	; 0x43
 8008a28:	3302      	adds	r3, #2
 8008a2a:	e7c7      	b.n	80089bc <_printf_common+0x58>
 8008a2c:	2301      	movs	r3, #1
 8008a2e:	4622      	mov	r2, r4
 8008a30:	4649      	mov	r1, r9
 8008a32:	4638      	mov	r0, r7
 8008a34:	47c0      	blx	r8
 8008a36:	3001      	adds	r0, #1
 8008a38:	d0e6      	beq.n	8008a08 <_printf_common+0xa4>
 8008a3a:	3601      	adds	r6, #1
 8008a3c:	e7d9      	b.n	80089f2 <_printf_common+0x8e>
	...

08008a40 <_printf_i>:
 8008a40:	e92d 47ff 	stmdb	sp!, {r0, r1, r2, r3, r4, r5, r6, r7, r8, r9, sl, lr}
 8008a44:	460c      	mov	r4, r1
 8008a46:	4691      	mov	r9, r2
 8008a48:	7e27      	ldrb	r7, [r4, #24]
 8008a4a:	990c      	ldr	r1, [sp, #48]	; 0x30
 8008a4c:	2f78      	cmp	r7, #120	; 0x78
 8008a4e:	4680      	mov	r8, r0
 8008a50:	469a      	mov	sl, r3
 8008a52:	f104 0243 	add.w	r2, r4, #67	; 0x43
 8008a56:	d807      	bhi.n	8008a68 <_printf_i+0x28>
 8008a58:	2f62      	cmp	r7, #98	; 0x62
 8008a5a:	d80a      	bhi.n	8008a72 <_printf_i+0x32>
 8008a5c:	2f00      	cmp	r7, #0
 8008a5e:	f000 80d8 	beq.w	8008c12 <_printf_i+0x1d2>
 8008a62:	2f58      	cmp	r7, #88	; 0x58
 8008a64:	f000 80a3 	beq.w	8008bae <_printf_i+0x16e>
 8008a68:	f104 0642 	add.w	r6, r4, #66	; 0x42
 8008a6c:	f884 7042 	strb.w	r7, [r4, #66]	; 0x42
 8008a70:	e03a      	b.n	8008ae8 <_printf_i+0xa8>
 8008a72:	f1a7 0363 	sub.w	r3, r7, #99	; 0x63
 8008a76:	2b15      	cmp	r3, #21
 8008a78:	d8f6      	bhi.n	8008a68 <_printf_i+0x28>
 8008a7a:	a001      	add	r0, pc, #4	; (adr r0, 8008a80 <_printf_i+0x40>)
 8008a7c:	f850 f023 	ldr.w	pc, [r0, r3, lsl #2]
 8008a80:	08008ad9 	.word	0x08008ad9
 8008a84:	08008aed 	.word	0x08008aed
 8008a88:	08008a69 	.word	0x08008a69
 8008a8c:	08008a69 	.word	0x08008a69
 8008a90:	08008a69 	.word	0x08008a69
 8008a94:	08008a69 	.word	0x08008a69
 8008a98:	08008aed 	.word	0x08008aed
 8008a9c:	08008a69 	.word	0x08008a69
 8008aa0:	08008a69 	.word	0x08008a69
 8008aa4:	08008a69 	.word	0x08008a69
 8008aa8:	08008a69 	.word	0x08008a69
 8008aac:	08008bf9 	.word	0x08008bf9
 8008ab0:	08008b1d 	.word	0x08008b1d
 8008ab4:	08008bdb 	.word	0x08008bdb
 8008ab8:	08008a69 	.word	0x08008a69
 8008abc:	08008a69 	.word	0x08008a69
 8008ac0:	08008c1b 	.word	0x08008c1b
 8008ac4:	08008a69 	.word	0x08008a69
 8008ac8:	08008b1d 	.word	0x08008b1d
 8008acc:	08008a69 	.word	0x08008a69
 8008ad0:	08008a69 	.word	0x08008a69
 8008ad4:	08008be3 	.word	0x08008be3
 8008ad8:	680b      	ldr	r3, [r1, #0]
 8008ada:	1d1a      	adds	r2, r3, #4
 8008adc:	681b      	ldr	r3, [r3, #0]
 8008ade:	600a      	str	r2, [r1, #0]
 8008ae0:	f104 0642 	add.w	r6, r4, #66	; 0x42
 8008ae4:	f884 3042 	strb.w	r3, [r4, #66]	; 0x42
 8008ae8:	2301      	movs	r3, #1
 8008aea:	e0a3      	b.n	8008c34 <_printf_i+0x1f4>
 8008aec:	6825      	ldr	r5, [r4, #0]
 8008aee:	6808      	ldr	r0, [r1, #0]
 8008af0:	062e      	lsls	r6, r5, #24
 8008af2:	f100 0304 	add.w	r3, r0, #4
 8008af6:	d50a      	bpl.n	8008b0e <_printf_i+0xce>
 8008af8:	6805      	ldr	r5, [r0, #0]
 8008afa:	600b      	str	r3, [r1, #0]
 8008afc:	2d00      	cmp	r5, #0
 8008afe:	da03      	bge.n	8008b08 <_printf_i+0xc8>
 8008b00:	232d      	movs	r3, #45	; 0x2d
 8008b02:	426d      	negs	r5, r5
 8008b04:	f884 3043 	strb.w	r3, [r4, #67]	; 0x43
 8008b08:	485e      	ldr	r0, [pc, #376]	; (8008c84 <_printf_i+0x244>)
 8008b0a:	230a      	movs	r3, #10
 8008b0c:	e019      	b.n	8008b42 <_printf_i+0x102>
 8008b0e:	f015 0f40 	tst.w	r5, #64	; 0x40
 8008b12:	6805      	ldr	r5, [r0, #0]
 8008b14:	600b      	str	r3, [r1, #0]
 8008b16:	bf18      	it	ne
 8008b18:	b22d      	sxthne	r5, r5
 8008b1a:	e7ef      	b.n	8008afc <_printf_i+0xbc>
 8008b1c:	680b      	ldr	r3, [r1, #0]
 8008b1e:	6825      	ldr	r5, [r4, #0]
 8008b20:	1d18      	adds	r0, r3, #4
 8008b22:	6008      	str	r0, [r1, #0]
 8008b24:	0628      	lsls	r0, r5, #24
 8008b26:	d501      	bpl.n	8008b2c <_printf_i+0xec>
 8008b28:	681d      	ldr	r5, [r3, #0]
 8008b2a:	e002      	b.n	8008b32 <_printf_i+0xf2>
 8008b2c:	0669      	lsls	r1, r5, #25
 8008b2e:	d5fb      	bpl.n	8008b28 <_printf_i+0xe8>
 8008b30:	881d      	ldrh	r5, [r3, #0]
 8008b32:	4854      	ldr	r0, [pc, #336]	; (8008c84 <_printf_i+0x244>)
 8008b34:	2f6f      	cmp	r7, #111	; 0x6f
 8008b36:	bf0c      	ite	eq
 8008b38:	2308      	moveq	r3, #8
 8008b3a:	230a      	movne	r3, #10
 8008b3c:	2100      	movs	r1, #0
 8008b3e:	f884 1043 	strb.w	r1, [r4, #67]	; 0x43
 8008b42:	6866      	ldr	r6, [r4, #4]
 8008b44:	60a6      	str	r6, [r4, #8]
 8008b46:	2e00      	cmp	r6, #0
 8008b48:	bfa2      	ittt	ge
 8008b4a:	6821      	ldrge	r1, [r4, #0]
 8008b4c:	f021 0104 	bicge.w	r1, r1, #4
 8008b50:	6021      	strge	r1, [r4, #0]
 8008b52:	b90d      	cbnz	r5, 8008b58 <_printf_i+0x118>
 8008b54:	2e00      	cmp	r6, #0
 8008b56:	d04d      	beq.n	8008bf4 <_printf_i+0x1b4>
 8008b58:	4616      	mov	r6, r2
 8008b5a:	fbb5 f1f3 	udiv	r1, r5, r3
 8008b5e:	fb03 5711 	mls	r7, r3, r1, r5
 8008b62:	5dc7      	ldrb	r7, [r0, r7]
 8008b64:	f806 7d01 	strb.w	r7, [r6, #-1]!
 8008b68:	462f      	mov	r7, r5
 8008b6a:	42bb      	cmp	r3, r7
 8008b6c:	460d      	mov	r5, r1
 8008b6e:	d9f4      	bls.n	8008b5a <_printf_i+0x11a>
 8008b70:	2b08      	cmp	r3, #8
 8008b72:	d10b      	bne.n	8008b8c <_printf_i+0x14c>
 8008b74:	6823      	ldr	r3, [r4, #0]
 8008b76:	07df      	lsls	r7, r3, #31
 8008b78:	d508      	bpl.n	8008b8c <_printf_i+0x14c>
 8008b7a:	6923      	ldr	r3, [r4, #16]
 8008b7c:	6861      	ldr	r1, [r4, #4]
 8008b7e:	4299      	cmp	r1, r3
 8008b80:	bfde      	ittt	le
 8008b82:	2330      	movle	r3, #48	; 0x30
 8008b84:	f806 3c01 	strble.w	r3, [r6, #-1]
 8008b88:	f106 36ff 	addle.w	r6, r6, #4294967295
 8008b8c:	1b92      	subs	r2, r2, r6
 8008b8e:	6122      	str	r2, [r4, #16]
 8008b90:	f8cd a000 	str.w	sl, [sp]
 8008b94:	464b      	mov	r3, r9
 8008b96:	aa03      	add	r2, sp, #12
 8008b98:	4621      	mov	r1, r4
 8008b9a:	4640      	mov	r0, r8
 8008b9c:	f7ff fee2 	bl	8008964 <_printf_common>
 8008ba0:	3001      	adds	r0, #1
 8008ba2:	d14c      	bne.n	8008c3e <_printf_i+0x1fe>
 8008ba4:	f04f 30ff 	mov.w	r0, #4294967295
 8008ba8:	b004      	add	sp, #16
 8008baa:	e8bd 87f0 	ldmia.w	sp!, {r4, r5, r6, r7, r8, r9, sl, pc}
 8008bae:	4835      	ldr	r0, [pc, #212]	; (8008c84 <_printf_i+0x244>)
 8008bb0:	f884 7045 	strb.w	r7, [r4, #69]	; 0x45
 8008bb4:	6823      	ldr	r3, [r4, #0]
 8008bb6:	680e      	ldr	r6, [r1, #0]
 8008bb8:	061f      	lsls	r7, r3, #24
 8008bba:	f856 5b04 	ldr.w	r5, [r6], #4
 8008bbe:	600e      	str	r6, [r1, #0]
 8008bc0:	d514      	bpl.n	8008bec <_printf_i+0x1ac>
 8008bc2:	07d9      	lsls	r1, r3, #31
 8008bc4:	bf44      	itt	mi
 8008bc6:	f043 0320 	orrmi.w	r3, r3, #32
 8008bca:	6023      	strmi	r3, [r4, #0]
 8008bcc:	b91d      	cbnz	r5, 8008bd6 <_printf_i+0x196>
 8008bce:	6823      	ldr	r3, [r4, #0]
 8008bd0:	f023 0320 	bic.w	r3, r3, #32
 8008bd4:	6023      	str	r3, [r4, #0]
 8008bd6:	2310      	movs	r3, #16
 8008bd8:	e7b0      	b.n	8008b3c <_printf_i+0xfc>
 8008bda:	6823      	ldr	r3, [r4, #0]
 8008bdc:	f043 0320 	orr.w	r3, r3, #32
 8008be0:	6023      	str	r3, [r4, #0]
 8008be2:	2378      	movs	r3, #120	; 0x78
 8008be4:	4828      	ldr	r0, [pc, #160]	; (8008c88 <_printf_i+0x248>)
 8008be6:	f884 3045 	strb.w	r3, [r4, #69]	; 0x45
 8008bea:	e7e3      	b.n	8008bb4 <_printf_i+0x174>
 8008bec:	065e      	lsls	r6, r3, #25
 8008bee:	bf48      	it	mi
 8008bf0:	b2ad      	uxthmi	r5, r5
 8008bf2:	e7e6      	b.n	8008bc2 <_printf_i+0x182>
 8008bf4:	4616      	mov	r6, r2
 8008bf6:	e7bb      	b.n	8008b70 <_printf_i+0x130>
 8008bf8:	680b      	ldr	r3, [r1, #0]
 8008bfa:	6826      	ldr	r6, [r4, #0]
 8008bfc:	6960      	ldr	r0, [r4, #20]
 8008bfe:	1d1d      	adds	r5, r3, #4
 8008c00:	600d      	str	r5, [r1, #0]
 8008c02:	0635      	lsls	r5, r6, #24
 8008c04:	681b      	ldr	r3, [r3, #0]
 8008c06:	d501      	bpl.n	8008c0c <_printf_i+0x1cc>
 8008c08:	6018      	str	r0, [r3, #0]
 8008c0a:	e002      	b.n	8008c12 <_printf_i+0x1d2>
 8008c0c:	0671      	lsls	r1, r6, #25
 8008c0e:	d5fb      	bpl.n	8008c08 <_printf_i+0x1c8>
 8008c10:	8018      	strh	r0, [r3, #0]
 8008c12:	2300      	movs	r3, #0
 8008c14:	6123      	str	r3, [r4, #16]
 8008c16:	4616      	mov	r6, r2
 8008c18:	e7ba      	b.n	8008b90 <_printf_i+0x150>
 8008c1a:	680b      	ldr	r3, [r1, #0]
 8008c1c:	1d1a      	adds	r2, r3, #4
 8008c1e:	600a      	str	r2, [r1, #0]
 8008c20:	681e      	ldr	r6, [r3, #0]
 8008c22:	6862      	ldr	r2, [r4, #4]
 8008c24:	2100      	movs	r1, #0
 8008c26:	4630      	mov	r0, r6
 8008c28:	f7f7 fb5a 	bl	80002e0 <memchr>
 8008c2c:	b108      	cbz	r0, 8008c32 <_printf_i+0x1f2>
 8008c2e:	1b80      	subs	r0, r0, r6
 8008c30:	6060      	str	r0, [r4, #4]
 8008c32:	6863      	ldr	r3, [r4, #4]
 8008c34:	6123      	str	r3, [r4, #16]
 8008c36:	2300      	movs	r3, #0
 8008c38:	f884 3043 	strb.w	r3, [r4, #67]	; 0x43
 8008c3c:	e7a8      	b.n	8008b90 <_printf_i+0x150>
 8008c3e:	6923      	ldr	r3, [r4, #16]
 8008c40:	4632      	mov	r2, r6
 8008c42:	4649      	mov	r1, r9
 8008c44:	4640      	mov	r0, r8
 8008c46:	47d0      	blx	sl
 8008c48:	3001      	adds	r0, #1
 8008c4a:	d0ab      	beq.n	8008ba4 <_printf_i+0x164>
 8008c4c:	6823      	ldr	r3, [r4, #0]
 8008c4e:	079b      	lsls	r3, r3, #30
 8008c50:	d413      	bmi.n	8008c7a <_printf_i+0x23a>
 8008c52:	68e0      	ldr	r0, [r4, #12]
 8008c54:	9b03      	ldr	r3, [sp, #12]
 8008c56:	4298      	cmp	r0, r3
 8008c58:	bfb8      	it	lt
 8008c5a:	4618      	movlt	r0, r3
 8008c5c:	e7a4      	b.n	8008ba8 <_printf_i+0x168>
 8008c5e:	2301      	movs	r3, #1
 8008c60:	4632      	mov	r2, r6
 8008c62:	4649      	mov	r1, r9
 8008c64:	4640      	mov	r0, r8
 8008c66:	47d0      	blx	sl
 8008c68:	3001      	adds	r0, #1
 8008c6a:	d09b      	beq.n	8008ba4 <_printf_i+0x164>
 8008c6c:	3501      	adds	r5, #1
 8008c6e:	68e3      	ldr	r3, [r4, #12]
 8008c70:	9903      	ldr	r1, [sp, #12]
 8008c72:	1a5b      	subs	r3, r3, r1
 8008c74:	42ab      	cmp	r3, r5
 8008c76:	dcf2      	bgt.n	8008c5e <_printf_i+0x21e>
 8008c78:	e7eb      	b.n	8008c52 <_printf_i+0x212>
 8008c7a:	2500      	movs	r5, #0
 8008c7c:	f104 0619 	add.w	r6, r4, #25
 8008c80:	e7f5      	b.n	8008c6e <_printf_i+0x22e>
 8008c82:	bf00      	nop
 8008c84:	080093e5 	.word	0x080093e5
 8008c88:	080093f6 	.word	0x080093f6

08008c8c <_putc_r>:
 8008c8c:	b570      	push	{r4, r5, r6, lr}
 8008c8e:	460d      	mov	r5, r1
 8008c90:	4614      	mov	r4, r2
 8008c92:	4606      	mov	r6, r0
 8008c94:	b118      	cbz	r0, 8008c9e <_putc_r+0x12>
 8008c96:	6983      	ldr	r3, [r0, #24]
 8008c98:	b90b      	cbnz	r3, 8008c9e <_putc_r+0x12>
 8008c9a:	f7ff fc5d 	bl	8008558 <__sinit>
 8008c9e:	4b1c      	ldr	r3, [pc, #112]	; (8008d10 <_putc_r+0x84>)
 8008ca0:	429c      	cmp	r4, r3
 8008ca2:	d124      	bne.n	8008cee <_putc_r+0x62>
 8008ca4:	6874      	ldr	r4, [r6, #4]
 8008ca6:	6e63      	ldr	r3, [r4, #100]	; 0x64
 8008ca8:	07d8      	lsls	r0, r3, #31
 8008caa:	d405      	bmi.n	8008cb8 <_putc_r+0x2c>
 8008cac:	89a3      	ldrh	r3, [r4, #12]
 8008cae:	0599      	lsls	r1, r3, #22
 8008cb0:	d402      	bmi.n	8008cb8 <_putc_r+0x2c>
 8008cb2:	6da0      	ldr	r0, [r4, #88]	; 0x58
 8008cb4:	f7ff fcee 	bl	8008694 <__retarget_lock_acquire_recursive>
 8008cb8:	68a3      	ldr	r3, [r4, #8]
 8008cba:	3b01      	subs	r3, #1
 8008cbc:	2b00      	cmp	r3, #0
 8008cbe:	60a3      	str	r3, [r4, #8]
 8008cc0:	da05      	bge.n	8008cce <_putc_r+0x42>
 8008cc2:	69a2      	ldr	r2, [r4, #24]
 8008cc4:	4293      	cmp	r3, r2
 8008cc6:	db1c      	blt.n	8008d02 <_putc_r+0x76>
 8008cc8:	b2eb      	uxtb	r3, r5
 8008cca:	2b0a      	cmp	r3, #10
 8008ccc:	d019      	beq.n	8008d02 <_putc_r+0x76>
 8008cce:	6823      	ldr	r3, [r4, #0]
 8008cd0:	1c5a      	adds	r2, r3, #1
 8008cd2:	6022      	str	r2, [r4, #0]
 8008cd4:	701d      	strb	r5, [r3, #0]
 8008cd6:	b2ed      	uxtb	r5, r5
 8008cd8:	6e63      	ldr	r3, [r4, #100]	; 0x64
 8008cda:	07da      	lsls	r2, r3, #31
 8008cdc:	d405      	bmi.n	8008cea <_putc_r+0x5e>
 8008cde:	89a3      	ldrh	r3, [r4, #12]
 8008ce0:	059b      	lsls	r3, r3, #22
 8008ce2:	d402      	bmi.n	8008cea <_putc_r+0x5e>
 8008ce4:	6da0      	ldr	r0, [r4, #88]	; 0x58
 8008ce6:	f7ff fcd6 	bl	8008696 <__retarget_lock_release_recursive>
 8008cea:	4628      	mov	r0, r5
 8008cec:	bd70      	pop	{r4, r5, r6, pc}
 8008cee:	4b09      	ldr	r3, [pc, #36]	; (8008d14 <_putc_r+0x88>)
 8008cf0:	429c      	cmp	r4, r3
 8008cf2:	d101      	bne.n	8008cf8 <_putc_r+0x6c>
 8008cf4:	68b4      	ldr	r4, [r6, #8]
 8008cf6:	e7d6      	b.n	8008ca6 <_putc_r+0x1a>
 8008cf8:	4b07      	ldr	r3, [pc, #28]	; (8008d18 <_putc_r+0x8c>)
 8008cfa:	429c      	cmp	r4, r3
 8008cfc:	bf08      	it	eq
 8008cfe:	68f4      	ldreq	r4, [r6, #12]
 8008d00:	e7d1      	b.n	8008ca6 <_putc_r+0x1a>
 8008d02:	4629      	mov	r1, r5
 8008d04:	4622      	mov	r2, r4
 8008d06:	4630      	mov	r0, r6
 8008d08:	f000 f84c 	bl	8008da4 <__swbuf_r>
 8008d0c:	4605      	mov	r5, r0
 8008d0e:	e7e3      	b.n	8008cd8 <_putc_r+0x4c>
 8008d10:	08009394 	.word	0x08009394
 8008d14:	080093b4 	.word	0x080093b4
 8008d18:	08009374 	.word	0x08009374

08008d1c <__sread>:
 8008d1c:	b510      	push	{r4, lr}
 8008d1e:	460c      	mov	r4, r1
 8008d20:	f9b1 100e 	ldrsh.w	r1, [r1, #14]
 8008d24:	f000 fa58 	bl	80091d8 <_read_r>
 8008d28:	2800      	cmp	r0, #0
 8008d2a:	bfab      	itete	ge
 8008d2c:	6d63      	ldrge	r3, [r4, #84]	; 0x54
 8008d2e:	89a3      	ldrhlt	r3, [r4, #12]
 8008d30:	181b      	addge	r3, r3, r0
 8008d32:	f423 5380 	biclt.w	r3, r3, #4096	; 0x1000
 8008d36:	bfac      	ite	ge
 8008d38:	6563      	strge	r3, [r4, #84]	; 0x54
 8008d3a:	81a3      	strhlt	r3, [r4, #12]
 8008d3c:	bd10      	pop	{r4, pc}

08008d3e <__swrite>:
 8008d3e:	e92d 41f0 	stmdb	sp!, {r4, r5, r6, r7, r8, lr}
 8008d42:	461f      	mov	r7, r3
 8008d44:	898b      	ldrh	r3, [r1, #12]
 8008d46:	05db      	lsls	r3, r3, #23
 8008d48:	4605      	mov	r5, r0
 8008d4a:	460c      	mov	r4, r1
 8008d4c:	4616      	mov	r6, r2
 8008d4e:	d505      	bpl.n	8008d5c <__swrite+0x1e>
 8008d50:	f9b1 100e 	ldrsh.w	r1, [r1, #14]
 8008d54:	2302      	movs	r3, #2
 8008d56:	2200      	movs	r2, #0
 8008d58:	f000 f9c8 	bl	80090ec <_lseek_r>
 8008d5c:	89a3      	ldrh	r3, [r4, #12]
 8008d5e:	f9b4 100e 	ldrsh.w	r1, [r4, #14]
 8008d62:	f423 5380 	bic.w	r3, r3, #4096	; 0x1000
 8008d66:	81a3      	strh	r3, [r4, #12]
 8008d68:	4632      	mov	r2, r6
 8008d6a:	463b      	mov	r3, r7
 8008d6c:	4628      	mov	r0, r5
 8008d6e:	e8bd 41f0 	ldmia.w	sp!, {r4, r5, r6, r7, r8, lr}
 8008d72:	f000 b869 	b.w	8008e48 <_write_r>

08008d76 <__sseek>:
 8008d76:	b510      	push	{r4, lr}
 8008d78:	460c      	mov	r4, r1
 8008d7a:	f9b1 100e 	ldrsh.w	r1, [r1, #14]
 8008d7e:	f000 f9b5 	bl	80090ec <_lseek_r>
 8008d82:	1c43      	adds	r3, r0, #1
 8008d84:	89a3      	ldrh	r3, [r4, #12]
 8008d86:	bf15      	itete	ne
 8008d88:	6560      	strne	r0, [r4, #84]	; 0x54
 8008d8a:	f423 5380 	biceq.w	r3, r3, #4096	; 0x1000
 8008d8e:	f443 5380 	orrne.w	r3, r3, #4096	; 0x1000
 8008d92:	81a3      	strheq	r3, [r4, #12]
 8008d94:	bf18      	it	ne
 8008d96:	81a3      	strhne	r3, [r4, #12]
 8008d98:	bd10      	pop	{r4, pc}

08008d9a <__sclose>:
 8008d9a:	f9b1 100e 	ldrsh.w	r1, [r1, #14]
 8008d9e:	f000 b8d3 	b.w	8008f48 <_close_r>
	...

08008da4 <__swbuf_r>:
 8008da4:	b5f8      	push	{r3, r4, r5, r6, r7, lr}
 8008da6:	460e      	mov	r6, r1
 8008da8:	4614      	mov	r4, r2
 8008daa:	4605      	mov	r5, r0
 8008dac:	b118      	cbz	r0, 8008db6 <__swbuf_r+0x12>
 8008dae:	6983      	ldr	r3, [r0, #24]
 8008db0:	b90b      	cbnz	r3, 8008db6 <__swbuf_r+0x12>
 8008db2:	f7ff fbd1 	bl	8008558 <__sinit>
 8008db6:	4b21      	ldr	r3, [pc, #132]	; (8008e3c <__swbuf_r+0x98>)
 8008db8:	429c      	cmp	r4, r3
 8008dba:	d12b      	bne.n	8008e14 <__swbuf_r+0x70>
 8008dbc:	686c      	ldr	r4, [r5, #4]
 8008dbe:	69a3      	ldr	r3, [r4, #24]
 8008dc0:	60a3      	str	r3, [r4, #8]
 8008dc2:	89a3      	ldrh	r3, [r4, #12]
 8008dc4:	071a      	lsls	r2, r3, #28
 8008dc6:	d52f      	bpl.n	8008e28 <__swbuf_r+0x84>
 8008dc8:	6923      	ldr	r3, [r4, #16]
 8008dca:	b36b      	cbz	r3, 8008e28 <__swbuf_r+0x84>
 8008dcc:	6923      	ldr	r3, [r4, #16]
 8008dce:	6820      	ldr	r0, [r4, #0]
 8008dd0:	1ac0      	subs	r0, r0, r3
 8008dd2:	6963      	ldr	r3, [r4, #20]
 8008dd4:	b2f6      	uxtb	r6, r6
 8008dd6:	4283      	cmp	r3, r0
 8008dd8:	4637      	mov	r7, r6
 8008dda:	dc04      	bgt.n	8008de6 <__swbuf_r+0x42>
 8008ddc:	4621      	mov	r1, r4
 8008dde:	4628      	mov	r0, r5
 8008de0:	f000 f948 	bl	8009074 <_fflush_r>
 8008de4:	bb30      	cbnz	r0, 8008e34 <__swbuf_r+0x90>
 8008de6:	68a3      	ldr	r3, [r4, #8]
 8008de8:	3b01      	subs	r3, #1
 8008dea:	60a3      	str	r3, [r4, #8]
 8008dec:	6823      	ldr	r3, [r4, #0]
 8008dee:	1c5a      	adds	r2, r3, #1
 8008df0:	6022      	str	r2, [r4, #0]
 8008df2:	701e      	strb	r6, [r3, #0]
 8008df4:	6963      	ldr	r3, [r4, #20]
 8008df6:	3001      	adds	r0, #1
 8008df8:	4283      	cmp	r3, r0
 8008dfa:	d004      	beq.n	8008e06 <__swbuf_r+0x62>
 8008dfc:	89a3      	ldrh	r3, [r4, #12]
 8008dfe:	07db      	lsls	r3, r3, #31
 8008e00:	d506      	bpl.n	8008e10 <__swbuf_r+0x6c>
 8008e02:	2e0a      	cmp	r6, #10
 8008e04:	d104      	bne.n	8008e10 <__swbuf_r+0x6c>
 8008e06:	4621      	mov	r1, r4
 8008e08:	4628      	mov	r0, r5
 8008e0a:	f000 f933 	bl	8009074 <_fflush_r>
 8008e0e:	b988      	cbnz	r0, 8008e34 <__swbuf_r+0x90>
 8008e10:	4638      	mov	r0, r7
 8008e12:	bdf8      	pop	{r3, r4, r5, r6, r7, pc}
 8008e14:	4b0a      	ldr	r3, [pc, #40]	; (8008e40 <__swbuf_r+0x9c>)
 8008e16:	429c      	cmp	r4, r3
 8008e18:	d101      	bne.n	8008e1e <__swbuf_r+0x7a>
 8008e1a:	68ac      	ldr	r4, [r5, #8]
 8008e1c:	e7cf      	b.n	8008dbe <__swbuf_r+0x1a>
 8008e1e:	4b09      	ldr	r3, [pc, #36]	; (8008e44 <__swbuf_r+0xa0>)
 8008e20:	429c      	cmp	r4, r3
 8008e22:	bf08      	it	eq
 8008e24:	68ec      	ldreq	r4, [r5, #12]
 8008e26:	e7ca      	b.n	8008dbe <__swbuf_r+0x1a>
 8008e28:	4621      	mov	r1, r4
 8008e2a:	4628      	mov	r0, r5
 8008e2c:	f000 f81e 	bl	8008e6c <__swsetup_r>
 8008e30:	2800      	cmp	r0, #0
 8008e32:	d0cb      	beq.n	8008dcc <__swbuf_r+0x28>
 8008e34:	f04f 37ff 	mov.w	r7, #4294967295
 8008e38:	e7ea      	b.n	8008e10 <__swbuf_r+0x6c>
 8008e3a:	bf00      	nop
 8008e3c:	08009394 	.word	0x08009394
 8008e40:	080093b4 	.word	0x080093b4
 8008e44:	08009374 	.word	0x08009374

08008e48 <_write_r>:
 8008e48:	b538      	push	{r3, r4, r5, lr}
 8008e4a:	4d07      	ldr	r5, [pc, #28]	; (8008e68 <_write_r+0x20>)
 8008e4c:	4604      	mov	r4, r0
 8008e4e:	4608      	mov	r0, r1
 8008e50:	4611      	mov	r1, r2
 8008e52:	2200      	movs	r2, #0
 8008e54:	602a      	str	r2, [r5, #0]
 8008e56:	461a      	mov	r2, r3
 8008e58:	f7fe fef8 	bl	8007c4c <_write>
 8008e5c:	1c43      	adds	r3, r0, #1
 8008e5e:	d102      	bne.n	8008e66 <_write_r+0x1e>
 8008e60:	682b      	ldr	r3, [r5, #0]
 8008e62:	b103      	cbz	r3, 8008e66 <_write_r+0x1e>
 8008e64:	6023      	str	r3, [r4, #0]
 8008e66:	bd38      	pop	{r3, r4, r5, pc}
 8008e68:	20001f40 	.word	0x20001f40

08008e6c <__swsetup_r>:
 8008e6c:	4b32      	ldr	r3, [pc, #200]	; (8008f38 <__swsetup_r+0xcc>)
 8008e6e:	b570      	push	{r4, r5, r6, lr}
 8008e70:	681d      	ldr	r5, [r3, #0]
 8008e72:	4606      	mov	r6, r0
 8008e74:	460c      	mov	r4, r1
 8008e76:	b125      	cbz	r5, 8008e82 <__swsetup_r+0x16>
 8008e78:	69ab      	ldr	r3, [r5, #24]
 8008e7a:	b913      	cbnz	r3, 8008e82 <__swsetup_r+0x16>
 8008e7c:	4628      	mov	r0, r5
 8008e7e:	f7ff fb6b 	bl	8008558 <__sinit>
 8008e82:	4b2e      	ldr	r3, [pc, #184]	; (8008f3c <__swsetup_r+0xd0>)
 8008e84:	429c      	cmp	r4, r3
 8008e86:	d10f      	bne.n	8008ea8 <__swsetup_r+0x3c>
 8008e88:	686c      	ldr	r4, [r5, #4]
 8008e8a:	89a3      	ldrh	r3, [r4, #12]
 8008e8c:	f9b4 200c 	ldrsh.w	r2, [r4, #12]
 8008e90:	0719      	lsls	r1, r3, #28
 8008e92:	d42c      	bmi.n	8008eee <__swsetup_r+0x82>
 8008e94:	06dd      	lsls	r5, r3, #27
 8008e96:	d411      	bmi.n	8008ebc <__swsetup_r+0x50>
 8008e98:	2309      	movs	r3, #9
 8008e9a:	6033      	str	r3, [r6, #0]
 8008e9c:	f042 0340 	orr.w	r3, r2, #64	; 0x40
 8008ea0:	81a3      	strh	r3, [r4, #12]
 8008ea2:	f04f 30ff 	mov.w	r0, #4294967295
 8008ea6:	e03e      	b.n	8008f26 <__swsetup_r+0xba>
 8008ea8:	4b25      	ldr	r3, [pc, #148]	; (8008f40 <__swsetup_r+0xd4>)
 8008eaa:	429c      	cmp	r4, r3
 8008eac:	d101      	bne.n	8008eb2 <__swsetup_r+0x46>
 8008eae:	68ac      	ldr	r4, [r5, #8]
 8008eb0:	e7eb      	b.n	8008e8a <__swsetup_r+0x1e>
 8008eb2:	4b24      	ldr	r3, [pc, #144]	; (8008f44 <__swsetup_r+0xd8>)
 8008eb4:	429c      	cmp	r4, r3
 8008eb6:	bf08      	it	eq
 8008eb8:	68ec      	ldreq	r4, [r5, #12]
 8008eba:	e7e6      	b.n	8008e8a <__swsetup_r+0x1e>
 8008ebc:	0758      	lsls	r0, r3, #29
 8008ebe:	d512      	bpl.n	8008ee6 <__swsetup_r+0x7a>
 8008ec0:	6b61      	ldr	r1, [r4, #52]	; 0x34
 8008ec2:	b141      	cbz	r1, 8008ed6 <__swsetup_r+0x6a>
 8008ec4:	f104 0344 	add.w	r3, r4, #68	; 0x44
 8008ec8:	4299      	cmp	r1, r3
 8008eca:	d002      	beq.n	8008ed2 <__swsetup_r+0x66>
 8008ecc:	4630      	mov	r0, r6
 8008ece:	f7ff fa03 	bl	80082d8 <_free_r>
 8008ed2:	2300      	movs	r3, #0
 8008ed4:	6363      	str	r3, [r4, #52]	; 0x34
 8008ed6:	89a3      	ldrh	r3, [r4, #12]
 8008ed8:	f023 0324 	bic.w	r3, r3, #36	; 0x24
 8008edc:	81a3      	strh	r3, [r4, #12]
 8008ede:	2300      	movs	r3, #0
 8008ee0:	6063      	str	r3, [r4, #4]
 8008ee2:	6923      	ldr	r3, [r4, #16]
 8008ee4:	6023      	str	r3, [r4, #0]
 8008ee6:	89a3      	ldrh	r3, [r4, #12]
 8008ee8:	f043 0308 	orr.w	r3, r3, #8
 8008eec:	81a3      	strh	r3, [r4, #12]
 8008eee:	6923      	ldr	r3, [r4, #16]
 8008ef0:	b94b      	cbnz	r3, 8008f06 <__swsetup_r+0x9a>
 8008ef2:	89a3      	ldrh	r3, [r4, #12]
 8008ef4:	f403 7320 	and.w	r3, r3, #640	; 0x280
 8008ef8:	f5b3 7f00 	cmp.w	r3, #512	; 0x200
 8008efc:	d003      	beq.n	8008f06 <__swsetup_r+0x9a>
 8008efe:	4621      	mov	r1, r4
 8008f00:	4630      	mov	r0, r6
 8008f02:	f000 f929 	bl	8009158 <__smakebuf_r>
 8008f06:	89a0      	ldrh	r0, [r4, #12]
 8008f08:	f9b4 200c 	ldrsh.w	r2, [r4, #12]
 8008f0c:	f010 0301 	ands.w	r3, r0, #1
 8008f10:	d00a      	beq.n	8008f28 <__swsetup_r+0xbc>
 8008f12:	2300      	movs	r3, #0
 8008f14:	60a3      	str	r3, [r4, #8]
 8008f16:	6963      	ldr	r3, [r4, #20]
 8008f18:	425b      	negs	r3, r3
 8008f1a:	61a3      	str	r3, [r4, #24]
 8008f1c:	6923      	ldr	r3, [r4, #16]
 8008f1e:	b943      	cbnz	r3, 8008f32 <__swsetup_r+0xc6>
 8008f20:	f010 0080 	ands.w	r0, r0, #128	; 0x80
 8008f24:	d1ba      	bne.n	8008e9c <__swsetup_r+0x30>
 8008f26:	bd70      	pop	{r4, r5, r6, pc}
 8008f28:	0781      	lsls	r1, r0, #30
 8008f2a:	bf58      	it	pl
 8008f2c:	6963      	ldrpl	r3, [r4, #20]
 8008f2e:	60a3      	str	r3, [r4, #8]
 8008f30:	e7f4      	b.n	8008f1c <__swsetup_r+0xb0>
 8008f32:	2000      	movs	r0, #0
 8008f34:	e7f7      	b.n	8008f26 <__swsetup_r+0xba>
 8008f36:	bf00      	nop
 8008f38:	20000184 	.word	0x20000184
 8008f3c:	08009394 	.word	0x08009394
 8008f40:	080093b4 	.word	0x080093b4
 8008f44:	08009374 	.word	0x08009374

08008f48 <_close_r>:
 8008f48:	b538      	push	{r3, r4, r5, lr}
 8008f4a:	4d06      	ldr	r5, [pc, #24]	; (8008f64 <_close_r+0x1c>)
 8008f4c:	2300      	movs	r3, #0
 8008f4e:	4604      	mov	r4, r0
 8008f50:	4608      	mov	r0, r1
 8008f52:	602b      	str	r3, [r5, #0]
 8008f54:	f7fe fea6 	bl	8007ca4 <_close>
 8008f58:	1c43      	adds	r3, r0, #1
 8008f5a:	d102      	bne.n	8008f62 <_close_r+0x1a>
 8008f5c:	682b      	ldr	r3, [r5, #0]
 8008f5e:	b103      	cbz	r3, 8008f62 <_close_r+0x1a>
 8008f60:	6023      	str	r3, [r4, #0]
 8008f62:	bd38      	pop	{r3, r4, r5, pc}
 8008f64:	20001f40 	.word	0x20001f40

08008f68 <__sflush_r>:
 8008f68:	898a      	ldrh	r2, [r1, #12]
 8008f6a:	e92d 41f0 	stmdb	sp!, {r4, r5, r6, r7, r8, lr}
 8008f6e:	4605      	mov	r5, r0
 8008f70:	0710      	lsls	r0, r2, #28
 8008f72:	460c      	mov	r4, r1
 8008f74:	d458      	bmi.n	8009028 <__sflush_r+0xc0>
 8008f76:	684b      	ldr	r3, [r1, #4]
 8008f78:	2b00      	cmp	r3, #0
 8008f7a:	dc05      	bgt.n	8008f88 <__sflush_r+0x20>
 8008f7c:	6c0b      	ldr	r3, [r1, #64]	; 0x40
 8008f7e:	2b00      	cmp	r3, #0
 8008f80:	dc02      	bgt.n	8008f88 <__sflush_r+0x20>
 8008f82:	2000      	movs	r0, #0
 8008f84:	e8bd 81f0 	ldmia.w	sp!, {r4, r5, r6, r7, r8, pc}
 8008f88:	6ae6      	ldr	r6, [r4, #44]	; 0x2c
 8008f8a:	2e00      	cmp	r6, #0
 8008f8c:	d0f9      	beq.n	8008f82 <__sflush_r+0x1a>
 8008f8e:	2300      	movs	r3, #0
 8008f90:	f412 5280 	ands.w	r2, r2, #4096	; 0x1000
 8008f94:	682f      	ldr	r7, [r5, #0]
 8008f96:	602b      	str	r3, [r5, #0]
 8008f98:	d032      	beq.n	8009000 <__sflush_r+0x98>
 8008f9a:	6d60      	ldr	r0, [r4, #84]	; 0x54
 8008f9c:	89a3      	ldrh	r3, [r4, #12]
 8008f9e:	075a      	lsls	r2, r3, #29
 8008fa0:	d505      	bpl.n	8008fae <__sflush_r+0x46>
 8008fa2:	6863      	ldr	r3, [r4, #4]
 8008fa4:	1ac0      	subs	r0, r0, r3
 8008fa6:	6b63      	ldr	r3, [r4, #52]	; 0x34
 8008fa8:	b10b      	cbz	r3, 8008fae <__sflush_r+0x46>
 8008faa:	6c23      	ldr	r3, [r4, #64]	; 0x40
 8008fac:	1ac0      	subs	r0, r0, r3
 8008fae:	2300      	movs	r3, #0
 8008fb0:	4602      	mov	r2, r0
 8008fb2:	6ae6      	ldr	r6, [r4, #44]	; 0x2c
 8008fb4:	6a21      	ldr	r1, [r4, #32]
 8008fb6:	4628      	mov	r0, r5
 8008fb8:	47b0      	blx	r6
 8008fba:	1c43      	adds	r3, r0, #1
 8008fbc:	89a3      	ldrh	r3, [r4, #12]
 8008fbe:	d106      	bne.n	8008fce <__sflush_r+0x66>
 8008fc0:	6829      	ldr	r1, [r5, #0]
 8008fc2:	291d      	cmp	r1, #29
 8008fc4:	d82c      	bhi.n	8009020 <__sflush_r+0xb8>
 8008fc6:	4a2a      	ldr	r2, [pc, #168]	; (8009070 <__sflush_r+0x108>)
 8008fc8:	40ca      	lsrs	r2, r1
 8008fca:	07d6      	lsls	r6, r2, #31
 8008fcc:	d528      	bpl.n	8009020 <__sflush_r+0xb8>
 8008fce:	2200      	movs	r2, #0
 8008fd0:	6062      	str	r2, [r4, #4]
 8008fd2:	04d9      	lsls	r1, r3, #19
 8008fd4:	6922      	ldr	r2, [r4, #16]
 8008fd6:	6022      	str	r2, [r4, #0]
 8008fd8:	d504      	bpl.n	8008fe4 <__sflush_r+0x7c>
 8008fda:	1c42      	adds	r2, r0, #1
 8008fdc:	d101      	bne.n	8008fe2 <__sflush_r+0x7a>
 8008fde:	682b      	ldr	r3, [r5, #0]
 8008fe0:	b903      	cbnz	r3, 8008fe4 <__sflush_r+0x7c>
 8008fe2:	6560      	str	r0, [r4, #84]	; 0x54
 8008fe4:	6b61      	ldr	r1, [r4, #52]	; 0x34
 8008fe6:	602f      	str	r7, [r5, #0]
 8008fe8:	2900      	cmp	r1, #0
 8008fea:	d0ca      	beq.n	8008f82 <__sflush_r+0x1a>
 8008fec:	f104 0344 	add.w	r3, r4, #68	; 0x44
 8008ff0:	4299      	cmp	r1, r3
 8008ff2:	d002      	beq.n	8008ffa <__sflush_r+0x92>
 8008ff4:	4628      	mov	r0, r5
 8008ff6:	f7ff f96f 	bl	80082d8 <_free_r>
 8008ffa:	2000      	movs	r0, #0
 8008ffc:	6360      	str	r0, [r4, #52]	; 0x34
 8008ffe:	e7c1      	b.n	8008f84 <__sflush_r+0x1c>
 8009000:	6a21      	ldr	r1, [r4, #32]
 8009002:	2301      	movs	r3, #1
 8009004:	4628      	mov	r0, r5
 8009006:	47b0      	blx	r6
 8009008:	1c41      	adds	r1, r0, #1
 800900a:	d1c7      	bne.n	8008f9c <__sflush_r+0x34>
 800900c:	682b      	ldr	r3, [r5, #0]
 800900e:	2b00      	cmp	r3, #0
 8009010:	d0c4      	beq.n	8008f9c <__sflush_r+0x34>
 8009012:	2b1d      	cmp	r3, #29
 8009014:	d001      	beq.n	800901a <__sflush_r+0xb2>
 8009016:	2b16      	cmp	r3, #22
 8009018:	d101      	bne.n	800901e <__sflush_r+0xb6>
 800901a:	602f      	str	r7, [r5, #0]
 800901c:	e7b1      	b.n	8008f82 <__sflush_r+0x1a>
 800901e:	89a3      	ldrh	r3, [r4, #12]
 8009020:	f043 0340 	orr.w	r3, r3, #64	; 0x40
 8009024:	81a3      	strh	r3, [r4, #12]
 8009026:	e7ad      	b.n	8008f84 <__sflush_r+0x1c>
 8009028:	690f      	ldr	r7, [r1, #16]
 800902a:	2f00      	cmp	r7, #0
 800902c:	d0a9      	beq.n	8008f82 <__sflush_r+0x1a>
 800902e:	0793      	lsls	r3, r2, #30
 8009030:	680e      	ldr	r6, [r1, #0]
 8009032:	bf08      	it	eq
 8009034:	694b      	ldreq	r3, [r1, #20]
 8009036:	600f      	str	r7, [r1, #0]
 8009038:	bf18      	it	ne
 800903a:	2300      	movne	r3, #0
 800903c:	eba6 0807 	sub.w	r8, r6, r7
 8009040:	608b      	str	r3, [r1, #8]
 8009042:	f1b8 0f00 	cmp.w	r8, #0
 8009046:	dd9c      	ble.n	8008f82 <__sflush_r+0x1a>
 8009048:	6a21      	ldr	r1, [r4, #32]
 800904a:	6aa6      	ldr	r6, [r4, #40]	; 0x28
 800904c:	4643      	mov	r3, r8
 800904e:	463a      	mov	r2, r7
 8009050:	4628      	mov	r0, r5
 8009052:	47b0      	blx	r6
 8009054:	2800      	cmp	r0, #0
 8009056:	dc06      	bgt.n	8009066 <__sflush_r+0xfe>
 8009058:	89a3      	ldrh	r3, [r4, #12]
 800905a:	f043 0340 	orr.w	r3, r3, #64	; 0x40
 800905e:	81a3      	strh	r3, [r4, #12]
 8009060:	f04f 30ff 	mov.w	r0, #4294967295
 8009064:	e78e      	b.n	8008f84 <__sflush_r+0x1c>
 8009066:	4407      	add	r7, r0
 8009068:	eba8 0800 	sub.w	r8, r8, r0
 800906c:	e7e9      	b.n	8009042 <__sflush_r+0xda>
 800906e:	bf00      	nop
 8009070:	20400001 	.word	0x20400001

08009074 <_fflush_r>:
 8009074:	b538      	push	{r3, r4, r5, lr}
 8009076:	690b      	ldr	r3, [r1, #16]
 8009078:	4605      	mov	r5, r0
 800907a:	460c      	mov	r4, r1
 800907c:	b913      	cbnz	r3, 8009084 <_fflush_r+0x10>
 800907e:	2500      	movs	r5, #0
 8009080:	4628      	mov	r0, r5
 8009082:	bd38      	pop	{r3, r4, r5, pc}
 8009084:	b118      	cbz	r0, 800908e <_fflush_r+0x1a>
 8009086:	6983      	ldr	r3, [r0, #24]
 8009088:	b90b      	cbnz	r3, 800908e <_fflush_r+0x1a>
 800908a:	f7ff fa65 	bl	8008558 <__sinit>
 800908e:	4b14      	ldr	r3, [pc, #80]	; (80090e0 <_fflush_r+0x6c>)
 8009090:	429c      	cmp	r4, r3
 8009092:	d11b      	bne.n	80090cc <_fflush_r+0x58>
 8009094:	686c      	ldr	r4, [r5, #4]
 8009096:	f9b4 300c 	ldrsh.w	r3, [r4, #12]
 800909a:	2b00      	cmp	r3, #0
 800909c:	d0ef      	beq.n	800907e <_fflush_r+0xa>
 800909e:	6e62      	ldr	r2, [r4, #100]	; 0x64
 80090a0:	07d0      	lsls	r0, r2, #31
 80090a2:	d404      	bmi.n	80090ae <_fflush_r+0x3a>
 80090a4:	0599      	lsls	r1, r3, #22
 80090a6:	d402      	bmi.n	80090ae <_fflush_r+0x3a>
 80090a8:	6da0      	ldr	r0, [r4, #88]	; 0x58
 80090aa:	f7ff faf3 	bl	8008694 <__retarget_lock_acquire_recursive>
 80090ae:	4628      	mov	r0, r5
 80090b0:	4621      	mov	r1, r4
 80090b2:	f7ff ff59 	bl	8008f68 <__sflush_r>
 80090b6:	6e63      	ldr	r3, [r4, #100]	; 0x64
 80090b8:	07da      	lsls	r2, r3, #31
 80090ba:	4605      	mov	r5, r0
 80090bc:	d4e0      	bmi.n	8009080 <_fflush_r+0xc>
 80090be:	89a3      	ldrh	r3, [r4, #12]
 80090c0:	059b      	lsls	r3, r3, #22
 80090c2:	d4dd      	bmi.n	8009080 <_fflush_r+0xc>
 80090c4:	6da0      	ldr	r0, [r4, #88]	; 0x58
 80090c6:	f7ff fae6 	bl	8008696 <__retarget_lock_release_recursive>
 80090ca:	e7d9      	b.n	8009080 <_fflush_r+0xc>
 80090cc:	4b05      	ldr	r3, [pc, #20]	; (80090e4 <_fflush_r+0x70>)
 80090ce:	429c      	cmp	r4, r3
 80090d0:	d101      	bne.n	80090d6 <_fflush_r+0x62>
 80090d2:	68ac      	ldr	r4, [r5, #8]
 80090d4:	e7df      	b.n	8009096 <_fflush_r+0x22>
 80090d6:	4b04      	ldr	r3, [pc, #16]	; (80090e8 <_fflush_r+0x74>)
 80090d8:	429c      	cmp	r4, r3
 80090da:	bf08      	it	eq
 80090dc:	68ec      	ldreq	r4, [r5, #12]
 80090de:	e7da      	b.n	8009096 <_fflush_r+0x22>
 80090e0:	08009394 	.word	0x08009394
 80090e4:	080093b4 	.word	0x080093b4
 80090e8:	08009374 	.word	0x08009374

080090ec <_lseek_r>:
 80090ec:	b538      	push	{r3, r4, r5, lr}
 80090ee:	4d07      	ldr	r5, [pc, #28]	; (800910c <_lseek_r+0x20>)
 80090f0:	4604      	mov	r4, r0
 80090f2:	4608      	mov	r0, r1
 80090f4:	4611      	mov	r1, r2
 80090f6:	2200      	movs	r2, #0
 80090f8:	602a      	str	r2, [r5, #0]
 80090fa:	461a      	mov	r2, r3
 80090fc:	f7fe fddc 	bl	8007cb8 <_lseek>
 8009100:	1c43      	adds	r3, r0, #1
 8009102:	d102      	bne.n	800910a <_lseek_r+0x1e>
 8009104:	682b      	ldr	r3, [r5, #0]
 8009106:	b103      	cbz	r3, 800910a <_lseek_r+0x1e>
 8009108:	6023      	str	r3, [r4, #0]
 800910a:	bd38      	pop	{r3, r4, r5, pc}
 800910c:	20001f40 	.word	0x20001f40

08009110 <__swhatbuf_r>:
 8009110:	b570      	push	{r4, r5, r6, lr}
 8009112:	460e      	mov	r6, r1
 8009114:	f9b1 100e 	ldrsh.w	r1, [r1, #14]
 8009118:	2900      	cmp	r1, #0
 800911a:	b096      	sub	sp, #88	; 0x58
 800911c:	4614      	mov	r4, r2
 800911e:	461d      	mov	r5, r3
 8009120:	da07      	bge.n	8009132 <__swhatbuf_r+0x22>
 8009122:	2300      	movs	r3, #0
 8009124:	602b      	str	r3, [r5, #0]
 8009126:	89b3      	ldrh	r3, [r6, #12]
 8009128:	061a      	lsls	r2, r3, #24
 800912a:	d410      	bmi.n	800914e <__swhatbuf_r+0x3e>
 800912c:	f44f 6380 	mov.w	r3, #1024	; 0x400
 8009130:	e00e      	b.n	8009150 <__swhatbuf_r+0x40>
 8009132:	466a      	mov	r2, sp
 8009134:	f000 f862 	bl	80091fc <_fstat_r>
 8009138:	2800      	cmp	r0, #0
 800913a:	dbf2      	blt.n	8009122 <__swhatbuf_r+0x12>
 800913c:	9a01      	ldr	r2, [sp, #4]
 800913e:	f402 4270 	and.w	r2, r2, #61440	; 0xf000
 8009142:	f5a2 5300 	sub.w	r3, r2, #8192	; 0x2000
 8009146:	425a      	negs	r2, r3
 8009148:	415a      	adcs	r2, r3
 800914a:	602a      	str	r2, [r5, #0]
 800914c:	e7ee      	b.n	800912c <__swhatbuf_r+0x1c>
 800914e:	2340      	movs	r3, #64	; 0x40
 8009150:	2000      	movs	r0, #0
 8009152:	6023      	str	r3, [r4, #0]
 8009154:	b016      	add	sp, #88	; 0x58
 8009156:	bd70      	pop	{r4, r5, r6, pc}

08009158 <__smakebuf_r>:
 8009158:	898b      	ldrh	r3, [r1, #12]
 800915a:	b573      	push	{r0, r1, r4, r5, r6, lr}
 800915c:	079d      	lsls	r5, r3, #30
 800915e:	4606      	mov	r6, r0
 8009160:	460c      	mov	r4, r1
 8009162:	d507      	bpl.n	8009174 <__smakebuf_r+0x1c>
 8009164:	f104 0347 	add.w	r3, r4, #71	; 0x47
 8009168:	6023      	str	r3, [r4, #0]
 800916a:	6123      	str	r3, [r4, #16]
 800916c:	2301      	movs	r3, #1
 800916e:	6163      	str	r3, [r4, #20]
 8009170:	b002      	add	sp, #8
 8009172:	bd70      	pop	{r4, r5, r6, pc}
 8009174:	ab01      	add	r3, sp, #4
 8009176:	466a      	mov	r2, sp
 8009178:	f7ff ffca 	bl	8009110 <__swhatbuf_r>
 800917c:	9900      	ldr	r1, [sp, #0]
 800917e:	4605      	mov	r5, r0
 8009180:	4630      	mov	r0, r6
 8009182:	f7ff f8f9 	bl	8008378 <_malloc_r>
 8009186:	b948      	cbnz	r0, 800919c <__smakebuf_r+0x44>
 8009188:	f9b4 300c 	ldrsh.w	r3, [r4, #12]
 800918c:	059a      	lsls	r2, r3, #22
 800918e:	d4ef      	bmi.n	8009170 <__smakebuf_r+0x18>
 8009190:	f023 0303 	bic.w	r3, r3, #3
 8009194:	f043 0302 	orr.w	r3, r3, #2
 8009198:	81a3      	strh	r3, [r4, #12]
 800919a:	e7e3      	b.n	8009164 <__smakebuf_r+0xc>
 800919c:	4b0d      	ldr	r3, [pc, #52]	; (80091d4 <__smakebuf_r+0x7c>)
 800919e:	62b3      	str	r3, [r6, #40]	; 0x28
 80091a0:	89a3      	ldrh	r3, [r4, #12]
 80091a2:	6020      	str	r0, [r4, #0]
 80091a4:	f043 0380 	orr.w	r3, r3, #128	; 0x80
 80091a8:	81a3      	strh	r3, [r4, #12]
 80091aa:	9b00      	ldr	r3, [sp, #0]
 80091ac:	6163      	str	r3, [r4, #20]
 80091ae:	9b01      	ldr	r3, [sp, #4]
 80091b0:	6120      	str	r0, [r4, #16]
 80091b2:	b15b      	cbz	r3, 80091cc <__smakebuf_r+0x74>
 80091b4:	f9b4 100e 	ldrsh.w	r1, [r4, #14]
 80091b8:	4630      	mov	r0, r6
 80091ba:	f000 f831 	bl	8009220 <_isatty_r>
 80091be:	b128      	cbz	r0, 80091cc <__smakebuf_r+0x74>
 80091c0:	89a3      	ldrh	r3, [r4, #12]
 80091c2:	f023 0303 	bic.w	r3, r3, #3
 80091c6:	f043 0301 	orr.w	r3, r3, #1
 80091ca:	81a3      	strh	r3, [r4, #12]
 80091cc:	89a0      	ldrh	r0, [r4, #12]
 80091ce:	4305      	orrs	r5, r0
 80091d0:	81a5      	strh	r5, [r4, #12]
 80091d2:	e7cd      	b.n	8009170 <__smakebuf_r+0x18>
 80091d4:	080084f1 	.word	0x080084f1

080091d8 <_read_r>:
 80091d8:	b538      	push	{r3, r4, r5, lr}
 80091da:	4d07      	ldr	r5, [pc, #28]	; (80091f8 <_read_r+0x20>)
 80091dc:	4604      	mov	r4, r0
 80091de:	4608      	mov	r0, r1
 80091e0:	4611      	mov	r1, r2
 80091e2:	2200      	movs	r2, #0
 80091e4:	602a      	str	r2, [r5, #0]
 80091e6:	461a      	mov	r2, r3
 80091e8:	f7fe fd20 	bl	8007c2c <_read>
 80091ec:	1c43      	adds	r3, r0, #1
 80091ee:	d102      	bne.n	80091f6 <_read_r+0x1e>
 80091f0:	682b      	ldr	r3, [r5, #0]
 80091f2:	b103      	cbz	r3, 80091f6 <_read_r+0x1e>
 80091f4:	6023      	str	r3, [r4, #0]
 80091f6:	bd38      	pop	{r3, r4, r5, pc}
 80091f8:	20001f40 	.word	0x20001f40

080091fc <_fstat_r>:
 80091fc:	b538      	push	{r3, r4, r5, lr}
 80091fe:	4d07      	ldr	r5, [pc, #28]	; (800921c <_fstat_r+0x20>)
 8009200:	2300      	movs	r3, #0
 8009202:	4604      	mov	r4, r0
 8009204:	4608      	mov	r0, r1
 8009206:	4611      	mov	r1, r2
 8009208:	602b      	str	r3, [r5, #0]
 800920a:	f7fe fd4e 	bl	8007caa <_fstat>
 800920e:	1c43      	adds	r3, r0, #1
 8009210:	d102      	bne.n	8009218 <_fstat_r+0x1c>
 8009212:	682b      	ldr	r3, [r5, #0]
 8009214:	b103      	cbz	r3, 8009218 <_fstat_r+0x1c>
 8009216:	6023      	str	r3, [r4, #0]
 8009218:	bd38      	pop	{r3, r4, r5, pc}
 800921a:	bf00      	nop
 800921c:	20001f40 	.word	0x20001f40

08009220 <_isatty_r>:
 8009220:	b538      	push	{r3, r4, r5, lr}
 8009222:	4d06      	ldr	r5, [pc, #24]	; (800923c <_isatty_r+0x1c>)
 8009224:	2300      	movs	r3, #0
 8009226:	4604      	mov	r4, r0
 8009228:	4608      	mov	r0, r1
 800922a:	602b      	str	r3, [r5, #0]
 800922c:	f7fe fd42 	bl	8007cb4 <_isatty>
 8009230:	1c43      	adds	r3, r0, #1
 8009232:	d102      	bne.n	800923a <_isatty_r+0x1a>
 8009234:	682b      	ldr	r3, [r5, #0]
 8009236:	b103      	cbz	r3, 800923a <_isatty_r+0x1a>
 8009238:	6023      	str	r3, [r4, #0]
 800923a:	bd38      	pop	{r3, r4, r5, pc}
 800923c:	20001f40 	.word	0x20001f40

08009240 <_init>:
 8009240:	b5f8      	push	{r3, r4, r5, r6, r7, lr}
 8009242:	bf00      	nop
 8009244:	bcf8      	pop	{r3, r4, r5, r6, r7}
 8009246:	bc08      	pop	{r3}
 8009248:	469e      	mov	lr, r3
 800924a:	4770      	bx	lr

0800924c <_fini>:
 800924c:	b5f8      	push	{r3, r4, r5, r6, r7, lr}
 800924e:	bf00      	nop
 8009250:	bcf8      	pop	{r3, r4, r5, r6, r7}
 8009252:	bc08      	pop	{r3}
 8009254:	469e      	mov	lr, r3
 8009256:	4770      	bx	lr
